(dp1
S'output'
p2
S"<type 'exceptions.TypeError'> list indices must be integers, not str"
p3
sS'layer'
p4
S'/home/simran/web2py/applications/IIIT_calendars/views/default/formedit.html'
p5
sS'code'
p6
S'response.write(\'<!DOCTYPE html>\\n<!-- paulirish.com/2008/conditional-stylesheets-vs-css-hacks-answer-neither/ -->\\n<!--[if lt IE 7]><html class="ie ie6 ie-lte9 ie-lte8 ie-lte7 no-js" lang="\', escape=False)\nresponse.write(T.accepted_language or \'en\')\nresponse.write(\'"> <![endif]-->\\n<!--[if IE 7]><html class="ie ie7 ie-lte9 ie-lte8 ie-lte7 no-js" lang="\', escape=False)\nresponse.write(T.accepted_language or \'en\')\nresponse.write(\'"> <![endif]-->\\n<!--[if IE 8]><html class="ie ie8 ie-lte9 ie-lte8 no-js" lang="\', escape=False)\nresponse.write(T.accepted_language or \'en\')\nresponse.write(\'"> <![endif]-->\\n<!--[if IE 9]><html class="ie9 ie-lte9 no-js" lang="\', escape=False)\nresponse.write(T.accepted_language or \'en\')\nresponse.write(\'"> <![endif]-->\\n<!--[if (gt IE 9)|!(IE)]><!--> <html class="no-js" lang="\', escape=False)\nresponse.write(T.accepted_language or \'en\')\nresponse.write(\'"> <!--<![endif]-->\\n<head>\\n  <meta charset="utf-8" />\\n  <!-- www.phpied.com/conditional-comments-block-downloads/ -->\\n  <!-- Always force latest IE rendering engine\\n       (even in intranet) & Chrome Frame\\n       Remove this if you use the .htaccess -->\\n \\n      <meta http-equiv="X-UA-Compatible" content="IE=edge\', escape=False)\nresponse.write(not request.is_local and \',chrome=1\' or \'\')\nresponse.write(\'">\\n      \\n\\n  <title>\', escape=False)\nresponse.write(response.title or request.application)\nresponse.write(\'</title>\\n\\n  <!-- http://dev.w3.org/html5/markup/meta.name.html -->\\n  <meta name="application-name" content="\', escape=False)\nresponse.write(request.application)\nresponse.write(\'" />\\n\\n  <!-- Speaking of Google, don\\\'t forget to set your site up:\\n       http://google.com/webmasters -->\\n  <meta name="google-site-verification" content="" />\\n\\n  <!--  Mobile Viewport Fix\\n        j.mp/mobileviewport & davidbcalhoun.com/2010/viewport-metatag\\n        device-width: Occupy full width of the screen in its current orientation\\n        initial-scale = 1.0 retains dimensions instead of zooming out if page height > device height\\n        user-scalable = yes allows the user to zoom in -->\\n  <meta name="viewport" content="width=device-width, initial-scale=1.0" />\\n\\n  <link rel="shortcut icon" href="\', escape=False)\nresponse.write(URL(\'static\',\'images/favicon.ico\'))\nresponse.write(\'" type="image/x-icon">\\n  <link rel="apple-touch-icon" href="\', escape=False)\nresponse.write(URL(\'static\',\'images/favicon.png\'))\nresponse.write(\'">\\n\\n  <!-- All JavaScript at the bottom, except for Modernizr which enables\\n       HTML5 elements & feature detects -->\\n  <!--script src="\', escape=False)\nresponse.write(URL(\'static\',\'js/modernizr.custom.js\'))\nresponse.write(\'"></script-->\\n <script src="\', escape=False)\nresponse.write(URL(request.application,\'static\',\'js/modernizr-1.6.min.js\'))\nresponse.write(\'"></script>\\n  <!-- include stylesheets -->\\n  \', escape=False)\nresponse.files.append(URL(\'static\',\'css/web2py.css\'))\nresponse.files.append(URL(\'static\',\'css/bootstrap.min.css\'))\nresponse.files.append(URL(\'static\',\'css/bootstrap-responsive.min.css\'))\nresponse.files.append(URL(\'static\',\'css/web2py_bootstrap.css\'))\nresponse.write(\'\\n\\n  \', escape=False)\nresponse.write(\'<script type="text/javascript"><!--\\n    // These variables are used by the web2py_ajax_init function in web2py_ajax.js (which is loaded below).\\n    var w2p_ajax_confirm_message = "\', escape=False)\nresponse.write(T(\'Are you sure you want to delete this object?\'))\nresponse.write(\'";\\n    var w2p_ajax_date_format = "\', escape=False)\nresponse.write(T(\'%Y-%m-%d\'))\nresponse.write(\'";\\n    var w2p_ajax_datetime_format = "\', escape=False)\nresponse.write(T(\'%Y-%m-%d %H:%M:%S\'))\nresponse.write(\'";\\n    //--></script>\\n\', escape=False)\nresponse.files.insert(0,URL(\'static\',\'js/jquery.js\'))\nresponse.files.insert(1,URL(\'static\',\'css/calendar.css\'))\nresponse.files.insert(2,URL(\'static\',\'js/calendar.js\'))\nresponse.files.insert(3,URL(\'static\',\'js/web2py.js\'))\nresponse.include_meta()\nresponse.include_files()\nresponse.write(\'\\n\', escape=False)\nresponse.write(\'\\n\\n  \', escape=False)\n# using sidebars need to know what sidebar you want to use\nleft_sidebar_enabled = globals().get(\'left_sidebar_enabled\',False)\nright_sidebar_enabled = globals().get(\'right_sidebar_enabled\',False)\nmiddle_columns = {0:\'span12\',1:\'span9\',2:\'span6\'}[\n(left_sidebar_enabled and 1 or 0)+(right_sidebar_enabled and 1 or 0)]\nresponse.write(\'\\n\\n  <!-- uncomment here to load jquery-ui\\n       <link rel="stylesheet" href="http://ajax.googleapis.com/ajax/libs/jqueryui/1.8.16/themes/base/jquery-ui.css" type="text/css" media="all" />\\n       <script src="http://ajax.googleapis.com/ajax/libs/jqueryui/1.8.16/jquery-ui.min.js" type="text/javascript"></script>\\n       uncomment to load jquery-ui //-->\\n  <noscript><link href="\', escape=False)\nresponse.write(URL(\'static\', \'css/web2py_bootstrap_nojs.css\'))\nresponse.write(\'" rel="stylesheet" type="text/css" /></noscript>\\n  \', escape=False)\nresponse.write(\'\\n</head>\\n\\n<!--body style="background-image:url(\', escape=False)\nresponse.write(URL(\'static\', \'images/a.jpg\'))\nresponse.write(\')"-->\\n  <body id="sg">\\n  <!-- Navbar ================================================== -->\\n    <div class="navbar navbar-inverse navbar-fixed-top">\\n    <div class="flash">\', escape=False)\nresponse.write(response.flash or \'\')\nresponse.write(\'</div>\\n    <div class="navbar-inner">\\n      <div class="container">\\n        \\n        <ul id="navbar" class="nav pull-right">\', escape=False)\nresponse.write(\'auth\' in globals() and auth.navbar(mode="dropdown") or \'\')\nresponse.write(\'</ul>\\n \\n      </div>\\n    </div>\\n  </div><!--/top navbar -->\\n\\n\\n  <div class="container">\\n    <!-- Masthead ================================================== removed-->\\n      <br/>\\n\\n    <section id="main" class="main row">\\n        \', escape=False)\nif left_sidebar_enabled:\n    response.write(\'\\n        <div class="span3 left-sidebar">\\n            \', escape=False)\n    response.write(\'\\n            <h3>Left Sidebar</h3>\\n            <p></p>\\n            \', escape=False)\n    response.write(\'\\n        </div>\\n        \', escape=False)\n    pass\nresponse.write(\'\\n\\n        <div class="\', escape=False)\nresponse.write(middle_columns)\nresponse.write(\'">\\n            \', escape=False)\nresponse.write(\'\\n            \', escape=False)\nresponse.write(\'\\n<br />\\n<br />\\n<div style="text-align:center">\\n    <form action="edit_events?e=\', escape=False)\nresponse.write(a[\'Title\'])\nresponse.write(\'" method="POST">\\n    Title : <input type="text" name="Tit" value="\', escape=False)\nresponse.write(a[\'Title\'])\nresponse.write(\'"/> <br/> \\n    Description : <input type="text" name="Des" value="\', escape=False)\nresponse.write(a[\'Description\'])\nresponse.write(\'"/> <br /> \\n    Event Date : <input type="text" name="Eve" value="\', escape=False)\nresponse.write(a[\'Eventdate\'])\nresponse.write(\'"/> <br/>\\n    Start time : <input type="text" name="Sta" value="\', escape=False)\nresponse.write(a[\'Starttime\'])\nresponse.write(\'"/>  <br/>\\n    End Time : <input type="text" name="End" value="\', escape=False)\nresponse.write(a[\'Endtime\'])\nresponse.write(\'"/> <br/>\\n    All Day : <input type="text" name="All" value="\', escape=False)\nresponse.write(a[\'All_day\'])\nresponse.write(\'"/> <br/>\\n    Venue : <input type="text" name="Ven" value="\', escape=False)\nresponse.write(a[\'Venue\'])\nresponse.write(\'"/> <br/>\\n    <input type=submit value="Submit">\\n    </form>\\n</div>\\n\', escape=False)\nresponse.write(\'\\n            \', escape=False)\nresponse.write(\'\\n        </div>\\n\\n        \', escape=False)\nif right_sidebar_enabled:\n    response.write(\'\\n        <div class="span3">\\n            \', escape=False)\n    response.write(\'\\n            <h3>Right Sidebar</h3>\\n            <p></p>\\n            \', escape=False)\n    response.write(\'\\n        </div>\\n        \', escape=False)\n    pass\nresponse.write(\'\\n    </section><!--/main-->\\n\\n    <!-- Footer ================================================== -->\\n    <div class="row">\\n        <footer class="footer span12" id="footer">\\n            <div class="footer-content">\\n                \', escape=False)\nresponse.write(\' <!-- this is default footer -->\\n                <div class="copyright pull-left">\', escape=False)\nresponse.write(T(\'Copyright\'))\nresponse.write(\' &#169; \', escape=False)\nresponse.write(request.now.year)\nresponse.write(\'</div>\\n                <div id="poweredBy" class="pull-right">\\n                    \', escape=False)\nresponse.write(T(\'Powered by\'))\nresponse.write(\'\\n                    <a href="http://www.web2py.com/">web2py</a>\\n                </div>\\n                \', escape=False)\nresponse.write(\'\\n            </div>\\n        </footer>\\n    </div>\\n\\n  </div> <!-- /container -->\\n\\n  <!-- The javascript =============================================\\n       (Placed at the end of the document so the pages load faster) -->\\n  <script src="\', escape=False)\nresponse.write(URL(\'static\',\'js/bootstrap.min.js\'))\nresponse.write(\'"></script>\\n  <script src="\', escape=False)\nresponse.write(URL(\'static\',\'js/web2py_bootstrap.js\'))\nresponse.write(\'"></script>\\n  <!--[if lt IE 7 ]>\\n      <script src="\', escape=False)\nresponse.write(URL(\'static\',\'js/dd_belatedpng.js\'))\nresponse.write(\'"></script>\\n      <script> DD_belatedPNG.fix(\\\'img, .png_bg\\\'); //fix any <img> or .png_bg background-images </script>\\n      <![endif]-->\\n  \\n  \', escape=False)\nif response.google_analytics_id:\n    response.write(\'\\n  <script src="\', escape=False)\n    response.write(URL(\'static\',\'js/analytics.js\'))\n    response.write(\'"></script>\\n  <script type="text/javascript">\\n  analytics.initialize({\\n    \\\'Google Analytics\\\':{trackingId:\\\'\', escape=False)\n    response.write(response.google_analytics_id)\n    response.write("\'} \\n  });</script>\\n  ", escape=False)\n    pass\nresponse.write(\'\\n  <script src="\', escape=False)\nresponse.write(URL(\'static\',\'js/share.js\',vars=dict(static=URL(\'static\',\'images\'))))\nresponse.write(\'"></script>\\n</body>\\n</html>\\n\', escape=False)'
p7
sS'snapshot'
p8
(dp9
S'exception'
p10
(dp11
S'__hash__'
p12
S"<method-wrapper '__hash__' of exceptions.TypeError object>"
p13
sS'__setattr__'
p14
S"<method-wrapper '__setattr__' of exceptions.TypeError object>"
p15
sS'__reduce_ex__'
p16
S'<built-in method __reduce_ex__ of exceptions.TypeError object>'
p17
sS'__getslice__'
p18
S"<method-wrapper '__getslice__' of exceptions.TypeError object>"
p19
sS'__getitem__'
p20
S"<method-wrapper '__getitem__' of exceptions.TypeError object>"
p21
sS'__setstate__'
p22
S'<built-in method __setstate__ of exceptions.TypeError object>'
p23
sS'args'
p24
S"('list indices must be integers, not str',)"
p25
sS'__reduce__'
p26
S'<built-in method __reduce__ of exceptions.TypeError object>'
p27
sS'__str__'
p28
S"<method-wrapper '__str__' of exceptions.TypeError object>"
p29
sS'__format__'
p30
S'<built-in method __format__ of exceptions.TypeError object>'
p31
sS'__getattribute__'
p32
S"<method-wrapper '__getattribute__' of exceptions.TypeError object>"
p33
sS'__class__'
p34
S"<type 'exceptions.TypeError'>"
p35
sS'__unicode__'
p36
S'<built-in method __unicode__ of exceptions.TypeError object>'
p37
sS'__delattr__'
p38
S"<method-wrapper '__delattr__' of exceptions.TypeError object>"
p39
sS'__subclasshook__'
p40
S'<built-in method __subclasshook__ of type object>'
p41
sS'__repr__'
p42
S"<method-wrapper '__repr__' of exceptions.TypeError object>"
p43
sS'__dict__'
p44
S'{}'
p45
sS'__sizeof__'
p46
S'<built-in method __sizeof__ of exceptions.TypeError object>'
p47
sS'__doc__'
p48
S"'Inappropriate argument type.'"
p49
sS'__init__'
p50
S"<method-wrapper '__init__' of exceptions.TypeError object>"
p51
sS'__new__'
p52
S'<built-in method __new__ of type object>'
p53
ssS'evalue'
p54
S'list indices must be integers, not str'
p55
sS'request'
p56
ccopy_reg
_reconstructor
p57
(cgluon.html
BEAUTIFY
p58
c__builtin__
object
p59
NtRp60
(dp61
S'attributes'
p62
(dp63
sS'components'
p64
(lp65
g57
(cgluon.html
TABLE
p66
g59
NtRp67
(dp68
g62
(dp69
S'level'
p70
I5
ssS'parent'
p71
Nsg64
(lp72
g57
(cgluon.html
TR
p73
g59
NtRp74
(dp75
g62
(dp76
sg71
g67
sg64
(lp77
g57
(cgluon.html
TD
p78
g59
NtRp79
(dp80
g62
(dp81
S'_style'
p82
S'font-weight:bold;vertical-align:top'
p83
ssg71
g74
sg64
(lp84
S'ajax'
p85
asbag57
(g78
g59
NtRp86
(dp87
g62
(dp88
S'_valign'
p89
S'top'
p90
ssg71
g74
sg64
(lp91
S':'
asbag57
(g78
g59
NtRp92
(dp93
g62
(dp94
sg71
g74
sg64
(lp95
g57
(g58
g59
NtRp96
(dp97
g62
(dp98
g70
I5
ssg71
g92
sg64
(lp99
S'False'
p100
asbasbasbag57
(g73
g59
NtRp101
(dp102
g62
(dp103
sg71
g67
sg64
(lp104
g57
(g78
g59
NtRp105
(dp106
g62
(dp107
g82
g83
ssg71
g101
sg64
(lp108
S'application'
p109
asbag57
(g78
g59
NtRp110
(dp111
g62
(dp112
g89
g90
ssg71
g101
sg64
(lp113
S':'
asbag57
(g78
g59
NtRp114
(dp115
g62
(dp116
sg71
g101
sg64
(lp117
g57
(g58
g59
NtRp118
(dp119
g62
(dp120
g70
I5
ssg71
g114
sg64
(lp121
S'IIIT_calendars'
p122
asbasbasbag57
(g73
g59
NtRp123
(dp124
g62
(dp125
sg71
g67
sg64
(lp126
g57
(g78
g59
NtRp127
(dp128
g62
(dp129
g82
g83
ssg71
g123
sg64
(lp130
g24
asbag57
(g78
g59
NtRp131
(dp132
g62
(dp133
g89
g90
ssg71
g123
sg64
(lp134
S':'
asbag57
(g78
g59
NtRp135
(dp136
g62
(dp137
sg71
g123
sg64
(lp138
g57
(g58
g59
NtRp139
(dp140
g62
(dp141
g70
I5
ssg71
g135
sg64
(lp142
g57
(g66
g59
NtRp143
(dp144
g62
(dp145
g70
I4
ssg71
Nsg64
(lp146
sbasbasbasbag57
(g73
g59
NtRp147
(dp148
g62
(dp149
sg71
g67
sg64
(lp150
g57
(g78
g59
NtRp151
(dp152
g62
(dp153
g82
g83
ssg71
g147
sg64
(lp154
S'body'
p155
asbag57
(g78
g59
NtRp156
(dp157
g62
(dp158
g89
g90
ssg71
g147
sg64
(lp159
S':'
asbag57
(g78
g59
NtRp160
(dp161
g62
(dp162
sg71
g147
sg64
(lp163
g57
(g58
g59
NtRp164
(dp165
g62
(dp166
g70
I5
ssg71
g160
sg64
(lp167
S'<cStringIO.StringO object at 0x7f6fdc2b39d0>'
p168
asbasbasbag57
(g73
g59
NtRp169
(dp170
g62
(dp171
sg71
g67
sg64
(lp172
g57
(g78
g59
NtRp173
(dp174
g62
(dp175
g82
g83
ssg71
g169
sg64
(lp176
S'cid'
p177
asbag57
(g78
g59
NtRp178
(dp179
g62
(dp180
g89
g90
ssg71
g169
sg64
(lp181
S':'
asbag57
(g78
g59
NtRp182
(dp183
g62
(dp184
sg71
g169
sg64
(lp185
g57
(g58
g59
NtRp186
(dp187
g62
(dp188
g70
I5
ssg71
g182
sg64
(lp189
S'None'
p190
asbasbasbag57
(g73
g59
NtRp191
(dp192
g62
(dp193
sg71
g67
sg64
(lp194
g57
(g78
g59
NtRp195
(dp196
g62
(dp197
g82
g83
ssg71
g191
sg64
(lp198
S'client'
p199
asbag57
(g78
g59
NtRp200
(dp201
g62
(dp202
g89
g90
ssg71
g191
sg64
(lp203
S':'
asbag57
(g78
g59
NtRp204
(dp205
g62
(dp206
sg71
g191
sg64
(lp207
g57
(g58
g59
NtRp208
(dp209
g62
(dp210
g70
I5
ssg71
g204
sg64
(lp211
S'127.0.0.1'
p212
asbasbasbag57
(g73
g59
NtRp213
(dp214
g62
(dp215
sg71
g67
sg64
(lp216
g57
(g78
g59
NtRp217
(dp218
g62
(dp219
g82
g83
ssg71
g213
sg64
(lp220
S'controller'
p221
asbag57
(g78
g59
NtRp222
(dp223
g62
(dp224
g89
g90
ssg71
g213
sg64
(lp225
S':'
asbag57
(g78
g59
NtRp226
(dp227
g62
(dp228
sg71
g213
sg64
(lp229
g57
(g58
g59
NtRp230
(dp231
g62
(dp232
g70
I5
ssg71
g226
sg64
(lp233
S'default'
p234
asbasbasbag57
(g73
g59
NtRp235
(dp236
g62
(dp237
sg71
g67
sg64
(lp238
g57
(g78
g59
NtRp239
(dp240
g62
(dp241
g82
g83
ssg71
g235
sg64
(lp242
S'cookies'
p243
asbag57
(g78
g59
NtRp244
(dp245
g62
(dp246
g89
g90
ssg71
g235
sg64
(lp247
S':'
asbag57
(g78
g59
NtRp248
(dp249
g62
(dp250
sg71
g235
sg64
(lp251
g57
(g58
g59
NtRp252
(dp253
g62
(dp254
g70
I5
ssg71
g248
sg64
(lp255
g57
(g66
g59
NtRp256
(dp257
g62
(dp258
g70
I4
ssg71
Nsg64
(lp259
g57
(g73
g59
NtRp260
(dp261
g62
(dp262
sg71
g256
sg64
(lp263
g57
(g78
g59
NtRp264
(dp265
g62
(dp266
g82
g83
ssg71
g260
sg64
(lp267
S'session_id_admin'
p268
asbag57
(g78
g59
NtRp269
(dp270
g62
(dp271
g89
g90
ssg71
g260
sg64
(lp272
S':'
asbag57
(g78
g59
NtRp273
(dp274
g62
(dp275
sg71
g260
sg64
(lp276
g57
(g58
g59
NtRp277
(dp278
g62
(dp279
g70
I4
ssg71
g273
sg64
(lp280
S'127.0.0.1-801e5f78-033a-48d6-866e-01e86a808dda'
p281
ag57
(g66
g59
NtRp282
(dp283
g62
(dp284
g70
I3
ssg71
Nsg64
(lp285
g57
(g73
g59
NtRp286
(dp287
g62
(dp288
sg71
g282
sg64
(lp289
g57
(g78
g59
NtRp290
(dp291
g62
(dp292
g82
g83
ssg71
g286
sg64
(lp293
S'comment'
p294
asbag57
(g78
g59
NtRp295
(dp296
g62
(dp297
g89
g90
ssg71
g286
sg64
(lp298
S':'
asbag57
(g78
g59
NtRp299
(dp300
g62
(dp301
sg71
g286
sg64
(lp302
g57
(g58
g59
NtRp303
(dp304
g62
(dp305
g70
I3
ssg71
g299
sg64
(lp306
S''
asbasbasbag57
(g73
g59
NtRp307
(dp308
g62
(dp309
sg71
g282
sg64
(lp310
g57
(g78
g59
NtRp311
(dp312
g62
(dp313
g82
g83
ssg71
g307
sg64
(lp314
S'domain'
p315
asbag57
(g78
g59
NtRp316
(dp317
g62
(dp318
g89
g90
ssg71
g307
sg64
(lp319
S':'
asbag57
(g78
g59
NtRp320
(dp321
g62
(dp322
sg71
g307
sg64
(lp323
g57
(g58
g59
NtRp324
(dp325
g62
(dp326
g70
I3
ssg71
g320
sg64
(lp327
S''
asbasbasbag57
(g73
g59
NtRp328
(dp329
g62
(dp330
sg71
g282
sg64
(lp331
g57
(g78
g59
NtRp332
(dp333
g62
(dp334
g82
g83
ssg71
g328
sg64
(lp335
S'expires'
p336
asbag57
(g78
g59
NtRp337
(dp338
g62
(dp339
g89
g90
ssg71
g328
sg64
(lp340
S':'
asbag57
(g78
g59
NtRp341
(dp342
g62
(dp343
sg71
g328
sg64
(lp344
g57
(g58
g59
NtRp345
(dp346
g62
(dp347
g70
I3
ssg71
g341
sg64
(lp348
S''
asbasbasbag57
(g73
g59
NtRp349
(dp350
g62
(dp351
sg71
g282
sg64
(lp352
g57
(g78
g59
NtRp353
(dp354
g62
(dp355
g82
g83
ssg71
g349
sg64
(lp356
S'httponly'
p357
asbag57
(g78
g59
NtRp358
(dp359
g62
(dp360
g89
g90
ssg71
g349
sg64
(lp361
S':'
asbag57
(g78
g59
NtRp362
(dp363
g62
(dp364
sg71
g349
sg64
(lp365
g57
(g58
g59
NtRp366
(dp367
g62
(dp368
g70
I3
ssg71
g362
sg64
(lp369
S''
asbasbasbag57
(g73
g59
NtRp370
(dp371
g62
(dp372
sg71
g282
sg64
(lp373
g57
(g78
g59
NtRp374
(dp375
g62
(dp376
g82
g83
ssg71
g370
sg64
(lp377
S'max-age'
p378
asbag57
(g78
g59
NtRp379
(dp380
g62
(dp381
g89
g90
ssg71
g370
sg64
(lp382
S':'
asbag57
(g78
g59
NtRp383
(dp384
g62
(dp385
sg71
g370
sg64
(lp386
g57
(g58
g59
NtRp387
(dp388
g62
(dp389
g70
I3
ssg71
g383
sg64
(lp390
S''
asbasbasbag57
(g73
g59
NtRp391
(dp392
g62
(dp393
sg71
g282
sg64
(lp394
g57
(g78
g59
NtRp395
(dp396
g62
(dp397
g82
g83
ssg71
g391
sg64
(lp398
S'path'
p399
asbag57
(g78
g59
NtRp400
(dp401
g62
(dp402
g89
g90
ssg71
g391
sg64
(lp403
S':'
asbag57
(g78
g59
NtRp404
(dp405
g62
(dp406
sg71
g391
sg64
(lp407
g57
(g58
g59
NtRp408
(dp409
g62
(dp410
g70
I3
ssg71
g404
sg64
(lp411
S''
asbasbasbag57
(g73
g59
NtRp412
(dp413
g62
(dp414
sg71
g282
sg64
(lp415
g57
(g78
g59
NtRp416
(dp417
g62
(dp418
g82
g83
ssg71
g412
sg64
(lp419
S'secure'
p420
asbag57
(g78
g59
NtRp421
(dp422
g62
(dp423
g89
g90
ssg71
g412
sg64
(lp424
S':'
asbag57
(g78
g59
NtRp425
(dp426
g62
(dp427
sg71
g412
sg64
(lp428
g57
(g58
g59
NtRp429
(dp430
g62
(dp431
g70
I3
ssg71
g425
sg64
(lp432
S''
asbasbasbag57
(g73
g59
NtRp433
(dp434
g62
(dp435
sg71
g282
sg64
(lp436
g57
(g78
g59
NtRp437
(dp438
g62
(dp439
g82
g83
ssg71
g433
sg64
(lp440
S'version'
p441
asbag57
(g78
g59
NtRp442
(dp443
g62
(dp444
g89
g90
ssg71
g433
sg64
(lp445
S':'
asbag57
(g78
g59
NtRp446
(dp447
g62
(dp448
sg71
g433
sg64
(lp449
g57
(g58
g59
NtRp450
(dp451
g62
(dp452
g70
I3
ssg71
g446
sg64
(lp453
S''
asbasbasbasbasbasbasbag57
(g73
g59
NtRp454
(dp455
g62
(dp456
sg71
g256
sg64
(lp457
g57
(g78
g59
NtRp458
(dp459
g62
(dp460
g82
g83
ssg71
g454
sg64
(lp461
S'session_id_iiit_calendars'
p462
asbag57
(g78
g59
NtRp463
(dp464
g62
(dp465
g89
g90
ssg71
g454
sg64
(lp466
S':'
asbag57
(g78
g59
NtRp467
(dp468
g62
(dp469
sg71
g454
sg64
(lp470
g57
(g58
g59
NtRp471
(dp472
g62
(dp473
g70
I4
ssg71
g467
sg64
(lp474
S'127.0.0.1-b512d376-91dc-477e-99ca-2b27d7ad4a7a'
p475
ag57
(g66
g59
NtRp476
(dp477
g62
(dp478
g70
I3
ssg71
Nsg64
(lp479
g57
(g73
g59
NtRp480
(dp481
g62
(dp482
sg71
g476
sg64
(lp483
g57
(g78
g59
NtRp484
(dp485
g62
(dp486
g82
g83
ssg71
g480
sg64
(lp487
g294
asbag57
(g78
g59
NtRp488
(dp489
g62
(dp490
g89
g90
ssg71
g480
sg64
(lp491
S':'
asbag57
(g78
g59
NtRp492
(dp493
g62
(dp494
sg71
g480
sg64
(lp495
g57
(g58
g59
NtRp496
(dp497
g62
(dp498
g70
I3
ssg71
g492
sg64
(lp499
S''
asbasbasbag57
(g73
g59
NtRp500
(dp501
g62
(dp502
sg71
g476
sg64
(lp503
g57
(g78
g59
NtRp504
(dp505
g62
(dp506
g82
g83
ssg71
g500
sg64
(lp507
g315
asbag57
(g78
g59
NtRp508
(dp509
g62
(dp510
g89
g90
ssg71
g500
sg64
(lp511
S':'
asbag57
(g78
g59
NtRp512
(dp513
g62
(dp514
sg71
g500
sg64
(lp515
g57
(g58
g59
NtRp516
(dp517
g62
(dp518
g70
I3
ssg71
g512
sg64
(lp519
S''
asbasbasbag57
(g73
g59
NtRp520
(dp521
g62
(dp522
sg71
g476
sg64
(lp523
g57
(g78
g59
NtRp524
(dp525
g62
(dp526
g82
g83
ssg71
g520
sg64
(lp527
g336
asbag57
(g78
g59
NtRp528
(dp529
g62
(dp530
g89
g90
ssg71
g520
sg64
(lp531
S':'
asbag57
(g78
g59
NtRp532
(dp533
g62
(dp534
sg71
g520
sg64
(lp535
g57
(g58
g59
NtRp536
(dp537
g62
(dp538
g70
I3
ssg71
g532
sg64
(lp539
S''
asbasbasbag57
(g73
g59
NtRp540
(dp541
g62
(dp542
sg71
g476
sg64
(lp543
g57
(g78
g59
NtRp544
(dp545
g62
(dp546
g82
g83
ssg71
g540
sg64
(lp547
g357
asbag57
(g78
g59
NtRp548
(dp549
g62
(dp550
g89
g90
ssg71
g540
sg64
(lp551
S':'
asbag57
(g78
g59
NtRp552
(dp553
g62
(dp554
sg71
g540
sg64
(lp555
g57
(g58
g59
NtRp556
(dp557
g62
(dp558
g70
I3
ssg71
g552
sg64
(lp559
S''
asbasbasbag57
(g73
g59
NtRp560
(dp561
g62
(dp562
sg71
g476
sg64
(lp563
g57
(g78
g59
NtRp564
(dp565
g62
(dp566
g82
g83
ssg71
g560
sg64
(lp567
g378
asbag57
(g78
g59
NtRp568
(dp569
g62
(dp570
g89
g90
ssg71
g560
sg64
(lp571
S':'
asbag57
(g78
g59
NtRp572
(dp573
g62
(dp574
sg71
g560
sg64
(lp575
g57
(g58
g59
NtRp576
(dp577
g62
(dp578
g70
I3
ssg71
g572
sg64
(lp579
S''
asbasbasbag57
(g73
g59
NtRp580
(dp581
g62
(dp582
sg71
g476
sg64
(lp583
g57
(g78
g59
NtRp584
(dp585
g62
(dp586
g82
g83
ssg71
g580
sg64
(lp587
g399
asbag57
(g78
g59
NtRp588
(dp589
g62
(dp590
g89
g90
ssg71
g580
sg64
(lp591
S':'
asbag57
(g78
g59
NtRp592
(dp593
g62
(dp594
sg71
g580
sg64
(lp595
g57
(g58
g59
NtRp596
(dp597
g62
(dp598
g70
I3
ssg71
g592
sg64
(lp599
S''
asbasbasbag57
(g73
g59
NtRp600
(dp601
g62
(dp602
sg71
g476
sg64
(lp603
g57
(g78
g59
NtRp604
(dp605
g62
(dp606
g82
g83
ssg71
g600
sg64
(lp607
g420
asbag57
(g78
g59
NtRp608
(dp609
g62
(dp610
g89
g90
ssg71
g600
sg64
(lp611
S':'
asbag57
(g78
g59
NtRp612
(dp613
g62
(dp614
sg71
g600
sg64
(lp615
g57
(g58
g59
NtRp616
(dp617
g62
(dp618
g70
I3
ssg71
g612
sg64
(lp619
S''
asbasbasbag57
(g73
g59
NtRp620
(dp621
g62
(dp622
sg71
g476
sg64
(lp623
g57
(g78
g59
NtRp624
(dp625
g62
(dp626
g82
g83
ssg71
g620
sg64
(lp627
g441
asbag57
(g78
g59
NtRp628
(dp629
g62
(dp630
g89
g90
ssg71
g620
sg64
(lp631
S':'
asbag57
(g78
g59
NtRp632
(dp633
g62
(dp634
sg71
g620
sg64
(lp635
g57
(g58
g59
NtRp636
(dp637
g62
(dp638
g70
I3
ssg71
g632
sg64
(lp639
S''
asbasbasbasbasbasbasbag57
(g73
g59
NtRp640
(dp641
g62
(dp642
sg71
g256
sg64
(lp643
g57
(g78
g59
NtRp644
(dp645
g62
(dp646
g82
g83
ssg71
g640
sg64
(lp647
S'session_id_music'
p648
asbag57
(g78
g59
NtRp649
(dp650
g62
(dp651
g89
g90
ssg71
g640
sg64
(lp652
S':'
asbag57
(g78
g59
NtRp653
(dp654
g62
(dp655
sg71
g640
sg64
(lp656
g57
(g58
g59
NtRp657
(dp658
g62
(dp659
g70
I4
ssg71
g653
sg64
(lp660
S'127.0.0.1-ffabc5ec-6a02-4c65-a07f-0e2494bf9f9d'
p661
ag57
(g66
g59
NtRp662
(dp663
g62
(dp664
g70
I3
ssg71
Nsg64
(lp665
g57
(g73
g59
NtRp666
(dp667
g62
(dp668
sg71
g662
sg64
(lp669
g57
(g78
g59
NtRp670
(dp671
g62
(dp672
g82
g83
ssg71
g666
sg64
(lp673
g294
asbag57
(g78
g59
NtRp674
(dp675
g62
(dp676
g89
g90
ssg71
g666
sg64
(lp677
S':'
asbag57
(g78
g59
NtRp678
(dp679
g62
(dp680
sg71
g666
sg64
(lp681
g57
(g58
g59
NtRp682
(dp683
g62
(dp684
g70
I3
ssg71
g678
sg64
(lp685
S''
asbasbasbag57
(g73
g59
NtRp686
(dp687
g62
(dp688
sg71
g662
sg64
(lp689
g57
(g78
g59
NtRp690
(dp691
g62
(dp692
g82
g83
ssg71
g686
sg64
(lp693
g315
asbag57
(g78
g59
NtRp694
(dp695
g62
(dp696
g89
g90
ssg71
g686
sg64
(lp697
S':'
asbag57
(g78
g59
NtRp698
(dp699
g62
(dp700
sg71
g686
sg64
(lp701
g57
(g58
g59
NtRp702
(dp703
g62
(dp704
g70
I3
ssg71
g698
sg64
(lp705
S''
asbasbasbag57
(g73
g59
NtRp706
(dp707
g62
(dp708
sg71
g662
sg64
(lp709
g57
(g78
g59
NtRp710
(dp711
g62
(dp712
g82
g83
ssg71
g706
sg64
(lp713
g336
asbag57
(g78
g59
NtRp714
(dp715
g62
(dp716
g89
g90
ssg71
g706
sg64
(lp717
S':'
asbag57
(g78
g59
NtRp718
(dp719
g62
(dp720
sg71
g706
sg64
(lp721
g57
(g58
g59
NtRp722
(dp723
g62
(dp724
g70
I3
ssg71
g718
sg64
(lp725
S''
asbasbasbag57
(g73
g59
NtRp726
(dp727
g62
(dp728
sg71
g662
sg64
(lp729
g57
(g78
g59
NtRp730
(dp731
g62
(dp732
g82
g83
ssg71
g726
sg64
(lp733
g357
asbag57
(g78
g59
NtRp734
(dp735
g62
(dp736
g89
g90
ssg71
g726
sg64
(lp737
S':'
asbag57
(g78
g59
NtRp738
(dp739
g62
(dp740
sg71
g726
sg64
(lp741
g57
(g58
g59
NtRp742
(dp743
g62
(dp744
g70
I3
ssg71
g738
sg64
(lp745
S''
asbasbasbag57
(g73
g59
NtRp746
(dp747
g62
(dp748
sg71
g662
sg64
(lp749
g57
(g78
g59
NtRp750
(dp751
g62
(dp752
g82
g83
ssg71
g746
sg64
(lp753
g378
asbag57
(g78
g59
NtRp754
(dp755
g62
(dp756
g89
g90
ssg71
g746
sg64
(lp757
S':'
asbag57
(g78
g59
NtRp758
(dp759
g62
(dp760
sg71
g746
sg64
(lp761
g57
(g58
g59
NtRp762
(dp763
g62
(dp764
g70
I3
ssg71
g758
sg64
(lp765
S''
asbasbasbag57
(g73
g59
NtRp766
(dp767
g62
(dp768
sg71
g662
sg64
(lp769
g57
(g78
g59
NtRp770
(dp771
g62
(dp772
g82
g83
ssg71
g766
sg64
(lp773
g399
asbag57
(g78
g59
NtRp774
(dp775
g62
(dp776
g89
g90
ssg71
g766
sg64
(lp777
S':'
asbag57
(g78
g59
NtRp778
(dp779
g62
(dp780
sg71
g766
sg64
(lp781
g57
(g58
g59
NtRp782
(dp783
g62
(dp784
g70
I3
ssg71
g778
sg64
(lp785
S''
asbasbasbag57
(g73
g59
NtRp786
(dp787
g62
(dp788
sg71
g662
sg64
(lp789
g57
(g78
g59
NtRp790
(dp791
g62
(dp792
g82
g83
ssg71
g786
sg64
(lp793
g420
asbag57
(g78
g59
NtRp794
(dp795
g62
(dp796
g89
g90
ssg71
g786
sg64
(lp797
S':'
asbag57
(g78
g59
NtRp798
(dp799
g62
(dp800
sg71
g786
sg64
(lp801
g57
(g58
g59
NtRp802
(dp803
g62
(dp804
g70
I3
ssg71
g798
sg64
(lp805
S''
asbasbasbag57
(g73
g59
NtRp806
(dp807
g62
(dp808
sg71
g662
sg64
(lp809
g57
(g78
g59
NtRp810
(dp811
g62
(dp812
g82
g83
ssg71
g806
sg64
(lp813
g441
asbag57
(g78
g59
NtRp814
(dp815
g62
(dp816
g89
g90
ssg71
g806
sg64
(lp817
S':'
asbag57
(g78
g59
NtRp818
(dp819
g62
(dp820
sg71
g806
sg64
(lp821
g57
(g58
g59
NtRp822
(dp823
g62
(dp824
g70
I3
ssg71
g818
sg64
(lp825
S''
asbasbasbasbasbasbasbag57
(g73
g59
NtRp826
(dp827
g62
(dp828
sg71
g256
sg64
(lp829
g57
(g78
g59
NtRp830
(dp831
g62
(dp832
g82
g83
ssg71
g826
sg64
(lp833
S'session_id_welcome'
p834
asbag57
(g78
g59
NtRp835
(dp836
g62
(dp837
g89
g90
ssg71
g826
sg64
(lp838
S':'
asbag57
(g78
g59
NtRp839
(dp840
g62
(dp841
sg71
g826
sg64
(lp842
g57
(g58
g59
NtRp843
(dp844
g62
(dp845
g70
I4
ssg71
g839
sg64
(lp846
S'127.0.0.1-63e75989-5c9b-4e21-8376-c640fec67f50'
p847
ag57
(g66
g59
NtRp848
(dp849
g62
(dp850
g70
I3
ssg71
Nsg64
(lp851
g57
(g73
g59
NtRp852
(dp853
g62
(dp854
sg71
g848
sg64
(lp855
g57
(g78
g59
NtRp856
(dp857
g62
(dp858
g82
g83
ssg71
g852
sg64
(lp859
g294
asbag57
(g78
g59
NtRp860
(dp861
g62
(dp862
g89
g90
ssg71
g852
sg64
(lp863
S':'
asbag57
(g78
g59
NtRp864
(dp865
g62
(dp866
sg71
g852
sg64
(lp867
g57
(g58
g59
NtRp868
(dp869
g62
(dp870
g70
I3
ssg71
g864
sg64
(lp871
S''
asbasbasbag57
(g73
g59
NtRp872
(dp873
g62
(dp874
sg71
g848
sg64
(lp875
g57
(g78
g59
NtRp876
(dp877
g62
(dp878
g82
g83
ssg71
g872
sg64
(lp879
g315
asbag57
(g78
g59
NtRp880
(dp881
g62
(dp882
g89
g90
ssg71
g872
sg64
(lp883
S':'
asbag57
(g78
g59
NtRp884
(dp885
g62
(dp886
sg71
g872
sg64
(lp887
g57
(g58
g59
NtRp888
(dp889
g62
(dp890
g70
I3
ssg71
g884
sg64
(lp891
S''
asbasbasbag57
(g73
g59
NtRp892
(dp893
g62
(dp894
sg71
g848
sg64
(lp895
g57
(g78
g59
NtRp896
(dp897
g62
(dp898
g82
g83
ssg71
g892
sg64
(lp899
g336
asbag57
(g78
g59
NtRp900
(dp901
g62
(dp902
g89
g90
ssg71
g892
sg64
(lp903
S':'
asbag57
(g78
g59
NtRp904
(dp905
g62
(dp906
sg71
g892
sg64
(lp907
g57
(g58
g59
NtRp908
(dp909
g62
(dp910
g70
I3
ssg71
g904
sg64
(lp911
S''
asbasbasbag57
(g73
g59
NtRp912
(dp913
g62
(dp914
sg71
g848
sg64
(lp915
g57
(g78
g59
NtRp916
(dp917
g62
(dp918
g82
g83
ssg71
g912
sg64
(lp919
g357
asbag57
(g78
g59
NtRp920
(dp921
g62
(dp922
g89
g90
ssg71
g912
sg64
(lp923
S':'
asbag57
(g78
g59
NtRp924
(dp925
g62
(dp926
sg71
g912
sg64
(lp927
g57
(g58
g59
NtRp928
(dp929
g62
(dp930
g70
I3
ssg71
g924
sg64
(lp931
S''
asbasbasbag57
(g73
g59
NtRp932
(dp933
g62
(dp934
sg71
g848
sg64
(lp935
g57
(g78
g59
NtRp936
(dp937
g62
(dp938
g82
g83
ssg71
g932
sg64
(lp939
g378
asbag57
(g78
g59
NtRp940
(dp941
g62
(dp942
g89
g90
ssg71
g932
sg64
(lp943
S':'
asbag57
(g78
g59
NtRp944
(dp945
g62
(dp946
sg71
g932
sg64
(lp947
g57
(g58
g59
NtRp948
(dp949
g62
(dp950
g70
I3
ssg71
g944
sg64
(lp951
S''
asbasbasbag57
(g73
g59
NtRp952
(dp953
g62
(dp954
sg71
g848
sg64
(lp955
g57
(g78
g59
NtRp956
(dp957
g62
(dp958
g82
g83
ssg71
g952
sg64
(lp959
g399
asbag57
(g78
g59
NtRp960
(dp961
g62
(dp962
g89
g90
ssg71
g952
sg64
(lp963
S':'
asbag57
(g78
g59
NtRp964
(dp965
g62
(dp966
sg71
g952
sg64
(lp967
g57
(g58
g59
NtRp968
(dp969
g62
(dp970
g70
I3
ssg71
g964
sg64
(lp971
S''
asbasbasbag57
(g73
g59
NtRp972
(dp973
g62
(dp974
sg71
g848
sg64
(lp975
g57
(g78
g59
NtRp976
(dp977
g62
(dp978
g82
g83
ssg71
g972
sg64
(lp979
g420
asbag57
(g78
g59
NtRp980
(dp981
g62
(dp982
g89
g90
ssg71
g972
sg64
(lp983
S':'
asbag57
(g78
g59
NtRp984
(dp985
g62
(dp986
sg71
g972
sg64
(lp987
g57
(g58
g59
NtRp988
(dp989
g62
(dp990
g70
I3
ssg71
g984
sg64
(lp991
S''
asbasbasbag57
(g73
g59
NtRp992
(dp993
g62
(dp994
sg71
g848
sg64
(lp995
g57
(g78
g59
NtRp996
(dp997
g62
(dp998
g82
g83
ssg71
g992
sg64
(lp999
g441
asbag57
(g78
g59
NtRp1000
(dp1001
g62
(dp1002
g89
g90
ssg71
g992
sg64
(lp1003
S':'
asbag57
(g78
g59
NtRp1004
(dp1005
g62
(dp1006
sg71
g992
sg64
(lp1007
g57
(g58
g59
NtRp1008
(dp1009
g62
(dp1010
g70
I3
ssg71
g1004
sg64
(lp1011
S''
asbasbasbasbasbasbasbasbasbasbasbag57
(g73
g59
NtRp1012
(dp1013
g62
(dp1014
sg71
g67
sg64
(lp1015
g57
(g78
g59
NtRp1016
(dp1017
g62
(dp1018
g82
g83
ssg71
g1012
sg64
(lp1019
S'env'
p1020
asbag57
(g78
g59
NtRp1021
(dp1022
g62
(dp1023
g89
g90
ssg71
g1012
sg64
(lp1024
S':'
asbag57
(g78
g59
NtRp1025
(dp1026
g62
(dp1027
sg71
g1012
sg64
(lp1028
g57
(g58
g59
NtRp1029
(dp1030
g62
(dp1031
g70
I5
ssg71
g1025
sg64
(lp1032
g57
(g66
g59
NtRp1033
(dp1034
g62
(dp1035
g70
I4
ssg71
Nsg64
(lp1036
g57
(g73
g59
NtRp1037
(dp1038
g62
(dp1039
sg71
g1033
sg64
(lp1040
g57
(g78
g59
NtRp1041
(dp1042
g62
(dp1043
g82
g83
ssg71
g1037
sg64
(lp1044
S'app_folders'
p1045
asbag57
(g78
g59
NtRp1046
(dp1047
g62
(dp1048
g89
g90
ssg71
g1037
sg64
(lp1049
S':'
asbag57
(g78
g59
NtRp1050
(dp1051
g62
(dp1052
sg71
g1037
sg64
(lp1053
g57
(g58
g59
NtRp1054
(dp1055
g62
(dp1056
g70
I4
ssg71
g1050
sg64
(lp1057
S"set(['/home/simran/web2py/applications/welcome/', '/home/simran/web2py/applications/music/', '/home/simran/web2py/applications/IIIT_calendars/', '/home/simran/web2py/applications/admin/'])"
p1058
asbasbasbag57
(g73
g59
NtRp1059
(dp1060
g62
(dp1061
sg71
g1033
sg64
(lp1062
g57
(g78
g59
NtRp1063
(dp1064
g62
(dp1065
g82
g83
ssg71
g1059
sg64
(lp1066
S'applications_parent'
p1067
asbag57
(g78
g59
NtRp1068
(dp1069
g62
(dp1070
g89
g90
ssg71
g1059
sg64
(lp1071
S':'
asbag57
(g78
g59
NtRp1072
(dp1073
g62
(dp1074
sg71
g1059
sg64
(lp1075
g57
(g58
g59
NtRp1076
(dp1077
g62
(dp1078
g70
I4
ssg71
g1072
sg64
(lp1079
S'/home/simran/web2py'
p1080
asbasbasbag57
(g73
g59
NtRp1081
(dp1082
g62
(dp1083
sg71
g1033
sg64
(lp1084
g57
(g78
g59
NtRp1085
(dp1086
g62
(dp1087
g82
g83
ssg71
g1081
sg64
(lp1088
S'cmd_args'
p1089
asbag57
(g78
g59
NtRp1090
(dp1091
g62
(dp1092
g89
g90
ssg71
g1081
sg64
(lp1093
S':'
asbag57
(g78
g59
NtRp1094
(dp1095
g62
(dp1096
sg71
g1081
sg64
(lp1097
g57
(g58
g59
NtRp1098
(dp1099
g62
(dp1100
g70
I4
ssg71
g1094
sg64
(lp1101
g57
(g66
g59
NtRp1102
(dp1103
g62
(dp1104
g70
I3
ssg71
Nsg64
(lp1105
sbasbasbasbag57
(g73
g59
NtRp1106
(dp1107
g62
(dp1108
sg71
g1033
sg64
(lp1109
g57
(g78
g59
NtRp1110
(dp1111
g62
(dp1112
g82
g83
ssg71
g1106
sg64
(lp1113
S'cmd_options'
p1114
asbag57
(g78
g59
NtRp1115
(dp1116
g62
(dp1117
g89
g90
ssg71
g1106
sg64
(lp1118
S':'
asbag57
(g78
g59
NtRp1119
(dp1120
g62
(dp1121
sg71
g1106
sg64
(lp1122
g57
(g58
g59
NtRp1123
(dp1124
g62
(dp1125
g70
I4
ssg71
g1119
sg64
(lp1126
S"<Values at 0x2bbe7e8: {'verbose': False, 'ip': '127.0.0.1', 'with_scheduler': False, 'ips': [], 'shutdown_timeout': 5, 'taskbar': False, 'port': 8000, 'maxthreads': None, 'softcron': False, 'server_name': 'ubuntu', 'bpython': False, 'nogui': False, 'pid_filename': 'httpserver.pid', 'extcron': False, 'runcron': False, 'run_system_tests': False, 'test': None, 'folder': '/home/simran/web2py', 'config': '', 'minthreads': None, 'winservice': '', 'shell': None, 'run': '', 'log_filename': 'httpserver.log', 'debuglevel': 30, 'args': [''], 'socket_timeout': 5, 'ssl_ca_certificate': None, 'scheduler': None, 'profiler_filename': None, 'ssl_private_key': '', 'scheduler_groups': None, 'password': '<ask>', 'request_queue_size': 5, 'ssl_certificate': '', 'cronjob': False, 'numthreads': None, 'quiet': False, 'interfaces': None, 'import_models': False, 'timeout': 10, 'plain': False, 'nobanner': False}>"
p1127
asbasbasbag57
(g73
g59
NtRp1128
(dp1129
g62
(dp1130
sg71
g1033
sg64
(lp1131
g57
(g78
g59
NtRp1132
(dp1133
g62
(dp1134
g82
g83
ssg71
g1128
sg64
(lp1135
S'db_sessions'
p1136
asbag57
(g78
g59
NtRp1137
(dp1138
g62
(dp1139
g89
g90
ssg71
g1128
sg64
(lp1140
S':'
asbag57
(g78
g59
NtRp1141
(dp1142
g62
(dp1143
sg71
g1128
sg64
(lp1144
g57
(g58
g59
NtRp1145
(dp1146
g62
(dp1147
g70
I4
ssg71
g1141
sg64
(lp1148
S'set([])'
p1149
asbasbasbag57
(g73
g59
NtRp1150
(dp1151
g62
(dp1152
sg71
g1033
sg64
(lp1153
g57
(g78
g59
NtRp1154
(dp1155
g62
(dp1156
g82
g83
ssg71
g1150
sg64
(lp1157
S'debugging'
p1158
asbag57
(g78
g59
NtRp1159
(dp1160
g62
(dp1161
g89
g90
ssg71
g1150
sg64
(lp1162
S':'
asbag57
(g78
g59
NtRp1163
(dp1164
g62
(dp1165
sg71
g1150
sg64
(lp1166
g57
(g58
g59
NtRp1167
(dp1168
g62
(dp1169
g70
I4
ssg71
g1163
sg64
(lp1170
g100
asbasbasbag57
(g73
g59
NtRp1171
(dp1172
g62
(dp1173
sg71
g1033
sg64
(lp1174
g57
(g78
g59
NtRp1175
(dp1176
g62
(dp1177
g82
g83
ssg71
g1171
sg64
(lp1178
S'gluon_parent'
p1179
asbag57
(g78
g59
NtRp1180
(dp1181
g62
(dp1182
g89
g90
ssg71
g1171
sg64
(lp1183
S':'
asbag57
(g78
g59
NtRp1184
(dp1185
g62
(dp1186
sg71
g1171
sg64
(lp1187
g57
(g58
g59
NtRp1188
(dp1189
g62
(dp1190
g70
I4
ssg71
g1184
sg64
(lp1191
S'/home/simran/web2py'
p1192
asbasbasbag57
(g73
g59
NtRp1193
(dp1194
g62
(dp1195
sg71
g1033
sg64
(lp1196
g57
(g78
g59
NtRp1197
(dp1198
g62
(dp1199
g82
g83
ssg71
g1193
sg64
(lp1200
S'http_accept'
p1201
asbag57
(g78
g59
NtRp1202
(dp1203
g62
(dp1204
g89
g90
ssg71
g1193
sg64
(lp1205
S':'
asbag57
(g78
g59
NtRp1206
(dp1207
g62
(dp1208
sg71
g1193
sg64
(lp1209
g57
(g58
g59
NtRp1210
(dp1211
g62
(dp1212
g70
I4
ssg71
g1206
sg64
(lp1213
S'text/html,application/xhtml+xml,application/xml;q=0.9,*/*;q=0.8'
p1214
asbasbasbag57
(g73
g59
NtRp1215
(dp1216
g62
(dp1217
sg71
g1033
sg64
(lp1218
g57
(g78
g59
NtRp1219
(dp1220
g62
(dp1221
g82
g83
ssg71
g1215
sg64
(lp1222
S'http_accept_encoding'
p1223
asbag57
(g78
g59
NtRp1224
(dp1225
g62
(dp1226
g89
g90
ssg71
g1215
sg64
(lp1227
S':'
asbag57
(g78
g59
NtRp1228
(dp1229
g62
(dp1230
sg71
g1215
sg64
(lp1231
g57
(g58
g59
NtRp1232
(dp1233
g62
(dp1234
g70
I4
ssg71
g1228
sg64
(lp1235
S'gzip, deflate'
p1236
asbasbasbag57
(g73
g59
NtRp1237
(dp1238
g62
(dp1239
sg71
g1033
sg64
(lp1240
g57
(g78
g59
NtRp1241
(dp1242
g62
(dp1243
g82
g83
ssg71
g1237
sg64
(lp1244
S'http_accept_language'
p1245
asbag57
(g78
g59
NtRp1246
(dp1247
g62
(dp1248
g89
g90
ssg71
g1237
sg64
(lp1249
S':'
asbag57
(g78
g59
NtRp1250
(dp1251
g62
(dp1252
sg71
g1237
sg64
(lp1253
g57
(g58
g59
NtRp1254
(dp1255
g62
(dp1256
g70
I4
ssg71
g1250
sg64
(lp1257
S'en-US,en;q=0.5'
p1258
asbasbasbag57
(g73
g59
NtRp1259
(dp1260
g62
(dp1261
sg71
g1033
sg64
(lp1262
g57
(g78
g59
NtRp1263
(dp1264
g62
(dp1265
g82
g83
ssg71
g1259
sg64
(lp1266
S'http_connection'
p1267
asbag57
(g78
g59
NtRp1268
(dp1269
g62
(dp1270
g89
g90
ssg71
g1259
sg64
(lp1271
S':'
asbag57
(g78
g59
NtRp1272
(dp1273
g62
(dp1274
sg71
g1259
sg64
(lp1275
g57
(g58
g59
NtRp1276
(dp1277
g62
(dp1278
g70
I4
ssg71
g1272
sg64
(lp1279
S'keep-alive'
p1280
asbasbasbag57
(g73
g59
NtRp1281
(dp1282
g62
(dp1283
sg71
g1033
sg64
(lp1284
g57
(g78
g59
NtRp1285
(dp1286
g62
(dp1287
g82
g83
ssg71
g1281
sg64
(lp1288
S'http_cookie'
p1289
asbag57
(g78
g59
NtRp1290
(dp1291
g62
(dp1292
g89
g90
ssg71
g1281
sg64
(lp1293
S':'
asbag57
(g78
g59
NtRp1294
(dp1295
g62
(dp1296
sg71
g1281
sg64
(lp1297
g57
(g58
g59
NtRp1298
(dp1299
g62
(dp1300
g70
I4
ssg71
g1294
sg64
(lp1301
S'session_id_welcome=127.0.0.1-63e75989-5c9b-4e21-8376-c640fec67f50; session_id_admin=127.0.0.1-801e5f78-033a-48d6-866e-01e86a808dda; session_id_iiit_calendars=127.0.0.1-b512d376-91dc-477e-99ca-2b27d7ad4a7a; session_id_music=127.0.0.1-ffabc5ec-6a02-4c65-a07f-0e2494bf9f9d'
p1302
asbasbasbag57
(g73
g59
NtRp1303
(dp1304
g62
(dp1305
sg71
g1033
sg64
(lp1306
g57
(g78
g59
NtRp1307
(dp1308
g62
(dp1309
g82
g83
ssg71
g1303
sg64
(lp1310
S'http_host'
p1311
asbag57
(g78
g59
NtRp1312
(dp1313
g62
(dp1314
g89
g90
ssg71
g1303
sg64
(lp1315
S':'
asbag57
(g78
g59
NtRp1316
(dp1317
g62
(dp1318
sg71
g1303
sg64
(lp1319
g57
(g58
g59
NtRp1320
(dp1321
g62
(dp1322
g70
I4
ssg71
g1316
sg64
(lp1323
S'127.0.0.1:8000'
p1324
asbasbasbag57
(g73
g59
NtRp1325
(dp1326
g62
(dp1327
sg71
g1033
sg64
(lp1328
g57
(g78
g59
NtRp1329
(dp1330
g62
(dp1331
g82
g83
ssg71
g1325
sg64
(lp1332
S'http_user_agent'
p1333
asbag57
(g78
g59
NtRp1334
(dp1335
g62
(dp1336
g89
g90
ssg71
g1325
sg64
(lp1337
S':'
asbag57
(g78
g59
NtRp1338
(dp1339
g62
(dp1340
sg71
g1325
sg64
(lp1341
g57
(g58
g59
NtRp1342
(dp1343
g62
(dp1344
g70
I4
ssg71
g1338
sg64
(lp1345
S'Mozilla/5.0 (X11; Ubuntu; Linux x86_64; rv:20.0) Gecko/20100101 Firefox/20.0'
p1346
asbasbasbag57
(g73
g59
NtRp1347
(dp1348
g62
(dp1349
sg71
g1033
sg64
(lp1350
g57
(g78
g59
NtRp1351
(dp1352
g62
(dp1353
g82
g83
ssg71
g1347
sg64
(lp1354
S'is_jython'
p1355
asbag57
(g78
g59
NtRp1356
(dp1357
g62
(dp1358
g89
g90
ssg71
g1347
sg64
(lp1359
S':'
asbag57
(g78
g59
NtRp1360
(dp1361
g62
(dp1362
sg71
g1347
sg64
(lp1363
g57
(g58
g59
NtRp1364
(dp1365
g62
(dp1366
g70
I4
ssg71
g1360
sg64
(lp1367
g100
asbasbasbag57
(g73
g59
NtRp1368
(dp1369
g62
(dp1370
sg71
g1033
sg64
(lp1371
g57
(g78
g59
NtRp1372
(dp1373
g62
(dp1374
g82
g83
ssg71
g1368
sg64
(lp1375
S'is_pypy'
p1376
asbag57
(g78
g59
NtRp1377
(dp1378
g62
(dp1379
g89
g90
ssg71
g1368
sg64
(lp1380
S':'
asbag57
(g78
g59
NtRp1381
(dp1382
g62
(dp1383
sg71
g1368
sg64
(lp1384
g57
(g58
g59
NtRp1385
(dp1386
g62
(dp1387
g70
I4
ssg71
g1381
sg64
(lp1388
g100
asbasbasbag57
(g73
g59
NtRp1389
(dp1390
g62
(dp1391
sg71
g1033
sg64
(lp1392
g57
(g78
g59
NtRp1393
(dp1394
g62
(dp1395
g82
g83
ssg71
g1389
sg64
(lp1396
S'local_hosts'
p1397
asbag57
(g78
g59
NtRp1398
(dp1399
g62
(dp1400
g89
g90
ssg71
g1389
sg64
(lp1401
S':'
asbag57
(g78
g59
NtRp1402
(dp1403
g62
(dp1404
sg71
g1389
sg64
(lp1405
g57
(g58
g59
NtRp1406
(dp1407
g62
(dp1408
g70
I4
ssg71
g1402
sg64
(lp1409
g57
(g66
g59
NtRp1410
(dp1411
g62
(dp1412
g70
I3
ssg71
Nsg64
(lp1413
g57
(g73
g59
NtRp1414
(dp1415
g62
(dp1416
sg71
g1410
sg64
(lp1417
g57
(g78
g59
NtRp1418
(dp1419
g62
(dp1420
sg71
g1414
sg64
(lp1421
g57
(g58
g59
NtRp1422
(dp1423
g62
(dp1424
g70
I3
ssg71
g1418
sg64
(lp1425
S'::1'
p1426
asbasbasbag57
(g73
g59
NtRp1427
(dp1428
g62
(dp1429
sg71
g1410
sg64
(lp1430
g57
(g78
g59
NtRp1431
(dp1432
g62
(dp1433
sg71
g1427
sg64
(lp1434
g57
(g58
g59
NtRp1435
(dp1436
g62
(dp1437
g70
I3
ssg71
g1431
sg64
(lp1438
S'127.0.1.1'
p1439
asbasbasbag57
(g73
g59
NtRp1440
(dp1441
g62
(dp1442
sg71
g1410
sg64
(lp1443
g57
(g78
g59
NtRp1444
(dp1445
g62
(dp1446
sg71
g1440
sg64
(lp1447
g57
(g58
g59
NtRp1448
(dp1449
g62
(dp1450
g70
I3
ssg71
g1444
sg64
(lp1451
S'::ffff:127.0.0.1'
p1452
asbasbasbag57
(g73
g59
NtRp1453
(dp1454
g62
(dp1455
sg71
g1410
sg64
(lp1456
g57
(g78
g59
NtRp1457
(dp1458
g62
(dp1459
sg71
g1453
sg64
(lp1460
g57
(g58
g59
NtRp1461
(dp1462
g62
(dp1463
g70
I3
ssg71
g1457
sg64
(lp1464
S'127.0.0.1'
p1465
asbasbasbag57
(g73
g59
NtRp1466
(dp1467
g62
(dp1468
sg71
g1410
sg64
(lp1469
g57
(g78
g59
NtRp1470
(dp1471
g62
(dp1472
sg71
g1466
sg64
(lp1473
g57
(g58
g59
NtRp1474
(dp1475
g62
(dp1476
g70
I3
ssg71
g1470
sg64
(lp1477
S'ubuntu'
p1478
asbasbasbasbasbasbasbag57
(g73
g59
NtRp1479
(dp1480
g62
(dp1481
sg71
g1033
sg64
(lp1482
g57
(g78
g59
NtRp1483
(dp1484
g62
(dp1485
g82
g83
ssg71
g1479
sg64
(lp1486
S'path_info'
p1487
asbag57
(g78
g59
NtRp1488
(dp1489
g62
(dp1490
g89
g90
ssg71
g1479
sg64
(lp1491
S':'
asbag57
(g78
g59
NtRp1492
(dp1493
g62
(dp1494
sg71
g1479
sg64
(lp1495
g57
(g58
g59
NtRp1496
(dp1497
g62
(dp1498
g70
I4
ssg71
g1492
sg64
(lp1499
S'/IIIT_calendars/default/formedit'
p1500
asbasbasbag57
(g73
g59
NtRp1501
(dp1502
g62
(dp1503
sg71
g1033
sg64
(lp1504
g57
(g78
g59
NtRp1505
(dp1506
g62
(dp1507
g82
g83
ssg71
g1501
sg64
(lp1508
S'query_string'
p1509
asbag57
(g78
g59
NtRp1510
(dp1511
g62
(dp1512
g89
g90
ssg71
g1501
sg64
(lp1513
S':'
asbag57
(g78
g59
NtRp1514
(dp1515
g62
(dp1516
sg71
g1501
sg64
(lp1517
g57
(g58
g59
NtRp1518
(dp1519
g62
(dp1520
g70
I4
ssg71
g1514
sg64
(lp1521
S'event=9'
p1522
asbasbasbag57
(g73
g59
NtRp1523
(dp1524
g62
(dp1525
sg71
g1033
sg64
(lp1526
g57
(g78
g59
NtRp1527
(dp1528
g62
(dp1529
g82
g83
ssg71
g1523
sg64
(lp1530
S'remote_addr'
p1531
asbag57
(g78
g59
NtRp1532
(dp1533
g62
(dp1534
g89
g90
ssg71
g1523
sg64
(lp1535
S':'
asbag57
(g78
g59
NtRp1536
(dp1537
g62
(dp1538
sg71
g1523
sg64
(lp1539
g57
(g58
g59
NtRp1540
(dp1541
g62
(dp1542
g70
I4
ssg71
g1536
sg64
(lp1543
g212
asbasbasbag57
(g73
g59
NtRp1544
(dp1545
g62
(dp1546
sg71
g1033
sg64
(lp1547
g57
(g78
g59
NtRp1548
(dp1549
g62
(dp1550
g82
g83
ssg71
g1544
sg64
(lp1551
S'remote_port'
p1552
asbag57
(g78
g59
NtRp1553
(dp1554
g62
(dp1555
g89
g90
ssg71
g1544
sg64
(lp1556
S':'
asbag57
(g78
g59
NtRp1557
(dp1558
g62
(dp1559
sg71
g1544
sg64
(lp1560
g57
(g58
g59
NtRp1561
(dp1562
g62
(dp1563
g70
I4
ssg71
g1557
sg64
(lp1564
S'53633'
p1565
asbasbasbag57
(g73
g59
NtRp1566
(dp1567
g62
(dp1568
sg71
g1033
sg64
(lp1569
g57
(g78
g59
NtRp1570
(dp1571
g62
(dp1572
g82
g83
ssg71
g1566
sg64
(lp1573
S'request_method'
p1574
asbag57
(g78
g59
NtRp1575
(dp1576
g62
(dp1577
g89
g90
ssg71
g1566
sg64
(lp1578
S':'
asbag57
(g78
g59
NtRp1579
(dp1580
g62
(dp1581
sg71
g1566
sg64
(lp1582
g57
(g58
g59
NtRp1583
(dp1584
g62
(dp1585
g70
I4
ssg71
g1579
sg64
(lp1586
S'GET'
p1587
asbasbasbag57
(g73
g59
NtRp1588
(dp1589
g62
(dp1590
sg71
g1033
sg64
(lp1591
g57
(g78
g59
NtRp1592
(dp1593
g62
(dp1594
g82
g83
ssg71
g1588
sg64
(lp1595
S'request_uri'
p1596
asbag57
(g78
g59
NtRp1597
(dp1598
g62
(dp1599
g89
g90
ssg71
g1588
sg64
(lp1600
S':'
asbag57
(g78
g59
NtRp1601
(dp1602
g62
(dp1603
sg71
g1588
sg64
(lp1604
g57
(g58
g59
NtRp1605
(dp1606
g62
(dp1607
g70
I4
ssg71
g1601
sg64
(lp1608
S'/IIIT_calendars/default/formedit?event=9'
p1609
asbasbasbag57
(g73
g59
NtRp1610
(dp1611
g62
(dp1612
sg71
g1033
sg64
(lp1613
g57
(g78
g59
NtRp1614
(dp1615
g62
(dp1616
g82
g83
ssg71
g1610
sg64
(lp1617
S'script_name'
p1618
asbag57
(g78
g59
NtRp1619
(dp1620
g62
(dp1621
g89
g90
ssg71
g1610
sg64
(lp1622
S':'
asbag57
(g78
g59
NtRp1623
(dp1624
g62
(dp1625
sg71
g1610
sg64
(lp1626
g57
(g58
g59
NtRp1627
(dp1628
g62
(dp1629
g70
I4
ssg71
g1623
sg64
(lp1630
S''
asbasbasbag57
(g73
g59
NtRp1631
(dp1632
g62
(dp1633
sg71
g1033
sg64
(lp1634
g57
(g78
g59
NtRp1635
(dp1636
g62
(dp1637
g82
g83
ssg71
g1631
sg64
(lp1638
S'server_name'
p1639
asbag57
(g78
g59
NtRp1640
(dp1641
g62
(dp1642
g89
g90
ssg71
g1631
sg64
(lp1643
S':'
asbag57
(g78
g59
NtRp1644
(dp1645
g62
(dp1646
sg71
g1631
sg64
(lp1647
g57
(g58
g59
NtRp1648
(dp1649
g62
(dp1650
g70
I4
ssg71
g1644
sg64
(lp1651
S'ubuntu'
p1652
asbasbasbag57
(g73
g59
NtRp1653
(dp1654
g62
(dp1655
sg71
g1033
sg64
(lp1656
g57
(g78
g59
NtRp1657
(dp1658
g62
(dp1659
g82
g83
ssg71
g1653
sg64
(lp1660
S'server_port'
p1661
asbag57
(g78
g59
NtRp1662
(dp1663
g62
(dp1664
g89
g90
ssg71
g1653
sg64
(lp1665
S':'
asbag57
(g78
g59
NtRp1666
(dp1667
g62
(dp1668
sg71
g1653
sg64
(lp1669
g57
(g58
g59
NtRp1670
(dp1671
g62
(dp1672
g70
I4
ssg71
g1666
sg64
(lp1673
S'8000'
p1674
asbasbasbag57
(g73
g59
NtRp1675
(dp1676
g62
(dp1677
sg71
g1033
sg64
(lp1678
g57
(g78
g59
NtRp1679
(dp1680
g62
(dp1681
g82
g83
ssg71
g1675
sg64
(lp1682
S'server_protocol'
p1683
asbag57
(g78
g59
NtRp1684
(dp1685
g62
(dp1686
g89
g90
ssg71
g1675
sg64
(lp1687
S':'
asbag57
(g78
g59
NtRp1688
(dp1689
g62
(dp1690
sg71
g1675
sg64
(lp1691
g57
(g58
g59
NtRp1692
(dp1693
g62
(dp1694
g70
I4
ssg71
g1688
sg64
(lp1695
S'HTTP/1.1'
p1696
asbasbasbag57
(g73
g59
NtRp1697
(dp1698
g62
(dp1699
sg71
g1033
sg64
(lp1700
g57
(g78
g59
NtRp1701
(dp1702
g62
(dp1703
g82
g83
ssg71
g1697
sg64
(lp1704
S'server_software'
p1705
asbag57
(g78
g59
NtRp1706
(dp1707
g62
(dp1708
g89
g90
ssg71
g1697
sg64
(lp1709
S':'
asbag57
(g78
g59
NtRp1710
(dp1711
g62
(dp1712
sg71
g1697
sg64
(lp1713
g57
(g58
g59
NtRp1714
(dp1715
g62
(dp1716
g70
I4
ssg71
g1710
sg64
(lp1717
S'Rocket 1.2.6'
p1718
asbasbasbag57
(g73
g59
NtRp1719
(dp1720
g62
(dp1721
sg71
g1033
sg64
(lp1722
g57
(g78
g59
NtRp1723
(dp1724
g62
(dp1725
g82
g83
ssg71
g1719
sg64
(lp1726
S'web2py_path'
p1727
asbag57
(g78
g59
NtRp1728
(dp1729
g62
(dp1730
g89
g90
ssg71
g1719
sg64
(lp1731
S':'
asbag57
(g78
g59
NtRp1732
(dp1733
g62
(dp1734
sg71
g1719
sg64
(lp1735
g57
(g58
g59
NtRp1736
(dp1737
g62
(dp1738
g70
I4
ssg71
g1732
sg64
(lp1739
g1080
asbasbasbag57
(g73
g59
NtRp1740
(dp1741
g62
(dp1742
sg71
g1033
sg64
(lp1743
g57
(g78
g59
NtRp1744
(dp1745
g62
(dp1746
g82
g83
ssg71
g1740
sg64
(lp1747
S'web2py_version'
p1748
asbag57
(g78
g59
NtRp1749
(dp1750
g62
(dp1751
g89
g90
ssg71
g1740
sg64
(lp1752
S':'
asbag57
(g78
g59
NtRp1753
(dp1754
g62
(dp1755
sg71
g1740
sg64
(lp1756
g57
(g58
g59
NtRp1757
(dp1758
g62
(dp1759
g70
I4
ssg71
g1753
sg64
(lp1760
g57
(g66
g59
NtRp1761
(dp1762
g62
(dp1763
g70
I3
ssg71
Nsg64
(lp1764
g57
(g73
g59
NtRp1765
(dp1766
g62
(dp1767
sg71
g1761
sg64
(lp1768
g57
(g78
g59
NtRp1769
(dp1770
g62
(dp1771
sg71
g1765
sg64
(lp1772
g57
(g58
g59
NtRp1773
(dp1774
g62
(dp1775
g70
I3
ssg71
g1769
sg64
(lp1776
S'2'
asbasbasbag57
(g73
g59
NtRp1777
(dp1778
g62
(dp1779
sg71
g1761
sg64
(lp1780
g57
(g78
g59
NtRp1781
(dp1782
g62
(dp1783
sg71
g1777
sg64
(lp1784
g57
(g58
g59
NtRp1785
(dp1786
g62
(dp1787
g70
I3
ssg71
g1781
sg64
(lp1788
S'3'
asbasbasbag57
(g73
g59
NtRp1789
(dp1790
g62
(dp1791
sg71
g1761
sg64
(lp1792
g57
(g78
g59
NtRp1793
(dp1794
g62
(dp1795
sg71
g1789
sg64
(lp1796
g57
(g58
g59
NtRp1797
(dp1798
g62
(dp1799
g70
I3
ssg71
g1793
sg64
(lp1800
S'2'
asbasbasbag57
(g73
g59
NtRp1801
(dp1802
g62
(dp1803
sg71
g1761
sg64
(lp1804
g57
(g78
g59
NtRp1805
(dp1806
g62
(dp1807
sg71
g1801
sg64
(lp1808
g57
(g58
g59
NtRp1809
(dp1810
g62
(dp1811
g70
I3
ssg71
g1805
sg64
(lp1812
S'datetime.datetime(2012, 12, 17, 15, 3, 30)'
p1813
asbasbasbag57
(g73
g59
NtRp1814
(dp1815
g62
(dp1816
sg71
g1761
sg64
(lp1817
g57
(g78
g59
NtRp1818
(dp1819
g62
(dp1820
sg71
g1814
sg64
(lp1821
g57
(g58
g59
NtRp1822
(dp1823
g62
(dp1824
g70
I3
ssg71
g1818
sg64
(lp1825
S'stable'
p1826
asbasbasbasbasbasbasbag57
(g73
g59
NtRp1827
(dp1828
g62
(dp1829
sg71
g1033
sg64
(lp1830
g57
(g78
g59
NtRp1831
(dp1832
g62
(dp1833
g82
g83
ssg71
g1827
sg64
(lp1834
S'wsgi_errors'
p1835
asbag57
(g78
g59
NtRp1836
(dp1837
g62
(dp1838
g89
g90
ssg71
g1827
sg64
(lp1839
S':'
asbag57
(g78
g59
NtRp1840
(dp1841
g62
(dp1842
sg71
g1827
sg64
(lp1843
g57
(g58
g59
NtRp1844
(dp1845
g62
(dp1846
g70
I4
ssg71
g1840
sg64
(lp1847
S"<open file '<stderr>', mode 'w' at 0x7f6fffa09270>"
p1848
asbasbasbag57
(g73
g59
NtRp1849
(dp1850
g62
(dp1851
sg71
g1033
sg64
(lp1852
g57
(g78
g59
NtRp1853
(dp1854
g62
(dp1855
g82
g83
ssg71
g1849
sg64
(lp1856
S'wsgi_file_wrapper'
p1857
asbag57
(g78
g59
NtRp1858
(dp1859
g62
(dp1860
g89
g90
ssg71
g1849
sg64
(lp1861
S':'
asbag57
(g78
g59
NtRp1862
(dp1863
g62
(dp1864
sg71
g1849
sg64
(lp1865
g57
(g58
g59
NtRp1866
(dp1867
g62
(dp1868
g70
I4
ssg71
g1862
sg64
(lp1869
S'<class wsgiref.util.FileWrapper at 0x2b28c18>'
p1870
asbasbasbag57
(g73
g59
NtRp1871
(dp1872
g62
(dp1873
sg71
g1033
sg64
(lp1874
g57
(g78
g59
NtRp1875
(dp1876
g62
(dp1877
g82
g83
ssg71
g1871
sg64
(lp1878
S'wsgi_input'
p1879
asbag57
(g78
g59
NtRp1880
(dp1881
g62
(dp1882
g89
g90
ssg71
g1871
sg64
(lp1883
S':'
asbag57
(g78
g59
NtRp1884
(dp1885
g62
(dp1886
sg71
g1871
sg64
(lp1887
g57
(g58
g59
NtRp1888
(dp1889
g62
(dp1890
g70
I4
ssg71
g1884
sg64
(lp1891
S'<socket._fileobject object at 0x7f6fd0234750>'
p1892
asbasbasbag57
(g73
g59
NtRp1893
(dp1894
g62
(dp1895
sg71
g1033
sg64
(lp1896
g57
(g78
g59
NtRp1897
(dp1898
g62
(dp1899
g82
g83
ssg71
g1893
sg64
(lp1900
S'wsgi_multiprocess'
p1901
asbag57
(g78
g59
NtRp1902
(dp1903
g62
(dp1904
g89
g90
ssg71
g1893
sg64
(lp1905
S':'
asbag57
(g78
g59
NtRp1906
(dp1907
g62
(dp1908
sg71
g1893
sg64
(lp1909
g57
(g58
g59
NtRp1910
(dp1911
g62
(dp1912
g70
I4
ssg71
g1906
sg64
(lp1913
g100
asbasbasbag57
(g73
g59
NtRp1914
(dp1915
g62
(dp1916
sg71
g1033
sg64
(lp1917
g57
(g78
g59
NtRp1918
(dp1919
g62
(dp1920
g82
g83
ssg71
g1914
sg64
(lp1921
S'wsgi_multithread'
p1922
asbag57
(g78
g59
NtRp1923
(dp1924
g62
(dp1925
g89
g90
ssg71
g1914
sg64
(lp1926
S':'
asbag57
(g78
g59
NtRp1927
(dp1928
g62
(dp1929
sg71
g1914
sg64
(lp1930
g57
(g58
g59
NtRp1931
(dp1932
g62
(dp1933
g70
I4
ssg71
g1927
sg64
(lp1934
S'True'
p1935
asbasbasbag57
(g73
g59
NtRp1936
(dp1937
g62
(dp1938
sg71
g1033
sg64
(lp1939
g57
(g78
g59
NtRp1940
(dp1941
g62
(dp1942
g82
g83
ssg71
g1936
sg64
(lp1943
S'wsgi_run_once'
p1944
asbag57
(g78
g59
NtRp1945
(dp1946
g62
(dp1947
g89
g90
ssg71
g1936
sg64
(lp1948
S':'
asbag57
(g78
g59
NtRp1949
(dp1950
g62
(dp1951
sg71
g1936
sg64
(lp1952
g57
(g58
g59
NtRp1953
(dp1954
g62
(dp1955
g70
I4
ssg71
g1949
sg64
(lp1956
g100
asbasbasbag57
(g73
g59
NtRp1957
(dp1958
g62
(dp1959
sg71
g1033
sg64
(lp1960
g57
(g78
g59
NtRp1961
(dp1962
g62
(dp1963
g82
g83
ssg71
g1957
sg64
(lp1964
S'wsgi_url_scheme'
p1965
asbag57
(g78
g59
NtRp1966
(dp1967
g62
(dp1968
g89
g90
ssg71
g1957
sg64
(lp1969
S':'
asbag57
(g78
g59
NtRp1970
(dp1971
g62
(dp1972
sg71
g1957
sg64
(lp1973
g57
(g58
g59
NtRp1974
(dp1975
g62
(dp1976
g70
I4
ssg71
g1970
sg64
(lp1977
S'http'
p1978
asbasbasbag57
(g73
g59
NtRp1979
(dp1980
g62
(dp1981
sg71
g1033
sg64
(lp1982
g57
(g78
g59
NtRp1983
(dp1984
g62
(dp1985
g82
g83
ssg71
g1979
sg64
(lp1986
S'wsgi_version'
p1987
asbag57
(g78
g59
NtRp1988
(dp1989
g62
(dp1990
g89
g90
ssg71
g1979
sg64
(lp1991
S':'
asbag57
(g78
g59
NtRp1992
(dp1993
g62
(dp1994
sg71
g1979
sg64
(lp1995
g57
(g58
g59
NtRp1996
(dp1997
g62
(dp1998
g70
I4
ssg71
g1992
sg64
(lp1999
g57
(g66
g59
NtRp2000
(dp2001
g62
(dp2002
g70
I3
ssg71
Nsg64
(lp2003
g57
(g73
g59
NtRp2004
(dp2005
g62
(dp2006
sg71
g2000
sg64
(lp2007
g57
(g78
g59
NtRp2008
(dp2009
g62
(dp2010
sg71
g2004
sg64
(lp2011
g57
(g58
g59
NtRp2012
(dp2013
g62
(dp2014
g70
I3
ssg71
g2008
sg64
(lp2015
S'1'
asbasbasbag57
(g73
g59
NtRp2016
(dp2017
g62
(dp2018
sg71
g2000
sg64
(lp2019
g57
(g78
g59
NtRp2020
(dp2021
g62
(dp2022
sg71
g2016
sg64
(lp2023
g57
(g58
g59
NtRp2024
(dp2025
g62
(dp2026
g70
I3
ssg71
g2020
sg64
(lp2027
S'0'
asbasbasbasbasbasbasbasbasbasbasbag57
(g73
g59
NtRp2028
(dp2029
g62
(dp2030
sg71
g67
sg64
(lp2031
g57
(g78
g59
NtRp2032
(dp2033
g62
(dp2034
g82
g83
ssg71
g2028
sg64
(lp2035
S'extension'
p2036
asbag57
(g78
g59
NtRp2037
(dp2038
g62
(dp2039
g89
g90
ssg71
g2028
sg64
(lp2040
S':'
asbag57
(g78
g59
NtRp2041
(dp2042
g62
(dp2043
sg71
g2028
sg64
(lp2044
g57
(g58
g59
NtRp2045
(dp2046
g62
(dp2047
g70
I5
ssg71
g2041
sg64
(lp2048
S'html'
p2049
asbasbasbag57
(g73
g59
NtRp2050
(dp2051
g62
(dp2052
sg71
g67
sg64
(lp2053
g57
(g78
g59
NtRp2054
(dp2055
g62
(dp2056
g82
g83
ssg71
g2050
sg64
(lp2057
S'folder'
p2058
asbag57
(g78
g59
NtRp2059
(dp2060
g62
(dp2061
g89
g90
ssg71
g2050
sg64
(lp2062
S':'
asbag57
(g78
g59
NtRp2063
(dp2064
g62
(dp2065
sg71
g2050
sg64
(lp2066
g57
(g58
g59
NtRp2067
(dp2068
g62
(dp2069
g70
I5
ssg71
g2063
sg64
(lp2070
S'/home/simran/web2py/applications/IIIT_calendars/'
p2071
asbasbasbag57
(g73
g59
NtRp2072
(dp2073
g62
(dp2074
sg71
g67
sg64
(lp2075
g57
(g78
g59
NtRp2076
(dp2077
g62
(dp2078
g82
g83
ssg71
g2072
sg64
(lp2079
S'function'
p2080
asbag57
(g78
g59
NtRp2081
(dp2082
g62
(dp2083
g89
g90
ssg71
g2072
sg64
(lp2084
S':'
asbag57
(g78
g59
NtRp2085
(dp2086
g62
(dp2087
sg71
g2072
sg64
(lp2088
g57
(g58
g59
NtRp2089
(dp2090
g62
(dp2091
g70
I5
ssg71
g2085
sg64
(lp2092
S'formedit'
p2093
asbasbasbag57
(g73
g59
NtRp2094
(dp2095
g62
(dp2096
sg71
g67
sg64
(lp2097
g57
(g78
g59
NtRp2098
(dp2099
g62
(dp2100
g82
g83
ssg71
g2094
sg64
(lp2101
S'get_vars'
p2102
asbag57
(g78
g59
NtRp2103
(dp2104
g62
(dp2105
g89
g90
ssg71
g2094
sg64
(lp2106
S':'
asbag57
(g78
g59
NtRp2107
(dp2108
g62
(dp2109
sg71
g2094
sg64
(lp2110
g57
(g58
g59
NtRp2111
(dp2112
g62
(dp2113
g70
I5
ssg71
g2107
sg64
(lp2114
g57
(g66
g59
NtRp2115
(dp2116
g62
(dp2117
g70
I4
ssg71
Nsg64
(lp2118
g57
(g73
g59
NtRp2119
(dp2120
g62
(dp2121
sg71
g2115
sg64
(lp2122
g57
(g78
g59
NtRp2123
(dp2124
g62
(dp2125
g82
g83
ssg71
g2119
sg64
(lp2126
S'event'
p2127
asbag57
(g78
g59
NtRp2128
(dp2129
g62
(dp2130
g89
g90
ssg71
g2119
sg64
(lp2131
S':'
asbag57
(g78
g59
NtRp2132
(dp2133
g62
(dp2134
sg71
g2119
sg64
(lp2135
g57
(g58
g59
NtRp2136
(dp2137
g62
(dp2138
g70
I4
ssg71
g2132
sg64
(lp2139
S'9'
asbasbasbasbasbasbasbag57
(g73
g59
NtRp2140
(dp2141
g62
(dp2142
sg71
g67
sg64
(lp2143
g57
(g78
g59
NtRp2144
(dp2145
g62
(dp2146
g82
g83
ssg71
g2140
sg64
(lp2147
S'global_settings'
p2148
asbag57
(g78
g59
NtRp2149
(dp2150
g62
(dp2151
g89
g90
ssg71
g2140
sg64
(lp2152
S':'
asbag57
(g78
g59
NtRp2153
(dp2154
g62
(dp2155
sg71
g2140
sg64
(lp2156
g57
(g58
g59
NtRp2157
(dp2158
g62
(dp2159
g70
I5
ssg71
g2153
sg64
(lp2160
g57
(g66
g59
NtRp2161
(dp2162
g62
(dp2163
g70
I4
ssg71
Nsg64
(lp2164
g57
(g73
g59
NtRp2165
(dp2166
g62
(dp2167
sg71
g2161
sg64
(lp2168
g57
(g78
g59
NtRp2169
(dp2170
g62
(dp2171
g82
g83
ssg71
g2165
sg64
(lp2172
g1045
asbag57
(g78
g59
NtRp2173
(dp2174
g62
(dp2175
g89
g90
ssg71
g2165
sg64
(lp2176
S':'
asbag57
(g78
g59
NtRp2177
(dp2178
g62
(dp2179
sg71
g2165
sg64
(lp2180
g57
(g58
g59
NtRp2181
(dp2182
g62
(dp2183
g70
I4
ssg71
g2177
sg64
(lp2184
S"set(['/home/simran/web2py/applications/welcome/', '/home/simran/web2py/applications/music/', '/home/simran/web2py/applications/IIIT_calendars/', '/home/simran/web2py/applications/admin/'])"
p2185
asbasbasbag57
(g73
g59
NtRp2186
(dp2187
g62
(dp2188
sg71
g2161
sg64
(lp2189
g57
(g78
g59
NtRp2190
(dp2191
g62
(dp2192
g82
g83
ssg71
g2186
sg64
(lp2193
g1067
asbag57
(g78
g59
NtRp2194
(dp2195
g62
(dp2196
g89
g90
ssg71
g2186
sg64
(lp2197
S':'
asbag57
(g78
g59
NtRp2198
(dp2199
g62
(dp2200
sg71
g2186
sg64
(lp2201
g57
(g58
g59
NtRp2202
(dp2203
g62
(dp2204
g70
I4
ssg71
g2198
sg64
(lp2205
g1080
asbasbasbag57
(g73
g59
NtRp2206
(dp2207
g62
(dp2208
sg71
g2161
sg64
(lp2209
g57
(g78
g59
NtRp2210
(dp2211
g62
(dp2212
g82
g83
ssg71
g2206
sg64
(lp2213
g1089
asbag57
(g78
g59
NtRp2214
(dp2215
g62
(dp2216
g89
g90
ssg71
g2206
sg64
(lp2217
S':'
asbag57
(g78
g59
NtRp2218
(dp2219
g62
(dp2220
sg71
g2206
sg64
(lp2221
g57
(g58
g59
NtRp2222
(dp2223
g62
(dp2224
g70
I4
ssg71
g2218
sg64
(lp2225
g57
(g66
g59
NtRp2226
(dp2227
g62
(dp2228
g70
I3
ssg71
Nsg64
(lp2229
sbasbasbasbag57
(g73
g59
NtRp2230
(dp2231
g62
(dp2232
sg71
g2161
sg64
(lp2233
g57
(g78
g59
NtRp2234
(dp2235
g62
(dp2236
g82
g83
ssg71
g2230
sg64
(lp2237
g1114
asbag57
(g78
g59
NtRp2238
(dp2239
g62
(dp2240
g89
g90
ssg71
g2230
sg64
(lp2241
S':'
asbag57
(g78
g59
NtRp2242
(dp2243
g62
(dp2244
sg71
g2230
sg64
(lp2245
g57
(g58
g59
NtRp2246
(dp2247
g62
(dp2248
g70
I4
ssg71
g2242
sg64
(lp2249
S"<Values at 0x2bbe7e8: {'verbose': False, 'ip': '127.0.0.1', 'with_scheduler': False, 'ips': [], 'shutdown_timeout': 5, 'taskbar': False, 'port': 8000, 'maxthreads': None, 'softcron': False, 'server_name': 'ubuntu', 'bpython': False, 'nogui': False, 'pid_filename': 'httpserver.pid', 'extcron': False, 'runcron': False, 'run_system_tests': False, 'test': None, 'folder': '/home/simran/web2py', 'config': '', 'minthreads': None, 'winservice': '', 'shell': None, 'run': '', 'log_filename': 'httpserver.log', 'debuglevel': 30, 'args': [''], 'socket_timeout': 5, 'ssl_ca_certificate': None, 'scheduler': None, 'profiler_filename': None, 'ssl_private_key': '', 'scheduler_groups': None, 'password': '<ask>', 'request_queue_size': 5, 'ssl_certificate': '', 'cronjob': False, 'numthreads': None, 'quiet': False, 'interfaces': None, 'import_models': False, 'timeout': 10, 'plain': False, 'nobanner': False}>"
p2250
asbasbasbag57
(g73
g59
NtRp2251
(dp2252
g62
(dp2253
sg71
g2161
sg64
(lp2254
g57
(g78
g59
NtRp2255
(dp2256
g62
(dp2257
g82
g83
ssg71
g2251
sg64
(lp2258
g1136
asbag57
(g78
g59
NtRp2259
(dp2260
g62
(dp2261
g89
g90
ssg71
g2251
sg64
(lp2262
S':'
asbag57
(g78
g59
NtRp2263
(dp2264
g62
(dp2265
sg71
g2251
sg64
(lp2266
g57
(g58
g59
NtRp2267
(dp2268
g62
(dp2269
g70
I4
ssg71
g2263
sg64
(lp2270
S'set([])'
p2271
asbasbasbag57
(g73
g59
NtRp2272
(dp2273
g62
(dp2274
sg71
g2161
sg64
(lp2275
g57
(g78
g59
NtRp2276
(dp2277
g62
(dp2278
g82
g83
ssg71
g2272
sg64
(lp2279
g1158
asbag57
(g78
g59
NtRp2280
(dp2281
g62
(dp2282
g89
g90
ssg71
g2272
sg64
(lp2283
S':'
asbag57
(g78
g59
NtRp2284
(dp2285
g62
(dp2286
sg71
g2272
sg64
(lp2287
g57
(g58
g59
NtRp2288
(dp2289
g62
(dp2290
g70
I4
ssg71
g2284
sg64
(lp2291
g100
asbasbasbag57
(g73
g59
NtRp2292
(dp2293
g62
(dp2294
sg71
g2161
sg64
(lp2295
g57
(g78
g59
NtRp2296
(dp2297
g62
(dp2298
g82
g83
ssg71
g2292
sg64
(lp2299
g1179
asbag57
(g78
g59
NtRp2300
(dp2301
g62
(dp2302
g89
g90
ssg71
g2292
sg64
(lp2303
S':'
asbag57
(g78
g59
NtRp2304
(dp2305
g62
(dp2306
sg71
g2292
sg64
(lp2307
g57
(g58
g59
NtRp2308
(dp2309
g62
(dp2310
g70
I4
ssg71
g2304
sg64
(lp2311
g1192
asbasbasbag57
(g73
g59
NtRp2312
(dp2313
g62
(dp2314
sg71
g2161
sg64
(lp2315
g57
(g78
g59
NtRp2316
(dp2317
g62
(dp2318
g82
g83
ssg71
g2312
sg64
(lp2319
g1355
asbag57
(g78
g59
NtRp2320
(dp2321
g62
(dp2322
g89
g90
ssg71
g2312
sg64
(lp2323
S':'
asbag57
(g78
g59
NtRp2324
(dp2325
g62
(dp2326
sg71
g2312
sg64
(lp2327
g57
(g58
g59
NtRp2328
(dp2329
g62
(dp2330
g70
I4
ssg71
g2324
sg64
(lp2331
g100
asbasbasbag57
(g73
g59
NtRp2332
(dp2333
g62
(dp2334
sg71
g2161
sg64
(lp2335
g57
(g78
g59
NtRp2336
(dp2337
g62
(dp2338
g82
g83
ssg71
g2332
sg64
(lp2339
g1376
asbag57
(g78
g59
NtRp2340
(dp2341
g62
(dp2342
g89
g90
ssg71
g2332
sg64
(lp2343
S':'
asbag57
(g78
g59
NtRp2344
(dp2345
g62
(dp2346
sg71
g2332
sg64
(lp2347
g57
(g58
g59
NtRp2348
(dp2349
g62
(dp2350
g70
I4
ssg71
g2344
sg64
(lp2351
g100
asbasbasbag57
(g73
g59
NtRp2352
(dp2353
g62
(dp2354
sg71
g2161
sg64
(lp2355
g57
(g78
g59
NtRp2356
(dp2357
g62
(dp2358
g82
g83
ssg71
g2352
sg64
(lp2359
g1397
asbag57
(g78
g59
NtRp2360
(dp2361
g62
(dp2362
g89
g90
ssg71
g2352
sg64
(lp2363
S':'
asbag57
(g78
g59
NtRp2364
(dp2365
g62
(dp2366
sg71
g2352
sg64
(lp2367
g57
(g58
g59
NtRp2368
(dp2369
g62
(dp2370
g70
I4
ssg71
g2364
sg64
(lp2371
g57
(g66
g59
NtRp2372
(dp2373
g62
(dp2374
g70
I3
ssg71
Nsg64
(lp2375
g57
(g73
g59
NtRp2376
(dp2377
g62
(dp2378
sg71
g2372
sg64
(lp2379
g57
(g78
g59
NtRp2380
(dp2381
g62
(dp2382
sg71
g2376
sg64
(lp2383
g57
(g58
g59
NtRp2384
(dp2385
g62
(dp2386
g70
I3
ssg71
g2380
sg64
(lp2387
g1426
asbasbasbag57
(g73
g59
NtRp2388
(dp2389
g62
(dp2390
sg71
g2372
sg64
(lp2391
g57
(g78
g59
NtRp2392
(dp2393
g62
(dp2394
sg71
g2388
sg64
(lp2395
g57
(g58
g59
NtRp2396
(dp2397
g62
(dp2398
g70
I3
ssg71
g2392
sg64
(lp2399
g1439
asbasbasbag57
(g73
g59
NtRp2400
(dp2401
g62
(dp2402
sg71
g2372
sg64
(lp2403
g57
(g78
g59
NtRp2404
(dp2405
g62
(dp2406
sg71
g2400
sg64
(lp2407
g57
(g58
g59
NtRp2408
(dp2409
g62
(dp2410
g70
I3
ssg71
g2404
sg64
(lp2411
g1452
asbasbasbag57
(g73
g59
NtRp2412
(dp2413
g62
(dp2414
sg71
g2372
sg64
(lp2415
g57
(g78
g59
NtRp2416
(dp2417
g62
(dp2418
sg71
g2412
sg64
(lp2419
g57
(g58
g59
NtRp2420
(dp2421
g62
(dp2422
g70
I3
ssg71
g2416
sg64
(lp2423
g1465
asbasbasbag57
(g73
g59
NtRp2424
(dp2425
g62
(dp2426
sg71
g2372
sg64
(lp2427
g57
(g78
g59
NtRp2428
(dp2429
g62
(dp2430
sg71
g2424
sg64
(lp2431
g57
(g58
g59
NtRp2432
(dp2433
g62
(dp2434
g70
I3
ssg71
g2428
sg64
(lp2435
g1478
asbasbasbasbasbasbasbag57
(g73
g59
NtRp2436
(dp2437
g62
(dp2438
sg71
g2161
sg64
(lp2439
g57
(g78
g59
NtRp2440
(dp2441
g62
(dp2442
g82
g83
ssg71
g2436
sg64
(lp2443
g1748
asbag57
(g78
g59
NtRp2444
(dp2445
g62
(dp2446
g89
g90
ssg71
g2436
sg64
(lp2447
S':'
asbag57
(g78
g59
NtRp2448
(dp2449
g62
(dp2450
sg71
g2436
sg64
(lp2451
g57
(g58
g59
NtRp2452
(dp2453
g62
(dp2454
g70
I4
ssg71
g2448
sg64
(lp2455
g57
(g66
g59
NtRp2456
(dp2457
g62
(dp2458
g70
I3
ssg71
Nsg64
(lp2459
g57
(g73
g59
NtRp2460
(dp2461
g62
(dp2462
sg71
g2456
sg64
(lp2463
g57
(g78
g59
NtRp2464
(dp2465
g62
(dp2466
sg71
g2460
sg64
(lp2467
g57
(g58
g59
NtRp2468
(dp2469
g62
(dp2470
g70
I3
ssg71
g2464
sg64
(lp2471
S'2'
asbasbasbag57
(g73
g59
NtRp2472
(dp2473
g62
(dp2474
sg71
g2456
sg64
(lp2475
g57
(g78
g59
NtRp2476
(dp2477
g62
(dp2478
sg71
g2472
sg64
(lp2479
g57
(g58
g59
NtRp2480
(dp2481
g62
(dp2482
g70
I3
ssg71
g2476
sg64
(lp2483
S'3'
asbasbasbag57
(g73
g59
NtRp2484
(dp2485
g62
(dp2486
sg71
g2456
sg64
(lp2487
g57
(g78
g59
NtRp2488
(dp2489
g62
(dp2490
sg71
g2484
sg64
(lp2491
g57
(g58
g59
NtRp2492
(dp2493
g62
(dp2494
g70
I3
ssg71
g2488
sg64
(lp2495
S'2'
asbasbasbag57
(g73
g59
NtRp2496
(dp2497
g62
(dp2498
sg71
g2456
sg64
(lp2499
g57
(g78
g59
NtRp2500
(dp2501
g62
(dp2502
sg71
g2496
sg64
(lp2503
g57
(g58
g59
NtRp2504
(dp2505
g62
(dp2506
g70
I3
ssg71
g2500
sg64
(lp2507
S'datetime.datetime(2012, 12, 17, 15, 3, 30)'
p2508
asbasbasbag57
(g73
g59
NtRp2509
(dp2510
g62
(dp2511
sg71
g2456
sg64
(lp2512
g57
(g78
g59
NtRp2513
(dp2514
g62
(dp2515
sg71
g2509
sg64
(lp2516
g57
(g58
g59
NtRp2517
(dp2518
g62
(dp2519
g70
I3
ssg71
g2513
sg64
(lp2520
g1826
asbasbasbasbasbasbasbasbasbasbasbag57
(g73
g59
NtRp2521
(dp2522
g62
(dp2523
sg71
g67
sg64
(lp2524
g57
(g78
g59
NtRp2525
(dp2526
g62
(dp2527
g82
g83
ssg71
g2521
sg64
(lp2528
S'is_https'
p2529
asbag57
(g78
g59
NtRp2530
(dp2531
g62
(dp2532
g89
g90
ssg71
g2521
sg64
(lp2533
S':'
asbag57
(g78
g59
NtRp2534
(dp2535
g62
(dp2536
sg71
g2521
sg64
(lp2537
g57
(g58
g59
NtRp2538
(dp2539
g62
(dp2540
g70
I5
ssg71
g2534
sg64
(lp2541
g100
asbasbasbag57
(g73
g59
NtRp2542
(dp2543
g62
(dp2544
sg71
g67
sg64
(lp2545
g57
(g78
g59
NtRp2546
(dp2547
g62
(dp2548
g82
g83
ssg71
g2542
sg64
(lp2549
S'is_local'
p2550
asbag57
(g78
g59
NtRp2551
(dp2552
g62
(dp2553
g89
g90
ssg71
g2542
sg64
(lp2554
S':'
asbag57
(g78
g59
NtRp2555
(dp2556
g62
(dp2557
sg71
g2542
sg64
(lp2558
g57
(g58
g59
NtRp2559
(dp2560
g62
(dp2561
g70
I5
ssg71
g2555
sg64
(lp2562
g1935
asbasbasbag57
(g73
g59
NtRp2563
(dp2564
g62
(dp2565
sg71
g67
sg64
(lp2566
g57
(g78
g59
NtRp2567
(dp2568
g62
(dp2569
g82
g83
ssg71
g2563
sg64
(lp2570
S'is_restful'
p2571
asbag57
(g78
g59
NtRp2572
(dp2573
g62
(dp2574
g89
g90
ssg71
g2563
sg64
(lp2575
S':'
asbag57
(g78
g59
NtRp2576
(dp2577
g62
(dp2578
sg71
g2563
sg64
(lp2579
g57
(g58
g59
NtRp2580
(dp2581
g62
(dp2582
g70
I5
ssg71
g2576
sg64
(lp2583
g100
asbasbasbag57
(g73
g59
NtRp2584
(dp2585
g62
(dp2586
sg71
g67
sg64
(lp2587
g57
(g78
g59
NtRp2588
(dp2589
g62
(dp2590
g82
g83
ssg71
g2584
sg64
(lp2591
S'now'
p2592
asbag57
(g78
g59
NtRp2593
(dp2594
g62
(dp2595
g89
g90
ssg71
g2584
sg64
(lp2596
S':'
asbag57
(g78
g59
NtRp2597
(dp2598
g62
(dp2599
sg71
g2584
sg64
(lp2600
g57
(g58
g59
NtRp2601
(dp2602
g62
(dp2603
g70
I5
ssg71
g2597
sg64
(lp2604
S'datetime.datetime(2013, 4, 14, 18, 22, 34, 736646)'
p2605
asbasbasbag57
(g73
g59
NtRp2606
(dp2607
g62
(dp2608
sg71
g67
sg64
(lp2609
g57
(g78
g59
NtRp2610
(dp2611
g62
(dp2612
g82
g83
ssg71
g2606
sg64
(lp2613
S'post_vars'
p2614
asbag57
(g78
g59
NtRp2615
(dp2616
g62
(dp2617
g89
g90
ssg71
g2606
sg64
(lp2618
S':'
asbag57
(g78
g59
NtRp2619
(dp2620
g62
(dp2621
sg71
g2606
sg64
(lp2622
g57
(g58
g59
NtRp2623
(dp2624
g62
(dp2625
g70
I5
ssg71
g2619
sg64
(lp2626
g57
(g66
g59
NtRp2627
(dp2628
g62
(dp2629
g70
I4
ssg71
Nsg64
(lp2630
sbasbasbasbag57
(g73
g59
NtRp2631
(dp2632
g62
(dp2633
sg71
g67
sg64
(lp2634
g57
(g78
g59
NtRp2635
(dp2636
g62
(dp2637
g82
g83
ssg71
g2631
sg64
(lp2638
S'raw_args'
p2639
asbag57
(g78
g59
NtRp2640
(dp2641
g62
(dp2642
g89
g90
ssg71
g2631
sg64
(lp2643
S':'
asbag57
(g78
g59
NtRp2644
(dp2645
g62
(dp2646
sg71
g2631
sg64
(lp2647
g57
(g58
g59
NtRp2648
(dp2649
g62
(dp2650
g70
I5
ssg71
g2644
sg64
(lp2651
S''
asbasbasbag57
(g73
g59
NtRp2652
(dp2653
g62
(dp2654
sg71
g67
sg64
(lp2655
g57
(g78
g59
NtRp2656
(dp2657
g62
(dp2658
g82
g83
ssg71
g2652
sg64
(lp2659
S'raw_extension'
p2660
asbag57
(g78
g59
NtRp2661
(dp2662
g62
(dp2663
g89
g90
ssg71
g2652
sg64
(lp2664
S':'
asbag57
(g78
g59
NtRp2665
(dp2666
g62
(dp2667
sg71
g2652
sg64
(lp2668
g57
(g58
g59
NtRp2669
(dp2670
g62
(dp2671
g70
I5
ssg71
g2665
sg64
(lp2672
S'None'
p2673
asbasbasbag57
(g73
g59
NtRp2674
(dp2675
g62
(dp2676
sg71
g67
sg64
(lp2677
g57
(g78
g59
NtRp2678
(dp2679
g62
(dp2680
g82
g83
ssg71
g2674
sg64
(lp2681
S'url'
p2682
asbag57
(g78
g59
NtRp2683
(dp2684
g62
(dp2685
g89
g90
ssg71
g2674
sg64
(lp2686
S':'
asbag57
(g78
g59
NtRp2687
(dp2688
g62
(dp2689
sg71
g2674
sg64
(lp2690
g57
(g58
g59
NtRp2691
(dp2692
g62
(dp2693
g70
I5
ssg71
g2687
sg64
(lp2694
g1500
asbasbasbag57
(g73
g59
NtRp2695
(dp2696
g62
(dp2697
sg71
g67
sg64
(lp2698
g57
(g78
g59
NtRp2699
(dp2700
g62
(dp2701
g82
g83
ssg71
g2695
sg64
(lp2702
S'utcnow'
p2703
asbag57
(g78
g59
NtRp2704
(dp2705
g62
(dp2706
g89
g90
ssg71
g2695
sg64
(lp2707
S':'
asbag57
(g78
g59
NtRp2708
(dp2709
g62
(dp2710
sg71
g2695
sg64
(lp2711
g57
(g58
g59
NtRp2712
(dp2713
g62
(dp2714
g70
I5
ssg71
g2708
sg64
(lp2715
S'datetime.datetime(2013, 4, 14, 12, 52, 34, 736676)'
p2716
asbasbasbag57
(g73
g59
NtRp2717
(dp2718
g62
(dp2719
sg71
g67
sg64
(lp2720
g57
(g78
g59
NtRp2721
(dp2722
g62
(dp2723
g82
g83
ssg71
g2717
sg64
(lp2724
S'uuid'
p2725
asbag57
(g78
g59
NtRp2726
(dp2727
g62
(dp2728
g89
g90
ssg71
g2717
sg64
(lp2729
S':'
asbag57
(g78
g59
NtRp2730
(dp2731
g62
(dp2732
sg71
g2717
sg64
(lp2733
g57
(g58
g59
NtRp2734
(dp2735
g62
(dp2736
g70
I5
ssg71
g2730
sg64
(lp2737
S'IIIT_calendars/127.0.0.1.2013-04-14.18-22-34.d27fee67-9567-4a27-afd7-4d62ea42b942'
p2738
asbasbasbag57
(g73
g59
NtRp2739
(dp2740
g62
(dp2741
sg71
g67
sg64
(lp2742
g57
(g78
g59
NtRp2743
(dp2744
g62
(dp2745
g82
g83
ssg71
g2739
sg64
(lp2746
S'vars'
p2747
asbag57
(g78
g59
NtRp2748
(dp2749
g62
(dp2750
g89
g90
ssg71
g2739
sg64
(lp2751
S':'
asbag57
(g78
g59
NtRp2752
(dp2753
g62
(dp2754
sg71
g2739
sg64
(lp2755
g57
(g58
g59
NtRp2756
(dp2757
g62
(dp2758
g70
I5
ssg71
g2752
sg64
(lp2759
g57
(g66
g59
NtRp2760
(dp2761
g62
(dp2762
g70
I4
ssg71
Nsg64
(lp2763
g57
(g73
g59
NtRp2764
(dp2765
g62
(dp2766
sg71
g2760
sg64
(lp2767
g57
(g78
g59
NtRp2768
(dp2769
g62
(dp2770
g82
g83
ssg71
g2764
sg64
(lp2771
g2127
asbag57
(g78
g59
NtRp2772
(dp2773
g62
(dp2774
g89
g90
ssg71
g2764
sg64
(lp2775
S':'
asbag57
(g78
g59
NtRp2776
(dp2777
g62
(dp2778
sg71
g2764
sg64
(lp2779
g57
(g58
g59
NtRp2780
(dp2781
g62
(dp2782
g70
I4
ssg71
g2776
sg64
(lp2783
S'9'
asbasbasbasbasbasbasbag57
(g73
g59
NtRp2784
(dp2785
g62
(dp2786
sg71
g67
sg64
(lp2787
g57
(g78
g59
NtRp2788
(dp2789
g62
(dp2790
g82
g83
ssg71
g2784
sg64
(lp2791
S'wsgi'
p2792
asbag57
(g78
g59
NtRp2793
(dp2794
g62
(dp2795
g89
g90
ssg71
g2784
sg64
(lp2796
S':'
asbag57
(g78
g59
NtRp2797
(dp2798
g62
(dp2799
sg71
g2784
sg64
(lp2800
g57
(g58
g59
NtRp2801
(dp2802
g62
(dp2803
g70
I5
ssg71
g2797
sg64
(lp2804
g57
(g66
g59
NtRp2805
(dp2806
g62
(dp2807
g70
I4
ssg71
Nsg64
(lp2808
g57
(g73
g59
NtRp2809
(dp2810
g62
(dp2811
sg71
g2805
sg64
(lp2812
g57
(g78
g59
NtRp2813
(dp2814
g62
(dp2815
g82
g83
ssg71
g2809
sg64
(lp2816
S'environ'
p2817
asbag57
(g78
g59
NtRp2818
(dp2819
g62
(dp2820
g89
g90
ssg71
g2809
sg64
(lp2821
S':'
asbag57
(g78
g59
NtRp2822
(dp2823
g62
(dp2824
sg71
g2809
sg64
(lp2825
g57
(g58
g59
NtRp2826
(dp2827
g62
(dp2828
g70
I4
ssg71
g2822
sg64
(lp2829
g57
(g66
g59
NtRp2830
(dp2831
g62
(dp2832
g70
I3
ssg71
Nsg64
(lp2833
g57
(g73
g59
NtRp2834
(dp2835
g62
(dp2836
sg71
g2830
sg64
(lp2837
g57
(g78
g59
NtRp2838
(dp2839
g62
(dp2840
g82
g83
ssg71
g2834
sg64
(lp2841
S'HTTP_ACCEPT'
p2842
asbag57
(g78
g59
NtRp2843
(dp2844
g62
(dp2845
g89
g90
ssg71
g2834
sg64
(lp2846
S':'
asbag57
(g78
g59
NtRp2847
(dp2848
g62
(dp2849
sg71
g2834
sg64
(lp2850
g57
(g58
g59
NtRp2851
(dp2852
g62
(dp2853
g70
I3
ssg71
g2847
sg64
(lp2854
g1214
asbasbasbag57
(g73
g59
NtRp2855
(dp2856
g62
(dp2857
sg71
g2830
sg64
(lp2858
g57
(g78
g59
NtRp2859
(dp2860
g62
(dp2861
g82
g83
ssg71
g2855
sg64
(lp2862
S'HTTP_ACCEPT_ENCODING'
p2863
asbag57
(g78
g59
NtRp2864
(dp2865
g62
(dp2866
g89
g90
ssg71
g2855
sg64
(lp2867
S':'
asbag57
(g78
g59
NtRp2868
(dp2869
g62
(dp2870
sg71
g2855
sg64
(lp2871
g57
(g58
g59
NtRp2872
(dp2873
g62
(dp2874
g70
I3
ssg71
g2868
sg64
(lp2875
g1236
asbasbasbag57
(g73
g59
NtRp2876
(dp2877
g62
(dp2878
sg71
g2830
sg64
(lp2879
g57
(g78
g59
NtRp2880
(dp2881
g62
(dp2882
g82
g83
ssg71
g2876
sg64
(lp2883
S'HTTP_ACCEPT_LANGUAGE'
p2884
asbag57
(g78
g59
NtRp2885
(dp2886
g62
(dp2887
g89
g90
ssg71
g2876
sg64
(lp2888
S':'
asbag57
(g78
g59
NtRp2889
(dp2890
g62
(dp2891
sg71
g2876
sg64
(lp2892
g57
(g58
g59
NtRp2893
(dp2894
g62
(dp2895
g70
I3
ssg71
g2889
sg64
(lp2896
g1258
asbasbasbag57
(g73
g59
NtRp2897
(dp2898
g62
(dp2899
sg71
g2830
sg64
(lp2900
g57
(g78
g59
NtRp2901
(dp2902
g62
(dp2903
g82
g83
ssg71
g2897
sg64
(lp2904
S'HTTP_CONNECTION'
p2905
asbag57
(g78
g59
NtRp2906
(dp2907
g62
(dp2908
g89
g90
ssg71
g2897
sg64
(lp2909
S':'
asbag57
(g78
g59
NtRp2910
(dp2911
g62
(dp2912
sg71
g2897
sg64
(lp2913
g57
(g58
g59
NtRp2914
(dp2915
g62
(dp2916
g70
I3
ssg71
g2910
sg64
(lp2917
g1280
asbasbasbag57
(g73
g59
NtRp2918
(dp2919
g62
(dp2920
sg71
g2830
sg64
(lp2921
g57
(g78
g59
NtRp2922
(dp2923
g62
(dp2924
g82
g83
ssg71
g2918
sg64
(lp2925
S'HTTP_COOKIE'
p2926
asbag57
(g78
g59
NtRp2927
(dp2928
g62
(dp2929
g89
g90
ssg71
g2918
sg64
(lp2930
S':'
asbag57
(g78
g59
NtRp2931
(dp2932
g62
(dp2933
sg71
g2918
sg64
(lp2934
g57
(g58
g59
NtRp2935
(dp2936
g62
(dp2937
g70
I3
ssg71
g2931
sg64
(lp2938
g1302
asbasbasbag57
(g73
g59
NtRp2939
(dp2940
g62
(dp2941
sg71
g2830
sg64
(lp2942
g57
(g78
g59
NtRp2943
(dp2944
g62
(dp2945
g82
g83
ssg71
g2939
sg64
(lp2946
S'HTTP_HOST'
p2947
asbag57
(g78
g59
NtRp2948
(dp2949
g62
(dp2950
g89
g90
ssg71
g2939
sg64
(lp2951
S':'
asbag57
(g78
g59
NtRp2952
(dp2953
g62
(dp2954
sg71
g2939
sg64
(lp2955
g57
(g58
g59
NtRp2956
(dp2957
g62
(dp2958
g70
I3
ssg71
g2952
sg64
(lp2959
g1324
asbasbasbag57
(g73
g59
NtRp2960
(dp2961
g62
(dp2962
sg71
g2830
sg64
(lp2963
g57
(g78
g59
NtRp2964
(dp2965
g62
(dp2966
g82
g83
ssg71
g2960
sg64
(lp2967
S'HTTP_USER_AGENT'
p2968
asbag57
(g78
g59
NtRp2969
(dp2970
g62
(dp2971
g89
g90
ssg71
g2960
sg64
(lp2972
S':'
asbag57
(g78
g59
NtRp2973
(dp2974
g62
(dp2975
sg71
g2960
sg64
(lp2976
g57
(g58
g59
NtRp2977
(dp2978
g62
(dp2979
g70
I3
ssg71
g2973
sg64
(lp2980
g1346
asbasbasbag57
(g73
g59
NtRp2981
(dp2982
g62
(dp2983
sg71
g2830
sg64
(lp2984
g57
(g78
g59
NtRp2985
(dp2986
g62
(dp2987
g82
g83
ssg71
g2981
sg64
(lp2988
S'PATH_INFO'
p2989
asbag57
(g78
g59
NtRp2990
(dp2991
g62
(dp2992
g89
g90
ssg71
g2981
sg64
(lp2993
S':'
asbag57
(g78
g59
NtRp2994
(dp2995
g62
(dp2996
sg71
g2981
sg64
(lp2997
g57
(g58
g59
NtRp2998
(dp2999
g62
(dp3000
g70
I3
ssg71
g2994
sg64
(lp3001
g1500
asbasbasbag57
(g73
g59
NtRp3002
(dp3003
g62
(dp3004
sg71
g2830
sg64
(lp3005
g57
(g78
g59
NtRp3006
(dp3007
g62
(dp3008
g82
g83
ssg71
g3002
sg64
(lp3009
S'QUERY_STRING'
p3010
asbag57
(g78
g59
NtRp3011
(dp3012
g62
(dp3013
g89
g90
ssg71
g3002
sg64
(lp3014
S':'
asbag57
(g78
g59
NtRp3015
(dp3016
g62
(dp3017
sg71
g3002
sg64
(lp3018
g57
(g58
g59
NtRp3019
(dp3020
g62
(dp3021
g70
I3
ssg71
g3015
sg64
(lp3022
g1522
asbasbasbag57
(g73
g59
NtRp3023
(dp3024
g62
(dp3025
sg71
g2830
sg64
(lp3026
g57
(g78
g59
NtRp3027
(dp3028
g62
(dp3029
g82
g83
ssg71
g3023
sg64
(lp3030
S'REMOTE_ADDR'
p3031
asbag57
(g78
g59
NtRp3032
(dp3033
g62
(dp3034
g89
g90
ssg71
g3023
sg64
(lp3035
S':'
asbag57
(g78
g59
NtRp3036
(dp3037
g62
(dp3038
sg71
g3023
sg64
(lp3039
g57
(g58
g59
NtRp3040
(dp3041
g62
(dp3042
g70
I3
ssg71
g3036
sg64
(lp3043
g212
asbasbasbag57
(g73
g59
NtRp3044
(dp3045
g62
(dp3046
sg71
g2830
sg64
(lp3047
g57
(g78
g59
NtRp3048
(dp3049
g62
(dp3050
g82
g83
ssg71
g3044
sg64
(lp3051
S'REMOTE_PORT'
p3052
asbag57
(g78
g59
NtRp3053
(dp3054
g62
(dp3055
g89
g90
ssg71
g3044
sg64
(lp3056
S':'
asbag57
(g78
g59
NtRp3057
(dp3058
g62
(dp3059
sg71
g3044
sg64
(lp3060
g57
(g58
g59
NtRp3061
(dp3062
g62
(dp3063
g70
I3
ssg71
g3057
sg64
(lp3064
g1565
asbasbasbag57
(g73
g59
NtRp3065
(dp3066
g62
(dp3067
sg71
g2830
sg64
(lp3068
g57
(g78
g59
NtRp3069
(dp3070
g62
(dp3071
g82
g83
ssg71
g3065
sg64
(lp3072
S'REQUEST_METHOD'
p3073
asbag57
(g78
g59
NtRp3074
(dp3075
g62
(dp3076
g89
g90
ssg71
g3065
sg64
(lp3077
S':'
asbag57
(g78
g59
NtRp3078
(dp3079
g62
(dp3080
sg71
g3065
sg64
(lp3081
g57
(g58
g59
NtRp3082
(dp3083
g62
(dp3084
g70
I3
ssg71
g3078
sg64
(lp3085
g1587
asbasbasbag57
(g73
g59
NtRp3086
(dp3087
g62
(dp3088
sg71
g2830
sg64
(lp3089
g57
(g78
g59
NtRp3090
(dp3091
g62
(dp3092
g82
g83
ssg71
g3086
sg64
(lp3093
S'REQUEST_URI'
p3094
asbag57
(g78
g59
NtRp3095
(dp3096
g62
(dp3097
g89
g90
ssg71
g3086
sg64
(lp3098
S':'
asbag57
(g78
g59
NtRp3099
(dp3100
g62
(dp3101
sg71
g3086
sg64
(lp3102
g57
(g58
g59
NtRp3103
(dp3104
g62
(dp3105
g70
I3
ssg71
g3099
sg64
(lp3106
g1609
asbasbasbag57
(g73
g59
NtRp3107
(dp3108
g62
(dp3109
sg71
g2830
sg64
(lp3110
g57
(g78
g59
NtRp3111
(dp3112
g62
(dp3113
g82
g83
ssg71
g3107
sg64
(lp3114
S'SCRIPT_NAME'
p3115
asbag57
(g78
g59
NtRp3116
(dp3117
g62
(dp3118
g89
g90
ssg71
g3107
sg64
(lp3119
S':'
asbag57
(g78
g59
NtRp3120
(dp3121
g62
(dp3122
sg71
g3107
sg64
(lp3123
g57
(g58
g59
NtRp3124
(dp3125
g62
(dp3126
g70
I3
ssg71
g3120
sg64
(lp3127
S''
asbasbasbag57
(g73
g59
NtRp3128
(dp3129
g62
(dp3130
sg71
g2830
sg64
(lp3131
g57
(g78
g59
NtRp3132
(dp3133
g62
(dp3134
g82
g83
ssg71
g3128
sg64
(lp3135
S'SERVER_NAME'
p3136
asbag57
(g78
g59
NtRp3137
(dp3138
g62
(dp3139
g89
g90
ssg71
g3128
sg64
(lp3140
S':'
asbag57
(g78
g59
NtRp3141
(dp3142
g62
(dp3143
sg71
g3128
sg64
(lp3144
g57
(g58
g59
NtRp3145
(dp3146
g62
(dp3147
g70
I3
ssg71
g3141
sg64
(lp3148
g1652
asbasbasbag57
(g73
g59
NtRp3149
(dp3150
g62
(dp3151
sg71
g2830
sg64
(lp3152
g57
(g78
g59
NtRp3153
(dp3154
g62
(dp3155
g82
g83
ssg71
g3149
sg64
(lp3156
S'SERVER_PORT'
p3157
asbag57
(g78
g59
NtRp3158
(dp3159
g62
(dp3160
g89
g90
ssg71
g3149
sg64
(lp3161
S':'
asbag57
(g78
g59
NtRp3162
(dp3163
g62
(dp3164
sg71
g3149
sg64
(lp3165
g57
(g58
g59
NtRp3166
(dp3167
g62
(dp3168
g70
I3
ssg71
g3162
sg64
(lp3169
g1674
asbasbasbag57
(g73
g59
NtRp3170
(dp3171
g62
(dp3172
sg71
g2830
sg64
(lp3173
g57
(g78
g59
NtRp3174
(dp3175
g62
(dp3176
g82
g83
ssg71
g3170
sg64
(lp3177
S'SERVER_PROTOCOL'
p3178
asbag57
(g78
g59
NtRp3179
(dp3180
g62
(dp3181
g89
g90
ssg71
g3170
sg64
(lp3182
S':'
asbag57
(g78
g59
NtRp3183
(dp3184
g62
(dp3185
sg71
g3170
sg64
(lp3186
g57
(g58
g59
NtRp3187
(dp3188
g62
(dp3189
g70
I3
ssg71
g3183
sg64
(lp3190
g1696
asbasbasbag57
(g73
g59
NtRp3191
(dp3192
g62
(dp3193
sg71
g2830
sg64
(lp3194
g57
(g78
g59
NtRp3195
(dp3196
g62
(dp3197
g82
g83
ssg71
g3191
sg64
(lp3198
S'SERVER_SOFTWARE'
p3199
asbag57
(g78
g59
NtRp3200
(dp3201
g62
(dp3202
g89
g90
ssg71
g3191
sg64
(lp3203
S':'
asbag57
(g78
g59
NtRp3204
(dp3205
g62
(dp3206
sg71
g3191
sg64
(lp3207
g57
(g58
g59
NtRp3208
(dp3209
g62
(dp3210
g70
I3
ssg71
g3204
sg64
(lp3211
g1718
asbasbasbag57
(g73
g59
NtRp3212
(dp3213
g62
(dp3214
sg71
g2830
sg64
(lp3215
g57
(g78
g59
NtRp3216
(dp3217
g62
(dp3218
g82
g83
ssg71
g3212
sg64
(lp3219
S'wsgi.errors'
p3220
asbag57
(g78
g59
NtRp3221
(dp3222
g62
(dp3223
g89
g90
ssg71
g3212
sg64
(lp3224
S':'
asbag57
(g78
g59
NtRp3225
(dp3226
g62
(dp3227
sg71
g3212
sg64
(lp3228
g57
(g58
g59
NtRp3229
(dp3230
g62
(dp3231
g70
I3
ssg71
g3225
sg64
(lp3232
S"<open file '<stderr>', mode 'w' at 0x7f6fffa09270>"
p3233
asbasbasbag57
(g73
g59
NtRp3234
(dp3235
g62
(dp3236
sg71
g2830
sg64
(lp3237
g57
(g78
g59
NtRp3238
(dp3239
g62
(dp3240
g82
g83
ssg71
g3234
sg64
(lp3241
S'wsgi.file_wrapper'
p3242
asbag57
(g78
g59
NtRp3243
(dp3244
g62
(dp3245
g89
g90
ssg71
g3234
sg64
(lp3246
S':'
asbag57
(g78
g59
NtRp3247
(dp3248
g62
(dp3249
sg71
g3234
sg64
(lp3250
g57
(g58
g59
NtRp3251
(dp3252
g62
(dp3253
g70
I3
ssg71
g3247
sg64
(lp3254
S'<class wsgiref.util.FileWrapper at 0x2b28c18>'
p3255
asbasbasbag57
(g73
g59
NtRp3256
(dp3257
g62
(dp3258
sg71
g2830
sg64
(lp3259
g57
(g78
g59
NtRp3260
(dp3261
g62
(dp3262
g82
g83
ssg71
g3256
sg64
(lp3263
S'wsgi.input'
p3264
asbag57
(g78
g59
NtRp3265
(dp3266
g62
(dp3267
g89
g90
ssg71
g3256
sg64
(lp3268
S':'
asbag57
(g78
g59
NtRp3269
(dp3270
g62
(dp3271
sg71
g3256
sg64
(lp3272
g57
(g58
g59
NtRp3273
(dp3274
g62
(dp3275
g70
I3
ssg71
g3269
sg64
(lp3276
S'<cStringIO.StringO object at 0x7f6fdc2b39d0>'
p3277
asbasbasbag57
(g73
g59
NtRp3278
(dp3279
g62
(dp3280
sg71
g2830
sg64
(lp3281
g57
(g78
g59
NtRp3282
(dp3283
g62
(dp3284
g82
g83
ssg71
g3278
sg64
(lp3285
S'wsgi.multiprocess'
p3286
asbag57
(g78
g59
NtRp3287
(dp3288
g62
(dp3289
g89
g90
ssg71
g3278
sg64
(lp3290
S':'
asbag57
(g78
g59
NtRp3291
(dp3292
g62
(dp3293
sg71
g3278
sg64
(lp3294
g57
(g58
g59
NtRp3295
(dp3296
g62
(dp3297
g70
I3
ssg71
g3291
sg64
(lp3298
g100
asbasbasbag57
(g73
g59
NtRp3299
(dp3300
g62
(dp3301
sg71
g2830
sg64
(lp3302
g57
(g78
g59
NtRp3303
(dp3304
g62
(dp3305
g82
g83
ssg71
g3299
sg64
(lp3306
S'wsgi.multithread'
p3307
asbag57
(g78
g59
NtRp3308
(dp3309
g62
(dp3310
g89
g90
ssg71
g3299
sg64
(lp3311
S':'
asbag57
(g78
g59
NtRp3312
(dp3313
g62
(dp3314
sg71
g3299
sg64
(lp3315
g57
(g58
g59
NtRp3316
(dp3317
g62
(dp3318
g70
I3
ssg71
g3312
sg64
(lp3319
g1935
asbasbasbag57
(g73
g59
NtRp3320
(dp3321
g62
(dp3322
sg71
g2830
sg64
(lp3323
g57
(g78
g59
NtRp3324
(dp3325
g62
(dp3326
g82
g83
ssg71
g3320
sg64
(lp3327
S'wsgi.run_once'
p3328
asbag57
(g78
g59
NtRp3329
(dp3330
g62
(dp3331
g89
g90
ssg71
g3320
sg64
(lp3332
S':'
asbag57
(g78
g59
NtRp3333
(dp3334
g62
(dp3335
sg71
g3320
sg64
(lp3336
g57
(g58
g59
NtRp3337
(dp3338
g62
(dp3339
g70
I3
ssg71
g3333
sg64
(lp3340
g100
asbasbasbag57
(g73
g59
NtRp3341
(dp3342
g62
(dp3343
sg71
g2830
sg64
(lp3344
g57
(g78
g59
NtRp3345
(dp3346
g62
(dp3347
g82
g83
ssg71
g3341
sg64
(lp3348
S'wsgi.url_scheme'
p3349
asbag57
(g78
g59
NtRp3350
(dp3351
g62
(dp3352
g89
g90
ssg71
g3341
sg64
(lp3353
S':'
asbag57
(g78
g59
NtRp3354
(dp3355
g62
(dp3356
sg71
g3341
sg64
(lp3357
g57
(g58
g59
NtRp3358
(dp3359
g62
(dp3360
g70
I3
ssg71
g3354
sg64
(lp3361
g1978
asbasbasbag57
(g73
g59
NtRp3362
(dp3363
g62
(dp3364
sg71
g2830
sg64
(lp3365
g57
(g78
g59
NtRp3366
(dp3367
g62
(dp3368
g82
g83
ssg71
g3362
sg64
(lp3369
S'wsgi.version'
p3370
asbag57
(g78
g59
NtRp3371
(dp3372
g62
(dp3373
g89
g90
ssg71
g3362
sg64
(lp3374
S':'
asbag57
(g78
g59
NtRp3375
(dp3376
g62
(dp3377
sg71
g3362
sg64
(lp3378
g57
(g58
g59
NtRp3379
(dp3380
g62
(dp3381
g70
I3
ssg71
g3375
sg64
(lp3382
S'1'
asbasbasbasbasbasbasbasbasbasbasbasbasbsS'frames'
p3383
(lp3384
(dp3385
S'file'
p3386
S'/home/simran/web2py/gluon/restricted.py'
p3387
sS'dump'
p3388
(dp3389
S'environment'
p3390
S"{'A': <class 'gluon.html.A'>, 'Auth': <class 'gluon.tools.Auth'>, 'B': <class 'gluon.html.B'>, 'BEAUTIFY': <class 'gluon.html.BEAUTIFY'>, 'BODY': <class 'gluon.html.BODY'>, 'BR': <class 'gluon.html.BR'>, 'BUTTON': <class 'gluon.html.BUTTON'>, 'CAT': <class 'gluon.html.CAT'>, 'CENTER': <class 'gluon.html.CENTER'>, 'CLEANUP': <class 'gluon.validators.CLEANUP'>, ...}"
p3391
sS'ccode'
p3392
S'<code object <module> at 0x7f6fe03ac6b0, file "/...T_calendars/views/default/formedit.html", line 1>'
p3393
ssS'lnum'
p3394
I212
sS'lines'
p3395
(dp3396
I207
S'    try:'
p3397
sI208
S'        if isinstance(code, types.CodeType):'
p3398
sI209
S'            ccode = code'
p3399
sI210
S'        else:'
p3400
sI211
S'            ccode = compile2(code, layer)'
p3401
sI212
S'        exec ccode in environment'
p3402
sI213
S'    except HTTP:'
p3403
sI214
S'        raise'
p3404
sI215
S'    except RestrictedError:'
p3405
sI216
S'        # do not encapsulate (obfuscate) the original RestrictedError'
p3406
ssS'call'
p3407
S'(code=\'response.write(\\\'<!DOCTYPE html>\\\\n<!-- paulirish....(\\\'"></script>\\\\n</body>\\\\n</html>\\\\n\\\', escape=False)\', environment={\'A\': <class \'gluon.html.A\'>, \'Auth\': <class \'gluon.tools.Auth\'>, \'B\': <class \'gluon.html.B\'>, \'BEAUTIFY\': <class \'gluon.html.BEAUTIFY\'>, \'BODY\': <class \'gluon.html.BODY\'>, \'BR\': <class \'gluon.html.BR\'>, \'BUTTON\': <class \'gluon.html.BUTTON\'>, \'CAT\': <class \'gluon.html.CAT\'>, \'CENTER\': <class \'gluon.html.CENTER\'>, \'CLEANUP\': <class \'gluon.validators.CLEANUP\'>, ...}, layer=\'/home/simran/web2py/applications/IIIT_calendars/views/default/formedit.html\')'
p3408
sS'func'
p3409
S'restricted'
p3410
sa(dp3411
g3386
S'/home/simran/web2py/applications/IIIT_calendars/views/default/formedit.html'
p3412
sg3388
(dp3413
sg3394
I71
sg3395
(dp3414
I64
S"    response.write('\\n        </div>\\n        ', escape=False)"
p3415
sI65
S'    pass'
p3416
sI66
S'response.write(\'\\n\\n        <div class="\', escape=False)'
p3417
sI67
S'response.write(middle_columns)'
p3418
sI68
S'response.write(\'">\\n            \', escape=False)'
p3419
sI69
S"response.write('\\n            ', escape=False)"
p3420
sI70
S'response.write(\'\\n<br />\\n<br />\\n<div style="text-align:center">\\n    <form action="edit_events?e=\', escape=False)'
p3421
sI71
S"response.write(a['Title'])"
p3422
sI72
S'response.write(\'" method="POST">\\n    Title : <input type="text" name="Tit" value="\', escape=False)'
p3423
sI73
S"response.write(a['Title'])"
p3424
sI74
S'response.write(\'"/> <br/> \\n    Description : <input type="text" name="Des" value="\', escape=False)'
p3425
sI75
S"response.write(a['Description'])"
p3426
sI76
S'response.write(\'"/> <br /> \\n    Event Date : <input type="text" name="Eve" value="\', escape=False)'
p3427
sI77
S"response.write(a['Eventdate'])"
p3428
sI78
S'response.write(\'"/> <br/>\\n    Start time : <input type="text" name="Sta" value="\', escape=False)'
p3429
sI79
S"response.write(a['Starttime'])"
p3430
sI80
S'response.write(\'"/>  <br/>\\n    End Time : <input type="text" name="End" value="\', escape=False)'
p3431
sI81
S"response.write(a['Endtime'])"
p3432
sI62
S'    response.write(\'\\n        <div class="span3 left-sidebar">\\n            \', escape=False)'
p3433
sI63
S"    response.write('\\n            <h3>Left Sidebar</h3>\\n            <p></p>\\n            ', escape=False)"
p3434
ssg3407
S'()'
p3435
sg3409
S'<module>'
p3436
sa(dp3437
g3386
S'/home/simran/web2py/gluon/dal.py'
p3438
sg3388
(dp3439
S'i'
S"'Title'"
p3440
sS'self'
p3441
S'<Rows (1)>'
p3442
sS'self.records'
p3443
S"[<Row {'events': {'Description': 'Submit it on 15...3, 9), 'Eventdate': datetime.date(2013, 4, 15)}}>]"
p3444
sS'row'
p3445
S'undefined'
p3446
ssg3394
I9170
sg3395
(dp3447
I9165
S''
sI9166
S'    def __getslice__(self, a, b):'
p3448
sI9167
S'        return Rows(self.db,self.records[a:b],self.colnames)'
p3449
sI9168
S''
sI9169
S'    def __getitem__(self, i):'
p3450
sI9170
S'        row = self.records[i]'
p3451
sI9171
S'        keys = row.keys()'
p3452
sI9172
S"        if self.compact and len(keys) == 1 and keys[0] != '_extra':"
p3453
sI9173
S'            return row[row.keys()[0]]'
p3454
sI9174
S'        return row'
p3455
ssg3407
S"(self=<Rows (1)>, i='Title')"
p3456
sg3409
g20
sasS'pyver'
p3457
S'Python 2.7.3: /usr/bin/python'
p3458
sS'session'
p3459
g57
(g58
g59
NtRp3460
(dp3461
g62
(dp3462
sg64
(lp3463
g57
(g66
g59
NtRp3464
(dp3465
g62
(dp3466
g70
I5
ssg71
Nsg64
(lp3467
g57
(g73
g59
NtRp3468
(dp3469
g62
(dp3470
sg71
g3464
sg64
(lp3471
g57
(g78
g59
NtRp3472
(dp3473
g62
(dp3474
g82
g83
ssg71
g3468
sg64
(lp3475
S'auth'
p3476
asbag57
(g78
g59
NtRp3477
(dp3478
g62
(dp3479
g89
g90
ssg71
g3468
sg64
(lp3480
S':'
asbag57
(g78
g59
NtRp3481
(dp3482
g62
(dp3483
sg71
g3468
sg64
(lp3484
g57
(g58
g59
NtRp3485
(dp3486
g62
(dp3487
g70
I5
ssg71
g3481
sg64
(lp3488
g57
(g66
g59
NtRp3489
(dp3490
g62
(dp3491
g70
I4
ssg71
Nsg64
(lp3492
g57
(g73
g59
NtRp3493
(dp3494
g62
(dp3495
sg71
g3489
sg64
(lp3496
g57
(g78
g59
NtRp3497
(dp3498
g62
(dp3499
g82
g83
ssg71
g3493
sg64
(lp3500
S'expiration'
p3501
asbag57
(g78
g59
NtRp3502
(dp3503
g62
(dp3504
g89
g90
ssg71
g3493
sg64
(lp3505
S':'
asbag57
(g78
g59
NtRp3506
(dp3507
g62
(dp3508
sg71
g3493
sg64
(lp3509
g57
(g58
g59
NtRp3510
(dp3511
g62
(dp3512
g70
I4
ssg71
g3506
sg64
(lp3513
S'3600'
p3514
asbasbasbag57
(g73
g59
NtRp3515
(dp3516
g62
(dp3517
sg71
g3489
sg64
(lp3518
g57
(g78
g59
NtRp3519
(dp3520
g62
(dp3521
g82
g83
ssg71
g3515
sg64
(lp3522
S'hmac_key'
p3523
asbag57
(g78
g59
NtRp3524
(dp3525
g62
(dp3526
g89
g90
ssg71
g3515
sg64
(lp3527
S':'
asbag57
(g78
g59
NtRp3528
(dp3529
g62
(dp3530
sg71
g3515
sg64
(lp3531
g57
(g58
g59
NtRp3532
(dp3533
g62
(dp3534
g70
I4
ssg71
g3528
sg64
(lp3535
S'64d5f87f-0b13-4c5a-ad52-b9c2cf7797c1'
p3536
asbasbasbag57
(g73
g59
NtRp3537
(dp3538
g62
(dp3539
sg71
g3489
sg64
(lp3540
g57
(g78
g59
NtRp3541
(dp3542
g62
(dp3543
g82
g83
ssg71
g3537
sg64
(lp3544
S'last_visit'
p3545
asbag57
(g78
g59
NtRp3546
(dp3547
g62
(dp3548
g89
g90
ssg71
g3537
sg64
(lp3549
S':'
asbag57
(g78
g59
NtRp3550
(dp3551
g62
(dp3552
sg71
g3537
sg64
(lp3553
g57
(g58
g59
NtRp3554
(dp3555
g62
(dp3556
g70
I4
ssg71
g3550
sg64
(lp3557
S'datetime.datetime(2013, 4, 14, 18, 17, 14, 793704)'
p3558
asbasbasbag57
(g73
g59
NtRp3559
(dp3560
g62
(dp3561
sg71
g3489
sg64
(lp3562
g57
(g78
g59
NtRp3563
(dp3564
g62
(dp3565
g82
g83
ssg71
g3559
sg64
(lp3566
S'remember'
p3567
asbag57
(g78
g59
NtRp3568
(dp3569
g62
(dp3570
g89
g90
ssg71
g3559
sg64
(lp3571
S':'
asbag57
(g78
g59
NtRp3572
(dp3573
g62
(dp3574
sg71
g3559
sg64
(lp3575
g57
(g58
g59
NtRp3576
(dp3577
g62
(dp3578
g70
I4
ssg71
g3572
sg64
(lp3579
g100
asbasbasbag57
(g73
g59
NtRp3580
(dp3581
g62
(dp3582
sg71
g3489
sg64
(lp3583
g57
(g78
g59
NtRp3584
(dp3585
g62
(dp3586
g82
g83
ssg71
g3580
sg64
(lp3587
S'user'
p3588
asbag57
(g78
g59
NtRp3589
(dp3590
g62
(dp3591
g89
g90
ssg71
g3580
sg64
(lp3592
S':'
asbag57
(g78
g59
NtRp3593
(dp3594
g62
(dp3595
sg71
g3580
sg64
(lp3596
g57
(g58
g59
NtRp3597
(dp3598
g62
(dp3599
g70
I4
ssg71
g3593
sg64
(lp3600
g57
(g66
g59
NtRp3601
(dp3602
g62
(dp3603
g70
I3
ssg71
Nsg64
(lp3604
g57
(g73
g59
NtRp3605
(dp3606
g62
(dp3607
sg71
g3601
sg64
(lp3608
g57
(g78
g59
NtRp3609
(dp3610
g62
(dp3611
g82
g83
ssg71
g3605
sg64
(lp3612
S'email'
p3613
asbag57
(g78
g59
NtRp3614
(dp3615
g62
(dp3616
g89
g90
ssg71
g3605
sg64
(lp3617
S':'
asbag57
(g78
g59
NtRp3618
(dp3619
g62
(dp3620
sg71
g3605
sg64
(lp3621
g57
(g58
g59
NtRp3622
(dp3623
g62
(dp3624
g70
I3
ssg71
g3618
sg64
(lp3625
S'simikedia93@gmail.com'
p3626
asbasbasbag57
(g73
g59
NtRp3627
(dp3628
g62
(dp3629
sg71
g3601
sg64
(lp3630
g57
(g78
g59
NtRp3631
(dp3632
g62
(dp3633
g82
g83
ssg71
g3627
sg64
(lp3634
S'first_name'
p3635
asbag57
(g78
g59
NtRp3636
(dp3637
g62
(dp3638
g89
g90
ssg71
g3627
sg64
(lp3639
S':'
asbag57
(g78
g59
NtRp3640
(dp3641
g62
(dp3642
sg71
g3627
sg64
(lp3643
g57
(g58
g59
NtRp3644
(dp3645
g62
(dp3646
g70
I3
ssg71
g3640
sg64
(lp3647
S'Simran'
p3648
asbasbasbag57
(g73
g59
NtRp3649
(dp3650
g62
(dp3651
sg71
g3601
sg64
(lp3652
g57
(g78
g59
NtRp3653
(dp3654
g62
(dp3655
g82
g83
ssg71
g3649
sg64
(lp3656
S'id'
p3657
asbag57
(g78
g59
NtRp3658
(dp3659
g62
(dp3660
g89
g90
ssg71
g3649
sg64
(lp3661
S':'
asbag57
(g78
g59
NtRp3662
(dp3663
g62
(dp3664
sg71
g3649
sg64
(lp3665
g57
(g58
g59
NtRp3666
(dp3667
g62
(dp3668
g70
I3
ssg71
g3662
sg64
(lp3669
S'17'
p3670
asbasbasbag57
(g73
g59
NtRp3671
(dp3672
g62
(dp3673
sg71
g3601
sg64
(lp3674
g57
(g78
g59
NtRp3675
(dp3676
g62
(dp3677
g82
g83
ssg71
g3671
sg64
(lp3678
S'last_name'
p3679
asbag57
(g78
g59
NtRp3680
(dp3681
g62
(dp3682
g89
g90
ssg71
g3671
sg64
(lp3683
S':'
asbag57
(g78
g59
NtRp3684
(dp3685
g62
(dp3686
sg71
g3671
sg64
(lp3687
g57
(g58
g59
NtRp3688
(dp3689
g62
(dp3690
g70
I3
ssg71
g3684
sg64
(lp3691
S'Kedia'
p3692
asbasbasbag57
(g73
g59
NtRp3693
(dp3694
g62
(dp3695
sg71
g3601
sg64
(lp3696
g57
(g78
g59
NtRp3697
(dp3698
g62
(dp3699
g82
g83
ssg71
g3693
sg64
(lp3700
S'registration_id'
p3701
asbag57
(g78
g59
NtRp3702
(dp3703
g62
(dp3704
g89
g90
ssg71
g3693
sg64
(lp3705
S':'
asbag57
(g78
g59
NtRp3706
(dp3707
g62
(dp3708
sg71
g3693
sg64
(lp3709
g57
(g58
g59
NtRp3710
(dp3711
g62
(dp3712
g70
I3
ssg71
g3706
sg64
(lp3713
S''
asbasbasbag57
(g73
g59
NtRp3714
(dp3715
g62
(dp3716
sg71
g3601
sg64
(lp3717
g57
(g78
g59
NtRp3718
(dp3719
g62
(dp3720
g82
g83
ssg71
g3714
sg64
(lp3721
S'registration_key'
p3722
asbag57
(g78
g59
NtRp3723
(dp3724
g62
(dp3725
g89
g90
ssg71
g3714
sg64
(lp3726
S':'
asbag57
(g78
g59
NtRp3727
(dp3728
g62
(dp3729
sg71
g3714
sg64
(lp3730
g57
(g58
g59
NtRp3731
(dp3732
g62
(dp3733
g70
I3
ssg71
g3727
sg64
(lp3734
S''
asbasbasbag57
(g73
g59
NtRp3735
(dp3736
g62
(dp3737
sg71
g3601
sg64
(lp3738
g57
(g78
g59
NtRp3739
(dp3740
g62
(dp3741
g82
g83
ssg71
g3735
sg64
(lp3742
S'reset_password_key'
p3743
asbag57
(g78
g59
NtRp3744
(dp3745
g62
(dp3746
g89
g90
ssg71
g3735
sg64
(lp3747
S':'
asbag57
(g78
g59
NtRp3748
(dp3749
g62
(dp3750
sg71
g3735
sg64
(lp3751
g57
(g58
g59
NtRp3752
(dp3753
g62
(dp3754
g70
I3
ssg71
g3748
sg64
(lp3755
S''
asbasbasbasbasbasbasbag57
(g73
g59
NtRp3756
(dp3757
g62
(dp3758
sg71
g3489
sg64
(lp3759
g57
(g78
g59
NtRp3760
(dp3761
g62
(dp3762
g82
g83
ssg71
g3756
sg64
(lp3763
S'user_groups'
p3764
asbag57
(g78
g59
NtRp3765
(dp3766
g62
(dp3767
g89
g90
ssg71
g3756
sg64
(lp3768
S':'
asbag57
(g78
g59
NtRp3769
(dp3770
g62
(dp3771
sg71
g3756
sg64
(lp3772
g57
(g58
g59
NtRp3773
(dp3774
g62
(dp3775
g70
I4
ssg71
g3769
sg64
(lp3776
g57
(g66
g59
NtRp3777
(dp3778
g62
(dp3779
g70
I3
ssg71
Nsg64
(lp3780
g57
(g73
g59
NtRp3781
(dp3782
g62
(dp3783
sg71
g3777
sg64
(lp3784
g57
(g78
g59
NtRp3785
(dp3786
g62
(dp3787
g82
g83
ssg71
g3781
sg64
(lp3788
S'17'
p3789
asbag57
(g78
g59
NtRp3790
(dp3791
g62
(dp3792
g89
g90
ssg71
g3781
sg64
(lp3793
S':'
asbag57
(g78
g59
NtRp3794
(dp3795
g62
(dp3796
sg71
g3781
sg64
(lp3797
g57
(g58
g59
NtRp3798
(dp3799
g62
(dp3800
g70
I3
ssg71
g3794
sg64
(lp3801
S'user_17'
p3802
asbasbasbasbasbasbasbasbasbasbasbag57
(g73
g59
NtRp3803
(dp3804
g62
(dp3805
sg71
g3464
sg64
(lp3806
g57
(g78
g59
NtRp3807
(dp3808
g62
(dp3809
g82
g83
ssg71
g3803
sg64
(lp3810
S'flash'
p3811
asbag57
(g78
g59
NtRp3812
(dp3813
g62
(dp3814
g89
g90
ssg71
g3803
sg64
(lp3815
S':'
asbag57
(g78
g59
NtRp3816
(dp3817
g62
(dp3818
sg71
g3803
sg64
(lp3819
g57
(g58
g59
NtRp3820
(dp3821
g62
(dp3822
g70
I5
ssg71
g3816
sg64
(lp3823
S'None'
p3824
asbasbasbag57
(g73
g59
NtRp3825
(dp3826
g62
(dp3827
sg71
g3464
sg64
(lp3828
g57
(g78
g59
NtRp3829
(dp3830
g62
(dp3831
g82
g83
ssg71
g3825
sg64
(lp3832
S'last_orderby'
p3833
asbag57
(g78
g59
NtRp3834
(dp3835
g62
(dp3836
g89
g90
ssg71
g3825
sg64
(lp3837
S':'
asbag57
(g78
g59
NtRp3838
(dp3839
g62
(dp3840
sg71
g3825
sg64
(lp3841
g57
(g58
g59
NtRp3842
(dp3843
g62
(dp3844
g70
I5
ssg71
g3838
sg64
(lp3845
S'None'
p3846
asbasbasbag57
(g73
g59
NtRp3847
(dp3848
g62
(dp3849
sg71
g3464
sg64
(lp3850
g57
(g78
g59
NtRp3851
(dp3852
g62
(dp3853
g82
g83
ssg71
g3847
sg64
(lp3854
S'last_query'
p3855
asbag57
(g78
g59
NtRp3856
(dp3857
g62
(dp3858
g89
g90
ssg71
g3847
sg64
(lp3859
S':'
asbag57
(g78
g59
NtRp3860
(dp3861
g62
(dp3862
sg71
g3847
sg64
(lp3863
g57
(g58
g59
NtRp3864
(dp3865
g62
(dp3866
g70
I5
ssg71
g3860
sg64
(lp3867
S'db.events.id>0'
p3868
asbasbasbasbasbsS'etype'
p3869
S"<type 'exceptions.TypeError'>"
p3870
sS'date'
p3871
S'Sun Apr 14 18:22:34 2013'
p3872
sS'response'
p3873
g57
(g58
g59
NtRp3874
(dp3875
g62
(dp3876
sg64
(lp3877
g57
(g66
g59
NtRp3878
(dp3879
g62
(dp3880
g70
I5
ssg71
Nsg64
(lp3881
g57
(g73
g59
NtRp3882
(dp3883
g62
(dp3884
sg71
g3878
sg64
(lp3885
g57
(g78
g59
NtRp3886
(dp3887
g62
(dp3888
g82
g83
ssg71
g3882
sg64
(lp3889
g155
asbag57
(g78
g59
NtRp3890
(dp3891
g62
(dp3892
g89
g90
ssg71
g3882
sg64
(lp3893
S':'
asbag57
(g78
g59
NtRp3894
(dp3895
g62
(dp3896
sg71
g3882
sg64
(lp3897
g57
(g58
g59
NtRp3898
(dp3899
g62
(dp3900
g70
I5
ssg71
g3894
sg64
(lp3901
S'<cStringIO.StringO object at 0x7f6fc849cf48>'
p3902
asbasbasbag57
(g73
g59
NtRp3903
(dp3904
g62
(dp3905
sg71
g3878
sg64
(lp3906
g57
(g78
g59
NtRp3907
(dp3908
g62
(dp3909
g82
g83
ssg71
g3903
sg64
(lp3910
g243
asbag57
(g78
g59
NtRp3911
(dp3912
g62
(dp3913
g89
g90
ssg71
g3903
sg64
(lp3914
S':'
asbag57
(g78
g59
NtRp3915
(dp3916
g62
(dp3917
sg71
g3903
sg64
(lp3918
g57
(g58
g59
NtRp3919
(dp3920
g62
(dp3921
g70
I5
ssg71
g3915
sg64
(lp3922
g57
(g66
g59
NtRp3923
(dp3924
g62
(dp3925
g70
I4
ssg71
Nsg64
(lp3926
g57
(g73
g59
NtRp3927
(dp3928
g62
(dp3929
sg71
g3923
sg64
(lp3930
g57
(g78
g59
NtRp3931
(dp3932
g62
(dp3933
g82
g83
ssg71
g3927
sg64
(lp3934
S'session_id_iiit_calendars'
p3935
asbag57
(g78
g59
NtRp3936
(dp3937
g62
(dp3938
g89
g90
ssg71
g3927
sg64
(lp3939
S':'
asbag57
(g78
g59
NtRp3940
(dp3941
g62
(dp3942
sg71
g3927
sg64
(lp3943
g57
(g58
g59
NtRp3944
(dp3945
g62
(dp3946
g70
I4
ssg71
g3940
sg64
(lp3947
g475
ag57
(g66
g59
NtRp3948
(dp3949
g62
(dp3950
g70
I3
ssg71
Nsg64
(lp3951
g57
(g73
g59
NtRp3952
(dp3953
g62
(dp3954
sg71
g3948
sg64
(lp3955
g57
(g78
g59
NtRp3956
(dp3957
g62
(dp3958
g82
g83
ssg71
g3952
sg64
(lp3959
g294
asbag57
(g78
g59
NtRp3960
(dp3961
g62
(dp3962
g89
g90
ssg71
g3952
sg64
(lp3963
S':'
asbag57
(g78
g59
NtRp3964
(dp3965
g62
(dp3966
sg71
g3952
sg64
(lp3967
g57
(g58
g59
NtRp3968
(dp3969
g62
(dp3970
g70
I3
ssg71
g3964
sg64
(lp3971
S''
asbasbasbag57
(g73
g59
NtRp3972
(dp3973
g62
(dp3974
sg71
g3948
sg64
(lp3975
g57
(g78
g59
NtRp3976
(dp3977
g62
(dp3978
g82
g83
ssg71
g3972
sg64
(lp3979
g315
asbag57
(g78
g59
NtRp3980
(dp3981
g62
(dp3982
g89
g90
ssg71
g3972
sg64
(lp3983
S':'
asbag57
(g78
g59
NtRp3984
(dp3985
g62
(dp3986
sg71
g3972
sg64
(lp3987
g57
(g58
g59
NtRp3988
(dp3989
g62
(dp3990
g70
I3
ssg71
g3984
sg64
(lp3991
S''
asbasbasbag57
(g73
g59
NtRp3992
(dp3993
g62
(dp3994
sg71
g3948
sg64
(lp3995
g57
(g78
g59
NtRp3996
(dp3997
g62
(dp3998
g82
g83
ssg71
g3992
sg64
(lp3999
g336
asbag57
(g78
g59
NtRp4000
(dp4001
g62
(dp4002
g89
g90
ssg71
g3992
sg64
(lp4003
S':'
asbag57
(g78
g59
NtRp4004
(dp4005
g62
(dp4006
sg71
g3992
sg64
(lp4007
g57
(g58
g59
NtRp4008
(dp4009
g62
(dp4010
g70
I3
ssg71
g4004
sg64
(lp4011
S''
asbasbasbag57
(g73
g59
NtRp4012
(dp4013
g62
(dp4014
sg71
g3948
sg64
(lp4015
g57
(g78
g59
NtRp4016
(dp4017
g62
(dp4018
g82
g83
ssg71
g4012
sg64
(lp4019
g357
asbag57
(g78
g59
NtRp4020
(dp4021
g62
(dp4022
g89
g90
ssg71
g4012
sg64
(lp4023
S':'
asbag57
(g78
g59
NtRp4024
(dp4025
g62
(dp4026
sg71
g4012
sg64
(lp4027
g57
(g58
g59
NtRp4028
(dp4029
g62
(dp4030
g70
I3
ssg71
g4024
sg64
(lp4031
S''
asbasbasbag57
(g73
g59
NtRp4032
(dp4033
g62
(dp4034
sg71
g3948
sg64
(lp4035
g57
(g78
g59
NtRp4036
(dp4037
g62
(dp4038
g82
g83
ssg71
g4032
sg64
(lp4039
g378
asbag57
(g78
g59
NtRp4040
(dp4041
g62
(dp4042
g89
g90
ssg71
g4032
sg64
(lp4043
S':'
asbag57
(g78
g59
NtRp4044
(dp4045
g62
(dp4046
sg71
g4032
sg64
(lp4047
g57
(g58
g59
NtRp4048
(dp4049
g62
(dp4050
g70
I3
ssg71
g4044
sg64
(lp4051
S''
asbasbasbag57
(g73
g59
NtRp4052
(dp4053
g62
(dp4054
sg71
g3948
sg64
(lp4055
g57
(g78
g59
NtRp4056
(dp4057
g62
(dp4058
g82
g83
ssg71
g4052
sg64
(lp4059
g399
asbag57
(g78
g59
NtRp4060
(dp4061
g62
(dp4062
g89
g90
ssg71
g4052
sg64
(lp4063
S':'
asbag57
(g78
g59
NtRp4064
(dp4065
g62
(dp4066
sg71
g4052
sg64
(lp4067
g57
(g58
g59
NtRp4068
(dp4069
g62
(dp4070
g70
I3
ssg71
g4064
sg64
(lp4071
S'/'
asbasbasbag57
(g73
g59
NtRp4072
(dp4073
g62
(dp4074
sg71
g3948
sg64
(lp4075
g57
(g78
g59
NtRp4076
(dp4077
g62
(dp4078
g82
g83
ssg71
g4072
sg64
(lp4079
g420
asbag57
(g78
g59
NtRp4080
(dp4081
g62
(dp4082
g89
g90
ssg71
g4072
sg64
(lp4083
S':'
asbag57
(g78
g59
NtRp4084
(dp4085
g62
(dp4086
sg71
g4072
sg64
(lp4087
g57
(g58
g59
NtRp4088
(dp4089
g62
(dp4090
g70
I3
ssg71
g4084
sg64
(lp4091
S''
asbasbasbag57
(g73
g59
NtRp4092
(dp4093
g62
(dp4094
sg71
g3948
sg64
(lp4095
g57
(g78
g59
NtRp4096
(dp4097
g62
(dp4098
g82
g83
ssg71
g4092
sg64
(lp4099
g441
asbag57
(g78
g59
NtRp4100
(dp4101
g62
(dp4102
g89
g90
ssg71
g4092
sg64
(lp4103
S':'
asbag57
(g78
g59
NtRp4104
(dp4105
g62
(dp4106
sg71
g4092
sg64
(lp4107
g57
(g58
g59
NtRp4108
(dp4109
g62
(dp4110
g70
I3
ssg71
g4104
sg64
(lp4111
S''
asbasbasbasbasbasbasbasbasbasbasbag57
(g73
g59
NtRp4112
(dp4113
g62
(dp4114
sg71
g3878
sg64
(lp4115
g57
(g78
g59
NtRp4116
(dp4117
g62
(dp4118
g82
g83
ssg71
g4112
sg64
(lp4119
S'delimiters'
p4120
asbag57
(g78
g59
NtRp4121
(dp4122
g62
(dp4123
g89
g90
ssg71
g4112
sg64
(lp4124
S':'
asbag57
(g78
g59
NtRp4125
(dp4126
g62
(dp4127
sg71
g4112
sg64
(lp4128
g57
(g58
g59
NtRp4129
(dp4130
g62
(dp4131
g70
I5
ssg71
g4125
sg64
(lp4132
g57
(g66
g59
NtRp4133
(dp4134
g62
(dp4135
g70
I4
ssg71
Nsg64
(lp4136
g57
(g73
g59
NtRp4137
(dp4138
g62
(dp4139
sg71
g4133
sg64
(lp4140
g57
(g78
g59
NtRp4141
(dp4142
g62
(dp4143
sg71
g4137
sg64
(lp4144
g57
(g58
g59
NtRp4145
(dp4146
g62
(dp4147
g70
I4
ssg71
g4141
sg64
(lp4148
S'{{'
p4149
asbasbasbag57
(g73
g59
NtRp4150
(dp4151
g62
(dp4152
sg71
g4133
sg64
(lp4153
g57
(g78
g59
NtRp4154
(dp4155
g62
(dp4156
sg71
g4150
sg64
(lp4157
g57
(g58
g59
NtRp4158
(dp4159
g62
(dp4160
g70
I4
ssg71
g4154
sg64
(lp4161
S'}}'
p4162
asbasbasbasbasbasbasbag57
(g73
g59
NtRp4163
(dp4164
g62
(dp4165
sg71
g3878
sg64
(lp4166
g57
(g78
g59
NtRp4167
(dp4168
g62
(dp4169
g82
g83
ssg71
g4163
sg64
(lp4170
S'files'
p4171
asbag57
(g78
g59
NtRp4172
(dp4173
g62
(dp4174
g89
g90
ssg71
g4163
sg64
(lp4175
S':'
asbag57
(g78
g59
NtRp4176
(dp4177
g62
(dp4178
sg71
g4163
sg64
(lp4179
g57
(g58
g59
NtRp4180
(dp4181
g62
(dp4182
g70
I5
ssg71
g4176
sg64
(lp4183
g57
(g66
g59
NtRp4184
(dp4185
g62
(dp4186
g70
I4
ssg71
Nsg64
(lp4187
g57
(g73
g59
NtRp4188
(dp4189
g62
(dp4190
sg71
g4184
sg64
(lp4191
g57
(g78
g59
NtRp4192
(dp4193
g62
(dp4194
sg71
g4188
sg64
(lp4195
g57
(g58
g59
NtRp4196
(dp4197
g62
(dp4198
g70
I4
ssg71
g4192
sg64
(lp4199
S'/IIIT_calendars/static/js/jquery.js'
p4200
asbasbasbag57
(g73
g59
NtRp4201
(dp4202
g62
(dp4203
sg71
g4184
sg64
(lp4204
g57
(g78
g59
NtRp4205
(dp4206
g62
(dp4207
sg71
g4201
sg64
(lp4208
g57
(g58
g59
NtRp4209
(dp4210
g62
(dp4211
g70
I4
ssg71
g4205
sg64
(lp4212
S'/IIIT_calendars/static/css/calendar.css'
p4213
asbasbasbag57
(g73
g59
NtRp4214
(dp4215
g62
(dp4216
sg71
g4184
sg64
(lp4217
g57
(g78
g59
NtRp4218
(dp4219
g62
(dp4220
sg71
g4214
sg64
(lp4221
g57
(g58
g59
NtRp4222
(dp4223
g62
(dp4224
g70
I4
ssg71
g4218
sg64
(lp4225
S'/IIIT_calendars/static/js/calendar.js'
p4226
asbasbasbag57
(g73
g59
NtRp4227
(dp4228
g62
(dp4229
sg71
g4184
sg64
(lp4230
g57
(g78
g59
NtRp4231
(dp4232
g62
(dp4233
sg71
g4227
sg64
(lp4234
g57
(g58
g59
NtRp4235
(dp4236
g62
(dp4237
g70
I4
ssg71
g4231
sg64
(lp4238
S'/IIIT_calendars/static/js/web2py.js'
p4239
asbasbasbag57
(g73
g59
NtRp4240
(dp4241
g62
(dp4242
sg71
g4184
sg64
(lp4243
g57
(g78
g59
NtRp4244
(dp4245
g62
(dp4246
sg71
g4240
sg64
(lp4247
g57
(g58
g59
NtRp4248
(dp4249
g62
(dp4250
g70
I4
ssg71
g4244
sg64
(lp4251
S'/IIIT_calendars/static/css/web2py.css'
p4252
asbasbasbag57
(g73
g59
NtRp4253
(dp4254
g62
(dp4255
sg71
g4184
sg64
(lp4256
g57
(g78
g59
NtRp4257
(dp4258
g62
(dp4259
sg71
g4253
sg64
(lp4260
g57
(g58
g59
NtRp4261
(dp4262
g62
(dp4263
g70
I4
ssg71
g4257
sg64
(lp4264
S'/IIIT_calendars/static/css/bootstrap.min.css'
p4265
asbasbasbag57
(g73
g59
NtRp4266
(dp4267
g62
(dp4268
sg71
g4184
sg64
(lp4269
g57
(g78
g59
NtRp4270
(dp4271
g62
(dp4272
sg71
g4266
sg64
(lp4273
g57
(g58
g59
NtRp4274
(dp4275
g62
(dp4276
g70
I4
ssg71
g4270
sg64
(lp4277
S'/IIIT_calendars/static/css/bootstrap-responsive.min.css'
p4278
asbasbasbag57
(g73
g59
NtRp4279
(dp4280
g62
(dp4281
sg71
g4184
sg64
(lp4282
g57
(g78
g59
NtRp4283
(dp4284
g62
(dp4285
sg71
g4279
sg64
(lp4286
g57
(g58
g59
NtRp4287
(dp4288
g62
(dp4289
g70
I4
ssg71
g4283
sg64
(lp4290
S'/IIIT_calendars/static/css/web2py_bootstrap.css'
p4291
asbasbasbasbasbasbasbag57
(g73
g59
NtRp4292
(dp4293
g62
(dp4294
sg71
g3878
sg64
(lp4295
g57
(g78
g59
NtRp4296
(dp4297
g62
(dp4298
g82
g83
ssg71
g4292
sg64
(lp4299
S'flash'
p4300
asbag57
(g78
g59
NtRp4301
(dp4302
g62
(dp4303
g89
g90
ssg71
g4292
sg64
(lp4304
S':'
asbag57
(g78
g59
NtRp4305
(dp4306
g62
(dp4307
sg71
g4292
sg64
(lp4308
g57
(g58
g59
NtRp4309
(dp4310
g62
(dp4311
g70
I5
ssg71
g4305
sg64
(lp4312
S''
asbasbasbag57
(g73
g59
NtRp4313
(dp4314
g62
(dp4315
sg71
g3878
sg64
(lp4316
g57
(g78
g59
NtRp4317
(dp4318
g62
(dp4319
g82
g83
ssg71
g4313
sg64
(lp4320
S'generic_patterns'
p4321
asbag57
(g78
g59
NtRp4322
(dp4323
g62
(dp4324
g89
g90
ssg71
g4313
sg64
(lp4325
S':'
asbag57
(g78
g59
NtRp4326
(dp4327
g62
(dp4328
sg71
g4313
sg64
(lp4329
g57
(g58
g59
NtRp4330
(dp4331
g62
(dp4332
g70
I5
ssg71
g4326
sg64
(lp4333
g57
(g66
g59
NtRp4334
(dp4335
g62
(dp4336
g70
I4
ssg71
Nsg64
(lp4337
g57
(g73
g59
NtRp4338
(dp4339
g62
(dp4340
sg71
g4334
sg64
(lp4341
g57
(g78
g59
NtRp4342
(dp4343
g62
(dp4344
sg71
g4338
sg64
(lp4345
g57
(g58
g59
NtRp4346
(dp4347
g62
(dp4348
g70
I4
ssg71
g4342
sg64
(lp4349
S'*'
asbasbasbasbasbasbasbag57
(g73
g59
NtRp4350
(dp4351
g62
(dp4352
sg71
g3878
sg64
(lp4353
g57
(g78
g59
NtRp4354
(dp4355
g62
(dp4356
g82
g83
ssg71
g4350
sg64
(lp4357
S'google_analytics_id'
p4358
asbag57
(g78
g59
NtRp4359
(dp4360
g62
(dp4361
g89
g90
ssg71
g4350
sg64
(lp4362
S':'
asbag57
(g78
g59
NtRp4363
(dp4364
g62
(dp4365
sg71
g4350
sg64
(lp4366
g57
(g58
g59
NtRp4367
(dp4368
g62
(dp4369
g70
I5
ssg71
g4363
sg64
(lp4370
S'None'
p4371
asbasbasbag57
(g73
g59
NtRp4372
(dp4373
g62
(dp4374
sg71
g3878
sg64
(lp4375
g57
(g78
g59
NtRp4376
(dp4377
g62
(dp4378
g82
g83
ssg71
g4372
sg64
(lp4379
S'headers'
p4380
asbag57
(g78
g59
NtRp4381
(dp4382
g62
(dp4383
g89
g90
ssg71
g4372
sg64
(lp4384
S':'
asbag57
(g78
g59
NtRp4385
(dp4386
g62
(dp4387
sg71
g4372
sg64
(lp4388
g57
(g58
g59
NtRp4389
(dp4390
g62
(dp4391
g70
I5
ssg71
g4385
sg64
(lp4392
g57
(g66
g59
NtRp4393
(dp4394
g62
(dp4395
g70
I4
ssg71
Nsg64
(lp4396
g57
(g73
g59
NtRp4397
(dp4398
g62
(dp4399
sg71
g4393
sg64
(lp4400
g57
(g78
g59
NtRp4401
(dp4402
g62
(dp4403
g82
g83
ssg71
g4397
sg64
(lp4404
S'X-Powered-By'
p4405
asbag57
(g78
g59
NtRp4406
(dp4407
g62
(dp4408
g89
g90
ssg71
g4397
sg64
(lp4409
S':'
asbag57
(g78
g59
NtRp4410
(dp4411
g62
(dp4412
sg71
g4397
sg64
(lp4413
g57
(g58
g59
NtRp4414
(dp4415
g62
(dp4416
g70
I4
ssg71
g4410
sg64
(lp4417
S'web2py'
p4418
asbasbasbasbasbasbasbag57
(g73
g59
NtRp4419
(dp4420
g62
(dp4421
sg71
g3878
sg64
(lp4422
g57
(g78
g59
NtRp4423
(dp4424
g62
(dp4425
g82
g83
ssg71
g4419
sg64
(lp4426
S'logo'
p4427
asbag57
(g78
g59
NtRp4428
(dp4429
g62
(dp4430
g89
g90
ssg71
g4419
sg64
(lp4431
S':'
asbag57
(g78
g59
NtRp4432
(dp4433
g62
(dp4434
sg71
g4419
sg64
(lp4435
g57
(g58
g59
NtRp4436
(dp4437
g62
(dp4438
g70
I5
ssg71
g4432
sg64
(lp4439
g57
(cgluon.html
A
p4440
g59
NtRp4441
(dp4442
g62
(dp4443
S'_class'
p4444
S'brand'
p4445
sS'_href'
p4446
S'http://www.web2py.com/'
p4447
ssg71
Nsg64
(lp4448
g57
(cgluon.html
B
p4449
g59
NtRp4450
(dp4451
g62
(dp4452
sg71
g4441
sg64
(lp4453
S'web'
p4454
ag57
(cgluon.html
SPAN
p4455
g59
NtRp4456
(dp4457
g62
(dp4458
sg71
g4450
sg64
(lp4459
I2
asbaS'py'
p4460
asbacgluon.html
XML_unpickle
p4461
(S's\r\x00\x00\x00&trade;&nbsp;'
tRp4462
asbasbasbasbag57
(g73
g59
NtRp4463
(dp4464
g62
(dp4465
sg71
g3878
sg64
(lp4466
g57
(g78
g59
NtRp4467
(dp4468
g62
(dp4469
g82
g83
ssg71
g4463
sg64
(lp4470
S'menu'
p4471
asbag57
(g78
g59
NtRp4472
(dp4473
g62
(dp4474
g89
g90
ssg71
g4463
sg64
(lp4475
S':'
asbag57
(g78
g59
NtRp4476
(dp4477
g62
(dp4478
sg71
g4463
sg64
(lp4479
g57
(g58
g59
NtRp4480
(dp4481
g62
(dp4482
g70
I5
ssg71
g4476
sg64
(lp4483
g57
(g66
g59
NtRp4484
(dp4485
g62
(dp4486
g70
I4
ssg71
Nsg64
(lp4487
g57
(g73
g59
NtRp4488
(dp4489
g62
(dp4490
sg71
g4484
sg64
(lp4491
g57
(g78
g59
NtRp4492
(dp4493
g62
(dp4494
sg71
g4488
sg64
(lp4495
g57
(g58
g59
NtRp4496
(dp4497
g62
(dp4498
g70
I4
ssg71
g4492
sg64
(lp4499
g57
(g66
g59
NtRp4500
(dp4501
g62
(dp4502
g70
I3
ssg71
Nsg64
(lp4503
g57
(g73
g59
NtRp4504
(dp4505
g62
(dp4506
sg71
g4500
sg64
(lp4507
g57
(g78
g59
NtRp4508
(dp4509
g62
(dp4510
sg71
g4504
sg64
(lp4511
g57
(g58
g59
NtRp4512
(dp4513
g62
(dp4514
g70
I3
ssg71
g4508
sg64
(lp4515
cgluon.languages
lazyT_unpickle
p4516
(S's\x04\x00\x00\x00Home'
tRp4517
asbasbasbag57
(g73
g59
NtRp4518
(dp4519
g62
(dp4520
sg71
g4500
sg64
(lp4521
g57
(g78
g59
NtRp4522
(dp4523
g62
(dp4524
sg71
g4518
sg64
(lp4525
g57
(g58
g59
NtRp4526
(dp4527
g62
(dp4528
g70
I3
ssg71
g4522
sg64
(lp4529
g100
asbasbasbag57
(g73
g59
NtRp4530
(dp4531
g62
(dp4532
sg71
g4500
sg64
(lp4533
g57
(g78
g59
NtRp4534
(dp4535
g62
(dp4536
sg71
g4530
sg64
(lp4537
g57
(g58
g59
NtRp4538
(dp4539
g62
(dp4540
g70
I3
ssg71
g4534
sg64
(lp4541
S'/IIIT_calendars/default/index'
p4542
asbasbasbag57
(g73
g59
NtRp4543
(dp4544
g62
(dp4545
sg71
g4500
sg64
(lp4546
g57
(g78
g59
NtRp4547
(dp4548
g62
(dp4549
sg71
g4543
sg64
(lp4550
g57
(g58
g59
NtRp4551
(dp4552
g62
(dp4553
g70
I3
ssg71
g4547
sg64
(lp4554
g57
(g66
g59
NtRp4555
(dp4556
g62
(dp4557
g70
I2
ssg71
Nsg64
(lp4558
sbasbasbasbasbasbasbasbag57
(g73
g59
NtRp4559
(dp4560
g62
(dp4561
sg71
g4484
sg64
(lp4562
g57
(g78
g59
NtRp4563
(dp4564
g62
(dp4565
sg71
g4559
sg64
(lp4566
g57
(g58
g59
NtRp4567
(dp4568
g62
(dp4569
g70
I4
ssg71
g4563
sg64
(lp4570
g57
(g66
g59
NtRp4571
(dp4572
g62
(dp4573
g70
I3
ssg71
Nsg64
(lp4574
g57
(g73
g59
NtRp4575
(dp4576
g62
(dp4577
sg71
g4571
sg64
(lp4578
g57
(g78
g59
NtRp4579
(dp4580
g62
(dp4581
sg71
g4575
sg64
(lp4582
g57
(g58
g59
NtRp4583
(dp4584
g62
(dp4585
g70
I3
ssg71
g4579
sg64
(lp4586
g57
(g4455
g59
NtRp4587
(dp4588
g62
(dp4589
g4444
S'highlighted'
p4590
ssg71
Nsg64
(lp4591
g4418
asbasbasbasbag57
(g73
g59
NtRp4592
(dp4593
g62
(dp4594
sg71
g4571
sg64
(lp4595
g57
(g78
g59
NtRp4596
(dp4597
g62
(dp4598
sg71
g4592
sg64
(lp4599
g57
(g58
g59
NtRp4600
(dp4601
g62
(dp4602
g70
I3
ssg71
g4596
sg64
(lp4603
g100
asbasbasbag57
(g73
g59
NtRp4604
(dp4605
g62
(dp4606
sg71
g4571
sg64
(lp4607
g57
(g78
g59
NtRp4608
(dp4609
g62
(dp4610
sg71
g4604
sg64
(lp4611
g57
(g58
g59
NtRp4612
(dp4613
g62
(dp4614
g70
I3
ssg71
g4608
sg64
(lp4615
S'http://web2py.com'
p4616
asbasbasbag57
(g73
g59
NtRp4617
(dp4618
g62
(dp4619
sg71
g4571
sg64
(lp4620
g57
(g78
g59
NtRp4621
(dp4622
g62
(dp4623
sg71
g4617
sg64
(lp4624
g57
(g58
g59
NtRp4625
(dp4626
g62
(dp4627
g70
I3
ssg71
g4621
sg64
(lp4628
g57
(g66
g59
NtRp4629
(dp4630
g62
(dp4631
g70
I2
ssg71
Nsg64
(lp4632
g57
(g73
g59
NtRp4633
(dp4634
g62
(dp4635
sg71
g4629
sg64
(lp4636
g57
(g78
g59
NtRp4637
(dp4638
g62
(dp4639
sg71
g4633
sg64
(lp4640
g57
(g58
g59
NtRp4641
(dp4642
g62
(dp4643
g70
I2
ssg71
g4637
sg64
(lp4644
g57
(g66
g59
NtRp4645
(dp4646
g62
(dp4647
g70
I1
ssg71
Nsg64
(lp4648
g57
(g73
g59
NtRp4649
(dp4650
g62
(dp4651
sg71
g4645
sg64
(lp4652
g57
(g78
g59
NtRp4653
(dp4654
g62
(dp4655
sg71
g4649
sg64
(lp4656
g57
(g58
g59
NtRp4657
(dp4658
g62
(dp4659
g70
I1
ssg71
g4653
sg64
(lp4660
g4516
(S's\x08\x00\x00\x00My Sites'
tRp4661
asbasbasbag57
(g73
g59
NtRp4662
(dp4663
g62
(dp4664
sg71
g4645
sg64
(lp4665
g57
(g78
g59
NtRp4666
(dp4667
g62
(dp4668
sg71
g4662
sg64
(lp4669
g57
(g58
g59
NtRp4670
(dp4671
g62
(dp4672
g70
I1
ssg71
g4666
sg64
(lp4673
I00
asbasbasbag57
(g73
g59
NtRp4674
(dp4675
g62
(dp4676
sg71
g4645
sg64
(lp4677
g57
(g78
g59
NtRp4678
(dp4679
g62
(dp4680
sg71
g4674
sg64
(lp4681
g57
(g58
g59
NtRp4682
(dp4683
g62
(dp4684
g70
I1
ssg71
g4678
sg64
(lp4685
S'/admin/default/site'
p4686
asbasbasbasbasbasbasbag57
(g73
g59
NtRp4687
(dp4688
g62
(dp4689
sg71
g4629
sg64
(lp4690
g57
(g78
g59
NtRp4691
(dp4692
g62
(dp4693
sg71
g4687
sg64
(lp4694
g57
(g58
g59
NtRp4695
(dp4696
g62
(dp4697
g70
I2
ssg71
g4691
sg64
(lp4698
g57
(g66
g59
NtRp4699
(dp4700
g62
(dp4701
g70
I1
ssg71
Nsg64
(lp4702
g57
(g73
g59
NtRp4703
(dp4704
g62
(dp4705
sg71
g4699
sg64
(lp4706
g57
(g78
g59
NtRp4707
(dp4708
g62
(dp4709
sg71
g4703
sg64
(lp4710
g57
(g58
g59
NtRp4711
(dp4712
g62
(dp4713
g70
I1
ssg71
g4707
sg64
(lp4714
g4516
(S's\x08\x00\x00\x00This App'
tRp4715
asbasbasbag57
(g73
g59
NtRp4716
(dp4717
g62
(dp4718
sg71
g4699
sg64
(lp4719
g57
(g78
g59
NtRp4720
(dp4721
g62
(dp4722
sg71
g4716
sg64
(lp4723
g57
(g58
g59
NtRp4724
(dp4725
g62
(dp4726
g70
I1
ssg71
g4720
sg64
(lp4727
I00
asbasbasbag57
(g73
g59
NtRp4728
(dp4729
g62
(dp4730
sg71
g4699
sg64
(lp4731
g57
(g78
g59
NtRp4732
(dp4733
g62
(dp4734
sg71
g4728
sg64
(lp4735
g57
(g58
g59
NtRp4736
(dp4737
g62
(dp4738
g70
I1
ssg71
g4732
sg64
(lp4739
S'/admin/default/design/IIIT_calendars'
p4740
asbasbasbag57
(g73
g59
NtRp4741
(dp4742
g62
(dp4743
sg71
g4699
sg64
(lp4744
g57
(g78
g59
NtRp4745
(dp4746
g62
(dp4747
sg71
g4741
sg64
(lp4748
g57
(g58
g59
NtRp4749
(dp4750
g62
(dp4751
g70
I1
ssg71
g4745
sg64
(lp4752
(lp4753
(g4516
(S's\n\x00\x00\x00Controller'
tRp4754
I00
S'/admin/default/edit/IIIT_calendars/controllers/default.py'
tp4755
a(g4516
(S's\x04\x00\x00\x00View'
tRp4756
I00
S'/admin/default/edit/IIIT_calendars/views/default/formedit.html'
tp4757
a(g4516
(S's\x06\x00\x00\x00Layout'
tRp4758
I00
S'/admin/default/edit/IIIT_calendars/views/layout.html'
tp4759
a(g4516
(S's\n\x00\x00\x00Stylesheet'
tRp4760
I00
S'/admin/default/edit/IIIT_calendars/static/css/web2py.css'
tp4761
a(g4516
(S's\x08\x00\x00\x00DB Model'
tRp4762
I00
S'/admin/default/edit/IIIT_calendars/models/db.py'
tp4763
a(g4516
(S's\n\x00\x00\x00Menu Model'
tRp4764
I00
S'/admin/default/edit/IIIT_calendars/models/menu.py'
tp4765
a(g4516
(S's\x08\x00\x00\x00Database'
tRp4766
I00
S'/IIIT_calendars/appadmin/index'
tp4767
a(g4516
(S's\x06\x00\x00\x00Errors'
tRp4768
I00
S'/admin/default/errors/IIIT_calendars'
tp4769
a(g4516
(S's\x05\x00\x00\x00About'
tRp4770
I00
S'/admin/default/about/IIIT_calendars'
tp4771
aasbasbasbasbasbasbasbag57
(g73
g59
NtRp4772
(dp4773
g62
(dp4774
sg71
g4629
sg64
(lp4775
g57
(g78
g59
NtRp4776
(dp4777
g62
(dp4778
sg71
g4772
sg64
(lp4779
g57
(g58
g59
NtRp4780
(dp4781
g62
(dp4782
g70
I2
ssg71
g4776
sg64
(lp4783
g57
(g66
g59
NtRp4784
(dp4785
g62
(dp4786
g70
I1
ssg71
Nsg64
(lp4787
g57
(g73
g59
NtRp4788
(dp4789
g62
(dp4790
sg71
g4784
sg64
(lp4791
g57
(g78
g59
NtRp4792
(dp4793
g62
(dp4794
sg71
g4788
sg64
(lp4795
g57
(g58
g59
NtRp4796
(dp4797
g62
(dp4798
g70
I1
ssg71
g4792
sg64
(lp4799
S'web2py.com'
p4800
asbasbasbag57
(g73
g59
NtRp4801
(dp4802
g62
(dp4803
sg71
g4784
sg64
(lp4804
g57
(g78
g59
NtRp4805
(dp4806
g62
(dp4807
sg71
g4801
sg64
(lp4808
g57
(g58
g59
NtRp4809
(dp4810
g62
(dp4811
g70
I1
ssg71
g4805
sg64
(lp4812
I00
asbasbasbag57
(g73
g59
NtRp4813
(dp4814
g62
(dp4815
sg71
g4784
sg64
(lp4816
g57
(g78
g59
NtRp4817
(dp4818
g62
(dp4819
sg71
g4813
sg64
(lp4820
g57
(g58
g59
NtRp4821
(dp4822
g62
(dp4823
g70
I1
ssg71
g4817
sg64
(lp4824
S'http://www.web2py.com'
p4825
asbasbasbag57
(g73
g59
NtRp4826
(dp4827
g62
(dp4828
sg71
g4784
sg64
(lp4829
g57
(g78
g59
NtRp4830
(dp4831
g62
(dp4832
sg71
g4826
sg64
(lp4833
g57
(g58
g59
NtRp4834
(dp4835
g62
(dp4836
g70
I1
ssg71
g4830
sg64
(lp4837
(lp4838
(g4516
(S's\x08\x00\x00\x00Download'
tRp4839
I00
S'http://www.web2py.com/examples/default/download'
p4840
tp4841
a(g4516
(S's\x07\x00\x00\x00Support'
tRp4842
I00
S'http://www.web2py.com/examples/default/support'
p4843
tp4844
a(g4516
(S's\x04\x00\x00\x00Demo'
tRp4845
I00
S'http://web2py.com/demo_admin'
p4846
tp4847
a(g4516
(S's\x0e\x00\x00\x00Quick Examples'
tRp4848
I00
S'http://web2py.com/examples/default/examples'
p4849
tp4850
a(g4516
(S's\x03\x00\x00\x00FAQ'
tRp4851
I00
S'http://web2py.com/AlterEgo'
p4852
tp4853
a(g4516
(S's\x06\x00\x00\x00Videos'
tRp4854
I00
S'http://www.web2py.com/examples/default/videos/'
p4855
tp4856
a(g4516
(S's\x11\x00\x00\x00Free Applications'
tRp4857
I00
S'http://web2py.com/appliances'
p4858
tp4859
a(g4516
(S's\x07\x00\x00\x00Plugins'
tRp4860
I00
S'http://web2py.com/plugins'
p4861
tp4862
a(g4516
(S's\x07\x00\x00\x00Layouts'
tRp4863
I00
S'http://web2py.com/layouts'
p4864
tp4865
a(g4516
(S's\x07\x00\x00\x00Recipes'
tRp4866
I00
S'http://web2pyslices.com/'
p4867
tp4868
a(g4516
(S's\x08\x00\x00\x00Semantic'
tRp4869
I00
S'http://web2py.com/semantic'
p4870
tp4871
aasbasbasbasbasbasbasbag57
(g73
g59
NtRp4872
(dp4873
g62
(dp4874
sg71
g4629
sg64
(lp4875
g57
(g78
g59
NtRp4876
(dp4877
g62
(dp4878
sg71
g4872
sg64
(lp4879
g57
(g58
g59
NtRp4880
(dp4881
g62
(dp4882
g70
I2
ssg71
g4876
sg64
(lp4883
g57
(g66
g59
NtRp4884
(dp4885
g62
(dp4886
g70
I1
ssg71
Nsg64
(lp4887
g57
(g73
g59
NtRp4888
(dp4889
g62
(dp4890
sg71
g4884
sg64
(lp4891
g57
(g78
g59
NtRp4892
(dp4893
g62
(dp4894
sg71
g4888
sg64
(lp4895
g57
(g58
g59
NtRp4896
(dp4897
g62
(dp4898
g70
I1
ssg71
g4892
sg64
(lp4899
g4516
(S's\r\x00\x00\x00Documentation'
tRp4900
asbasbasbag57
(g73
g59
NtRp4901
(dp4902
g62
(dp4903
sg71
g4884
sg64
(lp4904
g57
(g78
g59
NtRp4905
(dp4906
g62
(dp4907
sg71
g4901
sg64
(lp4908
g57
(g58
g59
NtRp4909
(dp4910
g62
(dp4911
g70
I1
ssg71
g4905
sg64
(lp4912
I00
asbasbasbag57
(g73
g59
NtRp4913
(dp4914
g62
(dp4915
sg71
g4884
sg64
(lp4916
g57
(g78
g59
NtRp4917
(dp4918
g62
(dp4919
sg71
g4913
sg64
(lp4920
g57
(g58
g59
NtRp4921
(dp4922
g62
(dp4923
g70
I1
ssg71
g4917
sg64
(lp4924
S'http://www.web2py.com/book'
p4925
asbasbasbag57
(g73
g59
NtRp4926
(dp4927
g62
(dp4928
sg71
g4884
sg64
(lp4929
g57
(g78
g59
NtRp4930
(dp4931
g62
(dp4932
sg71
g4926
sg64
(lp4933
g57
(g58
g59
NtRp4934
(dp4935
g62
(dp4936
g70
I1
ssg71
g4930
sg64
(lp4937
(lp4938
(g4516
(S's\x07\x00\x00\x00Preface'
tRp4939
I00
S'http://www.web2py.com/book/default/chapter/00'
p4940
tp4941
a(g4516
(S's\x0c\x00\x00\x00Introduction'
tRp4942
I00
S'http://www.web2py.com/book/default/chapter/01'
p4943
tp4944
a(g4516
(S's\x06\x00\x00\x00Python'
tRp4945
I00
S'http://www.web2py.com/book/default/chapter/02'
p4946
tp4947
a(g4516
(S's\x08\x00\x00\x00Overview'
tRp4948
I00
S'http://www.web2py.com/book/default/chapter/03'
p4949
tp4950
a(g4516
(S's\x08\x00\x00\x00The Core'
tRp4951
I00
S'http://www.web2py.com/book/default/chapter/04'
p4952
tp4953
a(g4516
(S's\t\x00\x00\x00The Views'
tRp4954
I00
S'http://www.web2py.com/book/default/chapter/05'
p4955
tp4956
a(g4516
(S's\x08\x00\x00\x00Database'
tRp4957
I00
S'http://www.web2py.com/book/default/chapter/06'
p4958
tp4959
a(g4516
(S's\x14\x00\x00\x00Forms and Validators'
tRp4960
I00
S'http://www.web2py.com/book/default/chapter/07'
p4961
tp4962
a(g4516
(S's\r\x00\x00\x00Email and SMS'
tRp4963
I00
S'http://www.web2py.com/book/default/chapter/08'
p4964
tp4965
a(g4516
(S's\x0e\x00\x00\x00Access Control'
tRp4966
I00
S'http://www.web2py.com/book/default/chapter/09'
p4967
tp4968
a(g4516
(S's\x08\x00\x00\x00Services'
tRp4969
I00
S'http://www.web2py.com/book/default/chapter/10'
p4970
tp4971
a(g4516
(S's\x0c\x00\x00\x00Ajax Recipes'
tRp4972
I00
S'http://www.web2py.com/book/default/chapter/11'
p4973
tp4974
a(g4516
(S's\x16\x00\x00\x00Components and Plugins'
tRp4975
I00
S'http://www.web2py.com/book/default/chapter/12'
p4976
tp4977
a(g4516
(S's\x12\x00\x00\x00Deployment Recipes'
tRp4978
I00
S'http://www.web2py.com/book/default/chapter/13'
p4979
tp4980
a(g4516
(S's\r\x00\x00\x00Other Recipes'
tRp4981
I00
S'http://www.web2py.com/book/default/chapter/14'
p4982
tp4983
a(g4516
(S's\r\x00\x00\x00Buy this book'
tRp4984
I00
S'http://stores.lulu.com/web2py'
p4985
tp4986
aasbasbasbasbasbasbasbag57
(g73
g59
NtRp4987
(dp4988
g62
(dp4989
sg71
g4629
sg64
(lp4990
g57
(g78
g59
NtRp4991
(dp4992
g62
(dp4993
sg71
g4987
sg64
(lp4994
g57
(g58
g59
NtRp4995
(dp4996
g62
(dp4997
g70
I2
ssg71
g4991
sg64
(lp4998
g57
(g66
g59
NtRp4999
(dp5000
g62
(dp5001
g70
I1
ssg71
Nsg64
(lp5002
g57
(g73
g59
NtRp5003
(dp5004
g62
(dp5005
sg71
g4999
sg64
(lp5006
g57
(g78
g59
NtRp5007
(dp5008
g62
(dp5009
sg71
g5003
sg64
(lp5010
g57
(g58
g59
NtRp5011
(dp5012
g62
(dp5013
g70
I1
ssg71
g5007
sg64
(lp5014
g4516
(S's\t\x00\x00\x00Community'
tRp5015
asbasbasbag57
(g73
g59
NtRp5016
(dp5017
g62
(dp5018
sg71
g4999
sg64
(lp5019
g57
(g78
g59
NtRp5020
(dp5021
g62
(dp5022
sg71
g5016
sg64
(lp5023
g57
(g58
g59
NtRp5024
(dp5025
g62
(dp5026
g70
I1
ssg71
g5020
sg64
(lp5027
I00
asbasbasbag57
(g73
g59
NtRp5028
(dp5029
g62
(dp5030
sg71
g4999
sg64
(lp5031
g57
(g78
g59
NtRp5032
(dp5033
g62
(dp5034
sg71
g5028
sg64
(lp5035
g57
(g58
g59
NtRp5036
(dp5037
g62
(dp5038
g70
I1
ssg71
g5032
sg64
(lp5039
Nasbasbasbag57
(g73
g59
NtRp5040
(dp5041
g62
(dp5042
sg71
g4999
sg64
(lp5043
g57
(g78
g59
NtRp5044
(dp5045
g62
(dp5046
sg71
g5040
sg64
(lp5047
g57
(g58
g59
NtRp5048
(dp5049
g62
(dp5050
g70
I1
ssg71
g5044
sg64
(lp5051
(lp5052
(g4516
(S's\x06\x00\x00\x00Groups'
tRp5053
I00
S'http://www.web2py.com/examples/default/usergroups'
p5054
tp5055
a(g4516
(S's\x07\x00\x00\x00Twitter'
tRp5056
I00
S'http://twitter.com/web2py'
p5057
tp5058
a(g4516
(S's\t\x00\x00\x00Live Chat'
tRp5059
I00
S'http://webchat.freenode.net/?channels=web2py'
p5060
tp5061
aasbasbasbasbasbasbasbag57
(g73
g59
NtRp5062
(dp5063
g62
(dp5064
sg71
g4629
sg64
(lp5065
g57
(g78
g59
NtRp5066
(dp5067
g62
(dp5068
sg71
g5062
sg64
(lp5069
g57
(g58
g59
NtRp5070
(dp5071
g62
(dp5072
g70
I2
ssg71
g5066
sg64
(lp5073
g57
(g66
g59
NtRp5074
(dp5075
g62
(dp5076
g70
I1
ssg71
Nsg64
(lp5077
g57
(g73
g59
NtRp5078
(dp5079
g62
(dp5080
sg71
g5074
sg64
(lp5081
g57
(g78
g59
NtRp5082
(dp5083
g62
(dp5084
sg71
g5078
sg64
(lp5085
g57
(g58
g59
NtRp5086
(dp5087
g62
(dp5088
g70
I1
ssg71
g5082
sg64
(lp5089
g4516
(S's\x07\x00\x00\x00Plugins'
tRp5090
asbasbasbag57
(g73
g59
NtRp5091
(dp5092
g62
(dp5093
sg71
g5074
sg64
(lp5094
g57
(g78
g59
NtRp5095
(dp5096
g62
(dp5097
sg71
g5091
sg64
(lp5098
g57
(g58
g59
NtRp5099
(dp5100
g62
(dp5101
g70
I1
ssg71
g5095
sg64
(lp5102
I00
asbasbasbag57
(g73
g59
NtRp5103
(dp5104
g62
(dp5105
sg71
g5074
sg64
(lp5106
g57
(g78
g59
NtRp5107
(dp5108
g62
(dp5109
sg71
g5103
sg64
(lp5110
g57
(g58
g59
NtRp5111
(dp5112
g62
(dp5113
g70
I1
ssg71
g5107
sg64
(lp5114
Nasbasbasbag57
(g73
g59
NtRp5115
(dp5116
g62
(dp5117
sg71
g5074
sg64
(lp5118
g57
(g78
g59
NtRp5119
(dp5120
g62
(dp5121
sg71
g5115
sg64
(lp5122
g57
(g58
g59
NtRp5123
(dp5124
g62
(dp5125
g70
I1
ssg71
g5119
sg64
(lp5126
(lp5127
(S'plugin_wiki'
p5128
I00
S'http://web2py.com/examples/default/download'
p5129
tp5130
a(g4516
(S's\r\x00\x00\x00Other Plugins'
tRp5131
I00
g4861
tp5132
a(g4516
(S's\x0e\x00\x00\x00Layout Plugins'
tRp5133
I00
g4864
tp5134
aasbasbasbasbasbasbasbasbasbasbasbasbasbasbasbasbasbasbasbag57
(g73
g59
NtRp5135
(dp5136
g62
(dp5137
sg71
g3878
sg64
(lp5138
g57
(g78
g59
NtRp5139
(dp5140
g62
(dp5141
g82
g83
ssg71
g5135
sg64
(lp5142
S'meta'
p5143
asbag57
(g78
g59
NtRp5144
(dp5145
g62
(dp5146
g89
g90
ssg71
g5135
sg64
(lp5147
S':'
asbag57
(g78
g59
NtRp5148
(dp5149
g62
(dp5150
sg71
g5135
sg64
(lp5151
g57
(g58
g59
NtRp5152
(dp5153
g62
(dp5154
g70
I5
ssg71
g5148
sg64
(lp5155
g57
(g66
g59
NtRp5156
(dp5157
g62
(dp5158
g70
I4
ssg71
Nsg64
(lp5159
g57
(g73
g59
NtRp5160
(dp5161
g62
(dp5162
sg71
g5156
sg64
(lp5163
g57
(g78
g59
NtRp5164
(dp5165
g62
(dp5166
g82
g83
ssg71
g5160
sg64
(lp5167
S'author'
p5168
asbag57
(g78
g59
NtRp5169
(dp5170
g62
(dp5171
g89
g90
ssg71
g5160
sg64
(lp5172
S':'
asbag57
(g78
g59
NtRp5173
(dp5174
g62
(dp5175
sg71
g5160
sg64
(lp5176
g57
(g58
g59
NtRp5177
(dp5178
g62
(dp5179
g70
I4
ssg71
g5173
sg64
(lp5180
S'Your Name <you@example.com>'
p5181
asbasbasbag57
(g73
g59
NtRp5182
(dp5183
g62
(dp5184
sg71
g5156
sg64
(lp5185
g57
(g78
g59
NtRp5186
(dp5187
g62
(dp5188
g82
g83
ssg71
g5182
sg64
(lp5189
S'description'
p5190
asbag57
(g78
g59
NtRp5191
(dp5192
g62
(dp5193
g89
g90
ssg71
g5182
sg64
(lp5194
S':'
asbag57
(g78
g59
NtRp5195
(dp5196
g62
(dp5197
sg71
g5182
sg64
(lp5198
g57
(g58
g59
NtRp5199
(dp5200
g62
(dp5201
g70
I4
ssg71
g5195
sg64
(lp5202
S'a cool new app'
p5203
asbasbasbag57
(g73
g59
NtRp5204
(dp5205
g62
(dp5206
sg71
g5156
sg64
(lp5207
g57
(g78
g59
NtRp5208
(dp5209
g62
(dp5210
g82
g83
ssg71
g5204
sg64
(lp5211
S'generator'
p5212
asbag57
(g78
g59
NtRp5213
(dp5214
g62
(dp5215
g89
g90
ssg71
g5204
sg64
(lp5216
S':'
asbag57
(g78
g59
NtRp5217
(dp5218
g62
(dp5219
sg71
g5204
sg64
(lp5220
g57
(g58
g59
NtRp5221
(dp5222
g62
(dp5223
g70
I4
ssg71
g5217
sg64
(lp5224
S'Web2py Web Framework'
p5225
asbasbasbag57
(g73
g59
NtRp5226
(dp5227
g62
(dp5228
sg71
g5156
sg64
(lp5229
g57
(g78
g59
NtRp5230
(dp5231
g62
(dp5232
g82
g83
ssg71
g5226
sg64
(lp5233
S'keywords'
p5234
asbag57
(g78
g59
NtRp5235
(dp5236
g62
(dp5237
g89
g90
ssg71
g5226
sg64
(lp5238
S':'
asbag57
(g78
g59
NtRp5239
(dp5240
g62
(dp5241
sg71
g5226
sg64
(lp5242
g57
(g58
g59
NtRp5243
(dp5244
g62
(dp5245
g70
I4
ssg71
g5239
sg64
(lp5246
S'web2py, python, framework'
p5247
asbasbasbasbasbasbasbag57
(g73
g59
NtRp5248
(dp5249
g62
(dp5250
sg71
g3878
sg64
(lp5251
g57
(g78
g59
NtRp5252
(dp5253
g62
(dp5254
g82
g83
ssg71
g5248
sg64
(lp5255
S'models_to_run'
p5256
asbag57
(g78
g59
NtRp5257
(dp5258
g62
(dp5259
g89
g90
ssg71
g5248
sg64
(lp5260
S':'
asbag57
(g78
g59
NtRp5261
(dp5262
g62
(dp5263
sg71
g5248
sg64
(lp5264
g57
(g58
g59
NtRp5265
(dp5266
g62
(dp5267
g70
I5
ssg71
g5261
sg64
(lp5268
g57
(g66
g59
NtRp5269
(dp5270
g62
(dp5271
g70
I4
ssg71
Nsg64
(lp5272
g57
(g73
g59
NtRp5273
(dp5274
g62
(dp5275
sg71
g5269
sg64
(lp5276
g57
(g78
g59
NtRp5277
(dp5278
g62
(dp5279
sg71
g5273
sg64
(lp5280
g57
(g58
g59
NtRp5281
(dp5282
g62
(dp5283
g70
I4
ssg71
g5277
sg64
(lp5284
S'^\\w+\\.py$'
p5285
asbasbasbag57
(g73
g59
NtRp5286
(dp5287
g62
(dp5288
sg71
g5269
sg64
(lp5289
g57
(g78
g59
NtRp5290
(dp5291
g62
(dp5292
sg71
g5286
sg64
(lp5293
g57
(g58
g59
NtRp5294
(dp5295
g62
(dp5296
g70
I4
ssg71
g5290
sg64
(lp5297
S'^default/\\w+\\.py$'
p5298
asbasbasbag57
(g73
g59
NtRp5299
(dp5300
g62
(dp5301
sg71
g5269
sg64
(lp5302
g57
(g78
g59
NtRp5303
(dp5304
g62
(dp5305
sg71
g5299
sg64
(lp5306
g57
(g58
g59
NtRp5307
(dp5308
g62
(dp5309
g70
I4
ssg71
g5303
sg64
(lp5310
S'^default/formedit/\\w+\\.py$'
p5311
asbasbasbasbasbasbasbag57
(g73
g59
NtRp5312
(dp5313
g62
(dp5314
sg71
g3878
sg64
(lp5315
g57
(g78
g59
NtRp5316
(dp5317
g62
(dp5318
g82
g83
ssg71
g5312
sg64
(lp5319
S'postprocessing'
p5320
asbag57
(g78
g59
NtRp5321
(dp5322
g62
(dp5323
g89
g90
ssg71
g5312
sg64
(lp5324
S':'
asbag57
(g78
g59
NtRp5325
(dp5326
g62
(dp5327
sg71
g5312
sg64
(lp5328
g57
(g58
g59
NtRp5329
(dp5330
g62
(dp5331
g70
I5
ssg71
g5325
sg64
(lp5332
g57
(g66
g59
NtRp5333
(dp5334
g62
(dp5335
g70
I4
ssg71
Nsg64
(lp5336
sbasbasbasbag57
(g73
g59
NtRp5337
(dp5338
g62
(dp5339
sg71
g3878
sg64
(lp5340
g57
(g78
g59
NtRp5341
(dp5342
g62
(dp5343
g82
g83
ssg71
g5337
sg64
(lp5344
S'session_cookie_expires'
p5345
asbag57
(g78
g59
NtRp5346
(dp5347
g62
(dp5348
g89
g90
ssg71
g5337
sg64
(lp5349
S':'
asbag57
(g78
g59
NtRp5350
(dp5351
g62
(dp5352
sg71
g5337
sg64
(lp5353
g57
(g58
g59
NtRp5354
(dp5355
g62
(dp5356
g70
I5
ssg71
g5350
sg64
(lp5357
S'None'
p5358
asbasbasbag57
(g73
g59
NtRp5359
(dp5360
g62
(dp5361
sg71
g3878
sg64
(lp5362
g57
(g78
g59
NtRp5363
(dp5364
g62
(dp5365
g82
g83
ssg71
g5359
sg64
(lp5366
S'session_data_name'
p5367
asbag57
(g78
g59
NtRp5368
(dp5369
g62
(dp5370
g89
g90
ssg71
g5359
sg64
(lp5371
S':'
asbag57
(g78
g59
NtRp5372
(dp5373
g62
(dp5374
sg71
g5359
sg64
(lp5375
g57
(g58
g59
NtRp5376
(dp5377
g62
(dp5378
g70
I5
ssg71
g5372
sg64
(lp5379
S'session_data_iiit_calendars'
p5380
asbasbasbag57
(g73
g59
NtRp5381
(dp5382
g62
(dp5383
sg71
g3878
sg64
(lp5384
g57
(g78
g59
NtRp5385
(dp5386
g62
(dp5387
g82
g83
ssg71
g5381
sg64
(lp5388
S'session_file'
p5389
asbag57
(g78
g59
NtRp5390
(dp5391
g62
(dp5392
g89
g90
ssg71
g5381
sg64
(lp5393
S':'
asbag57
(g78
g59
NtRp5394
(dp5395
g62
(dp5396
sg71
g5381
sg64
(lp5397
g57
(g58
g59
NtRp5398
(dp5399
g62
(dp5400
g70
I5
ssg71
g5394
sg64
(lp5401
S"<open file '/home/simran/web2py/applications/IIIT_calendars/sessions/127.0.0.1-b512d376-91dc-477e-99ca-2b27d7ad4a7a', mode 'rb+' at 0x7f6fe016a930>"
p5402
asbasbasbag57
(g73
g59
NtRp5403
(dp5404
g62
(dp5405
sg71
g3878
sg64
(lp5406
g57
(g78
g59
NtRp5407
(dp5408
g62
(dp5409
g82
g83
ssg71
g5403
sg64
(lp5410
S'session_filename'
p5411
asbag57
(g78
g59
NtRp5412
(dp5413
g62
(dp5414
g89
g90
ssg71
g5403
sg64
(lp5415
S':'
asbag57
(g78
g59
NtRp5416
(dp5417
g62
(dp5418
sg71
g5403
sg64
(lp5419
g57
(g58
g59
NtRp5420
(dp5421
g62
(dp5422
g70
I5
ssg71
g5416
sg64
(lp5423
S'/home/simran/web2py/applications/IIIT_calendars/sessions/127.0.0.1-b512d376-91dc-477e-99ca-2b27d7ad4a7a'
p5424
asbasbasbag57
(g73
g59
NtRp5425
(dp5426
g62
(dp5427
sg71
g3878
sg64
(lp5428
g57
(g78
g59
NtRp5429
(dp5430
g62
(dp5431
g82
g83
ssg71
g5425
sg64
(lp5432
S'session_id'
p5433
asbag57
(g78
g59
NtRp5434
(dp5435
g62
(dp5436
g89
g90
ssg71
g5425
sg64
(lp5437
S':'
asbag57
(g78
g59
NtRp5438
(dp5439
g62
(dp5440
sg71
g5425
sg64
(lp5441
g57
(g58
g59
NtRp5442
(dp5443
g62
(dp5444
g70
I5
ssg71
g5438
sg64
(lp5445
g475
asbasbasbag57
(g73
g59
NtRp5446
(dp5447
g62
(dp5448
sg71
g3878
sg64
(lp5449
g57
(g78
g59
NtRp5450
(dp5451
g62
(dp5452
g82
g83
ssg71
g5446
sg64
(lp5453
S'session_id_name'
p5454
asbag57
(g78
g59
NtRp5455
(dp5456
g62
(dp5457
g89
g90
ssg71
g5446
sg64
(lp5458
S':'
asbag57
(g78
g59
NtRp5459
(dp5460
g62
(dp5461
sg71
g5446
sg64
(lp5462
g57
(g58
g59
NtRp5463
(dp5464
g62
(dp5465
g70
I5
ssg71
g5459
sg64
(lp5466
g3935
asbasbasbag57
(g73
g59
NtRp5467
(dp5468
g62
(dp5469
sg71
g3878
sg64
(lp5470
g57
(g78
g59
NtRp5471
(dp5472
g62
(dp5473
g82
g83
ssg71
g5467
sg64
(lp5474
S'session_locked'
p5475
asbag57
(g78
g59
NtRp5476
(dp5477
g62
(dp5478
g89
g90
ssg71
g5467
sg64
(lp5479
S':'
asbag57
(g78
g59
NtRp5480
(dp5481
g62
(dp5482
sg71
g5467
sg64
(lp5483
g57
(g58
g59
NtRp5484
(dp5485
g62
(dp5486
g70
I5
ssg71
g5480
sg64
(lp5487
g1935
asbasbasbag57
(g73
g59
NtRp5488
(dp5489
g62
(dp5490
sg71
g3878
sg64
(lp5491
g57
(g78
g59
NtRp5492
(dp5493
g62
(dp5494
g82
g83
ssg71
g5488
sg64
(lp5495
S'session_new'
p5496
asbag57
(g78
g59
NtRp5497
(dp5498
g62
(dp5499
g89
g90
ssg71
g5488
sg64
(lp5500
S':'
asbag57
(g78
g59
NtRp5501
(dp5502
g62
(dp5503
sg71
g5488
sg64
(lp5504
g57
(g58
g59
NtRp5505
(dp5506
g62
(dp5507
g70
I5
ssg71
g5501
sg64
(lp5508
g100
asbasbasbag57
(g73
g59
NtRp5509
(dp5510
g62
(dp5511
sg71
g3878
sg64
(lp5512
g57
(g78
g59
NtRp5513
(dp5514
g62
(dp5515
g82
g83
ssg71
g5509
sg64
(lp5516
S'session_storage_type'
p5517
asbag57
(g78
g59
NtRp5518
(dp5519
g62
(dp5520
g89
g90
ssg71
g5509
sg64
(lp5521
S':'
asbag57
(g78
g59
NtRp5522
(dp5523
g62
(dp5524
sg71
g5509
sg64
(lp5525
g57
(g58
g59
NtRp5526
(dp5527
g62
(dp5528
g70
I5
ssg71
g5522
sg64
(lp5529
g3386
asbasbasbag57
(g73
g59
NtRp5530
(dp5531
g62
(dp5532
sg71
g3878
sg64
(lp5533
g57
(g78
g59
NtRp5534
(dp5535
g62
(dp5536
g82
g83
ssg71
g5530
sg64
(lp5537
S'status'
p5538
asbag57
(g78
g59
NtRp5539
(dp5540
g62
(dp5541
g89
g90
ssg71
g5530
sg64
(lp5542
S':'
asbag57
(g78
g59
NtRp5543
(dp5544
g62
(dp5545
sg71
g5530
sg64
(lp5546
g57
(g58
g59
NtRp5547
(dp5548
g62
(dp5549
g70
I5
ssg71
g5543
sg64
(lp5550
S'200'
p5551
asbasbasbag57
(g73
g59
NtRp5552
(dp5553
g62
(dp5554
sg71
g3878
sg64
(lp5555
g57
(g78
g59
NtRp5556
(dp5557
g62
(dp5558
g82
g83
ssg71
g5552
sg64
(lp5559
S'subtitle'
p5560
asbag57
(g78
g59
NtRp5561
(dp5562
g62
(dp5563
g89
g90
ssg71
g5552
sg64
(lp5564
S':'
asbag57
(g78
g59
NtRp5565
(dp5566
g62
(dp5567
sg71
g5552
sg64
(lp5568
g57
(g58
g59
NtRp5569
(dp5570
g62
(dp5571
g70
I5
ssg71
g5565
sg64
(lp5572
g4516
(S's\r\x00\x00\x00customize me!'
tRp5573
asbasbasbag57
(g73
g59
NtRp5574
(dp5575
g62
(dp5576
sg71
g3878
sg64
(lp5577
g57
(g78
g59
NtRp5578
(dp5579
g62
(dp5580
g82
g83
ssg71
g5574
sg64
(lp5581
S'title'
p5582
asbag57
(g78
g59
NtRp5583
(dp5584
g62
(dp5585
g89
g90
ssg71
g5574
sg64
(lp5586
S':'
asbag57
(g78
g59
NtRp5587
(dp5588
g62
(dp5589
sg71
g5574
sg64
(lp5590
g57
(g58
g59
NtRp5591
(dp5592
g62
(dp5593
g70
I5
ssg71
g5587
sg64
(lp5594
S'Iiit Calendars'
p5595
asbasbasbag57
(g73
g59
NtRp5596
(dp5597
g62
(dp5598
sg71
g3878
sg64
(lp5599
g57
(g78
g59
NtRp5600
(dp5601
g62
(dp5602
g82
g83
ssg71
g5596
sg64
(lp5603
S'view'
p5604
asbag57
(g78
g59
NtRp5605
(dp5606
g62
(dp5607
g89
g90
ssg71
g5596
sg64
(lp5608
S':'
asbag57
(g78
g59
NtRp5609
(dp5610
g62
(dp5611
sg71
g5596
sg64
(lp5612
g57
(g58
g59
NtRp5613
(dp5614
g62
(dp5615
g70
I5
ssg71
g5609
sg64
(lp5616
S'default/formedit.html'
p5617
asbasbasbasbasbsS'locals'
p5618
(dp5619
S'i'
S"'Title'"
p5620
sS'self'
p5621
S'<Rows (1)>'
p5622
sssS'traceback'
p5623
S'Traceback (most recent call last):\n  File "/home/simran/web2py/gluon/restricted.py", line 212, in restricted\n    exec ccode in environment\n  File "/home/simran/web2py/applications/IIIT_calendars/views/default/formedit.html", line 71, in <module>\n  File "/home/simran/web2py/gluon/dal.py", line 9170, in __getitem__\n    row = self.records[i]\nTypeError: list indices must be integers, not str\n'
p5624
s.