(dp1
S'output'
p2
S"<type 'exceptions.TypeError'> int() argument must be a string or a number, not 'NoneType'"
p3
sS'layer'
p4
S'/home/simran/web2py/applications/IIIT_calendars/controllers/default.py'
p5
sS'code'
p6
S'# -*- coding: utf-8 -*-\n# this file is released under public domain and you can use without limitations\n\n#########################################################################\n## This is a samples controller\n## - index is the default action of any application\n## - user is required for authentication and authorization\n## - download is for downloading files uploaded in the db (does streaming)\n## - call exposes all registered services (none by default)\n#########################################################################\nimport os\nimport datetime\nimport fileinput\n@auth.requires_login()\ndef index():\n   \'auth\' in globals() \n   c=auth.user.id\n   if c==18:\n       redirect(URL(\'admin_op\'))\n   return locals()\n   \ndef calendar():\n    \'auth\' in globals()\n    c=request.args(0)\n    q=db(db.auth_user.id==int(c)).select(db.auth_user.first_name)\n    return locals()\n    \ndef user():\n    """\n    exposes:\n    http://..../[app]/default/user/login\n    http://..../[app]/default/user/logout\n    http://..../[app]/default/user/register\n    http://..../[app]/default/user/profile\n    http://..../[app]/default/user/retrieve_password\n    http://..../[app]/default/user/change_password\n    use @auth.requires_login()\n        @auth.requires_membership(\'group name\')\n        @auth.requires_permission(\'read\',\'table name\',record_id)\n    to decorate functions that need access control\n    """\n    return dict(form=auth())\n\n\ndef download():\n    """\n    allows downloading of uploaded files\n    http://..../[app]/default/download/[filename]\n    """\n    return response.download(request, db)\n\n\ndef call():\n    """\n    exposes services. for example:\n    http://..../[app]/default/call/jsonrpc\n    decorate with @services.jsonrpc the functions to expose\n    supports xml, json, xmlrpc, jsonrpc, amfrpc, rss, csv\n    """\n    return service()\n\n\n@auth.requires_signature()\ndef data():\n    """\n    http://..../[app]/default/data/tables\n    http://..../[app]/default/data/create/[table]\n    http://..../[app]/default/data/read/[table]/[id]\n    http://..../[app]/default/data/update/[table]/[id]\n    http://..../[app]/default/data/delete/[table]/[id]\n    http://..../[app]/default/data/select/[table]\n    http://..../[app]/default/data/search/[table]\n    but URLs must be signed, i.e. linked with\n      A(\'table\',_href=URL(\'data/tables\',user_signature=True))\n    or with the signed load operator\n      LOAD(\'default\',\'data.load\',args=\'tables\',ajax=True,user_signature=True)\n    """\n    return dict(form=crud())\n    \ndef add_events():\n    db.events.Nameofuser.default=auth.user.first_name\n    form=SQLFORM(db.events).process(next=URL(\'default\',\'index\'))\n    return locals()\n    \ndef add_tasks():\n    form=SQLFORM(db.tasks)\n    if form.process().accepted:\n        response.flash="Done"\n    return locals()\n    \ndef editeventdetails():\n    return locals()\n    \ndef edittaskdetails():\n    return locals()\n    \ndef edit_events2():\n    form = SQLFORM(db.events, request.vars.event)\n    if form.accepts(request.vars, session):\n        redirect("index")\n    elif form.errors:\n        response.flash = "temp"\n    return dict(form=form)\n\ndef delete_eventdetails():\n    return locals()\n\ndef delete_event():\n    c=request.vars.event\n    db(db.events.Title==c).delete()\n    return\ndef admin_op():\n    c=auth.user.first_name\n    p=db(db.auth_user.id!=18).select(db.auth_user.first_name,db.auth_user.id)\n    return locals()\n\n#def edit_events():\n #  c=request.post_vars\n  #  print"c: ", c\n   # p=db(db.events.Title==request.post_vars.event).select().first()\n    #    form = SQLFORM(db.events, i.id)\n     #   if form.accepts(request.vars,session):\n      #      redirect(URL(\'index\'))\n       # elif form.errors:\n        #    response.flash=\'Errors in form\'\n    #return dict(form=form)\n\ndef add_adminevents():\n    form=SQLFORM(db.admin_events).process(next=URL(\'default\',\'admin_op\'))\n    return locals()\n    \ndef editadmineventdetails():\n    return locals()\n    \ndef printn():\n\treturn locals()\n\nresponse._vars=response._caller(calendar)\n'
p7
sS'snapshot'
p8
(dp9
S'exception'
p10
(dp11
S'__hash__'
p12
S"<method-wrapper '__hash__' of exceptions.TypeError object>"
p13
sS'__setattr__'
p14
S"<method-wrapper '__setattr__' of exceptions.TypeError object>"
p15
sS'__reduce_ex__'
p16
S'<built-in method __reduce_ex__ of exceptions.TypeError object>'
p17
sS'__getslice__'
p18
S"<method-wrapper '__getslice__' of exceptions.TypeError object>"
p19
sS'__getitem__'
p20
S"<method-wrapper '__getitem__' of exceptions.TypeError object>"
p21
sS'__setstate__'
p22
S'<built-in method __setstate__ of exceptions.TypeError object>'
p23
sS'args'
p24
S'("int() argument must be a string or a number, not \'NoneType\'",)'
p25
sS'__reduce__'
p26
S'<built-in method __reduce__ of exceptions.TypeError object>'
p27
sS'__str__'
p28
S"<method-wrapper '__str__' of exceptions.TypeError object>"
p29
sS'__format__'
p30
S'<built-in method __format__ of exceptions.TypeError object>'
p31
sS'__getattribute__'
p32
S"<method-wrapper '__getattribute__' of exceptions.TypeError object>"
p33
sS'__class__'
p34
S"<type 'exceptions.TypeError'>"
p35
sS'__unicode__'
p36
S'<built-in method __unicode__ of exceptions.TypeError object>'
p37
sS'__delattr__'
p38
S"<method-wrapper '__delattr__' of exceptions.TypeError object>"
p39
sS'__subclasshook__'
p40
S'<built-in method __subclasshook__ of type object>'
p41
sS'__repr__'
p42
S"<method-wrapper '__repr__' of exceptions.TypeError object>"
p43
sS'__dict__'
p44
S'{}'
p45
sS'__sizeof__'
p46
S'<built-in method __sizeof__ of exceptions.TypeError object>'
p47
sS'__doc__'
p48
S"'Inappropriate argument type.'"
p49
sS'__init__'
p50
S"<method-wrapper '__init__' of exceptions.TypeError object>"
p51
sS'__new__'
p52
S'<built-in method __new__ of type object>'
p53
ssS'evalue'
p54
S"int() argument must be a string or a number, not 'NoneType'"
p55
sS'request'
p56
ccopy_reg
_reconstructor
p57
(cgluon.html
BEAUTIFY
p58
c__builtin__
object
p59
NtRp60
(dp61
S'attributes'
p62
(dp63
sS'components'
p64
(lp65
g57
(cgluon.html
TABLE
p66
g59
NtRp67
(dp68
g62
(dp69
S'level'
p70
I5
ssS'parent'
p71
Nsg64
(lp72
g57
(cgluon.html
TR
p73
g59
NtRp74
(dp75
g62
(dp76
sg71
g67
sg64
(lp77
g57
(cgluon.html
TD
p78
g59
NtRp79
(dp80
g62
(dp81
S'_style'
p82
S'font-weight:bold;vertical-align:top'
p83
ssg71
g74
sg64
(lp84
S'ajax'
p85
asbag57
(g78
g59
NtRp86
(dp87
g62
(dp88
S'_valign'
p89
S'top'
p90
ssg71
g74
sg64
(lp91
S':'
asbag57
(g78
g59
NtRp92
(dp93
g62
(dp94
sg71
g74
sg64
(lp95
g57
(g58
g59
NtRp96
(dp97
g62
(dp98
g70
I5
ssg71
g92
sg64
(lp99
S'False'
p100
asbasbasbag57
(g73
g59
NtRp101
(dp102
g62
(dp103
sg71
g67
sg64
(lp104
g57
(g78
g59
NtRp105
(dp106
g62
(dp107
g82
g83
ssg71
g101
sg64
(lp108
S'application'
p109
asbag57
(g78
g59
NtRp110
(dp111
g62
(dp112
g89
g90
ssg71
g101
sg64
(lp113
S':'
asbag57
(g78
g59
NtRp114
(dp115
g62
(dp116
sg71
g101
sg64
(lp117
g57
(g58
g59
NtRp118
(dp119
g62
(dp120
g70
I5
ssg71
g114
sg64
(lp121
S'IIIT_calendars'
p122
asbasbasbag57
(g73
g59
NtRp123
(dp124
g62
(dp125
sg71
g67
sg64
(lp126
g57
(g78
g59
NtRp127
(dp128
g62
(dp129
g82
g83
ssg71
g123
sg64
(lp130
g24
asbag57
(g78
g59
NtRp131
(dp132
g62
(dp133
g89
g90
ssg71
g123
sg64
(lp134
S':'
asbag57
(g78
g59
NtRp135
(dp136
g62
(dp137
sg71
g123
sg64
(lp138
g57
(g58
g59
NtRp139
(dp140
g62
(dp141
g70
I5
ssg71
g135
sg64
(lp142
g57
(g66
g59
NtRp143
(dp144
g62
(dp145
g70
I4
ssg71
Nsg64
(lp146
sbasbasbasbag57
(g73
g59
NtRp147
(dp148
g62
(dp149
sg71
g67
sg64
(lp150
g57
(g78
g59
NtRp151
(dp152
g62
(dp153
g82
g83
ssg71
g147
sg64
(lp154
S'body'
p155
asbag57
(g78
g59
NtRp156
(dp157
g62
(dp158
g89
g90
ssg71
g147
sg64
(lp159
S':'
asbag57
(g78
g59
NtRp160
(dp161
g62
(dp162
sg71
g147
sg64
(lp163
g57
(g58
g59
NtRp164
(dp165
g62
(dp166
g70
I5
ssg71
g160
sg64
(lp167
S'<cStringIO.StringO object at 0x7fd6ac0ad960>'
p168
asbasbasbag57
(g73
g59
NtRp169
(dp170
g62
(dp171
sg71
g67
sg64
(lp172
g57
(g78
g59
NtRp173
(dp174
g62
(dp175
g82
g83
ssg71
g169
sg64
(lp176
S'cid'
p177
asbag57
(g78
g59
NtRp178
(dp179
g62
(dp180
g89
g90
ssg71
g169
sg64
(lp181
S':'
asbag57
(g78
g59
NtRp182
(dp183
g62
(dp184
sg71
g169
sg64
(lp185
g57
(g58
g59
NtRp186
(dp187
g62
(dp188
g70
I5
ssg71
g182
sg64
(lp189
S'None'
p190
asbasbasbag57
(g73
g59
NtRp191
(dp192
g62
(dp193
sg71
g67
sg64
(lp194
g57
(g78
g59
NtRp195
(dp196
g62
(dp197
g82
g83
ssg71
g191
sg64
(lp198
S'client'
p199
asbag57
(g78
g59
NtRp200
(dp201
g62
(dp202
g89
g90
ssg71
g191
sg64
(lp203
S':'
asbag57
(g78
g59
NtRp204
(dp205
g62
(dp206
sg71
g191
sg64
(lp207
g57
(g58
g59
NtRp208
(dp209
g62
(dp210
g70
I5
ssg71
g204
sg64
(lp211
S'127.0.0.1'
p212
asbasbasbag57
(g73
g59
NtRp213
(dp214
g62
(dp215
sg71
g67
sg64
(lp216
g57
(g78
g59
NtRp217
(dp218
g62
(dp219
g82
g83
ssg71
g213
sg64
(lp220
S'controller'
p221
asbag57
(g78
g59
NtRp222
(dp223
g62
(dp224
g89
g90
ssg71
g213
sg64
(lp225
S':'
asbag57
(g78
g59
NtRp226
(dp227
g62
(dp228
sg71
g213
sg64
(lp229
g57
(g58
g59
NtRp230
(dp231
g62
(dp232
g70
I5
ssg71
g226
sg64
(lp233
S'default'
p234
asbasbasbag57
(g73
g59
NtRp235
(dp236
g62
(dp237
sg71
g67
sg64
(lp238
g57
(g78
g59
NtRp239
(dp240
g62
(dp241
g82
g83
ssg71
g235
sg64
(lp242
S'cookies'
p243
asbag57
(g78
g59
NtRp244
(dp245
g62
(dp246
g89
g90
ssg71
g235
sg64
(lp247
S':'
asbag57
(g78
g59
NtRp248
(dp249
g62
(dp250
sg71
g235
sg64
(lp251
g57
(g58
g59
NtRp252
(dp253
g62
(dp254
g70
I5
ssg71
g248
sg64
(lp255
g57
(g66
g59
NtRp256
(dp257
g62
(dp258
g70
I4
ssg71
Nsg64
(lp259
g57
(g73
g59
NtRp260
(dp261
g62
(dp262
sg71
g256
sg64
(lp263
g57
(g78
g59
NtRp264
(dp265
g62
(dp266
g82
g83
ssg71
g260
sg64
(lp267
S'session_id_admin'
p268
asbag57
(g78
g59
NtRp269
(dp270
g62
(dp271
g89
g90
ssg71
g260
sg64
(lp272
S':'
asbag57
(g78
g59
NtRp273
(dp274
g62
(dp275
sg71
g260
sg64
(lp276
g57
(g58
g59
NtRp277
(dp278
g62
(dp279
g70
I4
ssg71
g273
sg64
(lp280
S'127.0.0.1-bcfe86f7-6b2e-4746-8640-c56f94d5ddd1'
p281
ag57
(g66
g59
NtRp282
(dp283
g62
(dp284
g70
I3
ssg71
Nsg64
(lp285
g57
(g73
g59
NtRp286
(dp287
g62
(dp288
sg71
g282
sg64
(lp289
g57
(g78
g59
NtRp290
(dp291
g62
(dp292
g82
g83
ssg71
g286
sg64
(lp293
S'comment'
p294
asbag57
(g78
g59
NtRp295
(dp296
g62
(dp297
g89
g90
ssg71
g286
sg64
(lp298
S':'
asbag57
(g78
g59
NtRp299
(dp300
g62
(dp301
sg71
g286
sg64
(lp302
g57
(g58
g59
NtRp303
(dp304
g62
(dp305
g70
I3
ssg71
g299
sg64
(lp306
S''
asbasbasbag57
(g73
g59
NtRp307
(dp308
g62
(dp309
sg71
g282
sg64
(lp310
g57
(g78
g59
NtRp311
(dp312
g62
(dp313
g82
g83
ssg71
g307
sg64
(lp314
S'domain'
p315
asbag57
(g78
g59
NtRp316
(dp317
g62
(dp318
g89
g90
ssg71
g307
sg64
(lp319
S':'
asbag57
(g78
g59
NtRp320
(dp321
g62
(dp322
sg71
g307
sg64
(lp323
g57
(g58
g59
NtRp324
(dp325
g62
(dp326
g70
I3
ssg71
g320
sg64
(lp327
S''
asbasbasbag57
(g73
g59
NtRp328
(dp329
g62
(dp330
sg71
g282
sg64
(lp331
g57
(g78
g59
NtRp332
(dp333
g62
(dp334
g82
g83
ssg71
g328
sg64
(lp335
S'expires'
p336
asbag57
(g78
g59
NtRp337
(dp338
g62
(dp339
g89
g90
ssg71
g328
sg64
(lp340
S':'
asbag57
(g78
g59
NtRp341
(dp342
g62
(dp343
sg71
g328
sg64
(lp344
g57
(g58
g59
NtRp345
(dp346
g62
(dp347
g70
I3
ssg71
g341
sg64
(lp348
S''
asbasbasbag57
(g73
g59
NtRp349
(dp350
g62
(dp351
sg71
g282
sg64
(lp352
g57
(g78
g59
NtRp353
(dp354
g62
(dp355
g82
g83
ssg71
g349
sg64
(lp356
S'httponly'
p357
asbag57
(g78
g59
NtRp358
(dp359
g62
(dp360
g89
g90
ssg71
g349
sg64
(lp361
S':'
asbag57
(g78
g59
NtRp362
(dp363
g62
(dp364
sg71
g349
sg64
(lp365
g57
(g58
g59
NtRp366
(dp367
g62
(dp368
g70
I3
ssg71
g362
sg64
(lp369
S''
asbasbasbag57
(g73
g59
NtRp370
(dp371
g62
(dp372
sg71
g282
sg64
(lp373
g57
(g78
g59
NtRp374
(dp375
g62
(dp376
g82
g83
ssg71
g370
sg64
(lp377
S'max-age'
p378
asbag57
(g78
g59
NtRp379
(dp380
g62
(dp381
g89
g90
ssg71
g370
sg64
(lp382
S':'
asbag57
(g78
g59
NtRp383
(dp384
g62
(dp385
sg71
g370
sg64
(lp386
g57
(g58
g59
NtRp387
(dp388
g62
(dp389
g70
I3
ssg71
g383
sg64
(lp390
S''
asbasbasbag57
(g73
g59
NtRp391
(dp392
g62
(dp393
sg71
g282
sg64
(lp394
g57
(g78
g59
NtRp395
(dp396
g62
(dp397
g82
g83
ssg71
g391
sg64
(lp398
S'path'
p399
asbag57
(g78
g59
NtRp400
(dp401
g62
(dp402
g89
g90
ssg71
g391
sg64
(lp403
S':'
asbag57
(g78
g59
NtRp404
(dp405
g62
(dp406
sg71
g391
sg64
(lp407
g57
(g58
g59
NtRp408
(dp409
g62
(dp410
g70
I3
ssg71
g404
sg64
(lp411
S''
asbasbasbag57
(g73
g59
NtRp412
(dp413
g62
(dp414
sg71
g282
sg64
(lp415
g57
(g78
g59
NtRp416
(dp417
g62
(dp418
g82
g83
ssg71
g412
sg64
(lp419
S'secure'
p420
asbag57
(g78
g59
NtRp421
(dp422
g62
(dp423
g89
g90
ssg71
g412
sg64
(lp424
S':'
asbag57
(g78
g59
NtRp425
(dp426
g62
(dp427
sg71
g412
sg64
(lp428
g57
(g58
g59
NtRp429
(dp430
g62
(dp431
g70
I3
ssg71
g425
sg64
(lp432
S''
asbasbasbag57
(g73
g59
NtRp433
(dp434
g62
(dp435
sg71
g282
sg64
(lp436
g57
(g78
g59
NtRp437
(dp438
g62
(dp439
g82
g83
ssg71
g433
sg64
(lp440
S'version'
p441
asbag57
(g78
g59
NtRp442
(dp443
g62
(dp444
g89
g90
ssg71
g433
sg64
(lp445
S':'
asbag57
(g78
g59
NtRp446
(dp447
g62
(dp448
sg71
g433
sg64
(lp449
g57
(g58
g59
NtRp450
(dp451
g62
(dp452
g70
I3
ssg71
g446
sg64
(lp453
S''
asbasbasbasbasbasbasbag57
(g73
g59
NtRp454
(dp455
g62
(dp456
sg71
g256
sg64
(lp457
g57
(g78
g59
NtRp458
(dp459
g62
(dp460
g82
g83
ssg71
g454
sg64
(lp461
S'session_id_calendar'
p462
asbag57
(g78
g59
NtRp463
(dp464
g62
(dp465
g89
g90
ssg71
g454
sg64
(lp466
S':'
asbag57
(g78
g59
NtRp467
(dp468
g62
(dp469
sg71
g454
sg64
(lp470
g57
(g58
g59
NtRp471
(dp472
g62
(dp473
g70
I4
ssg71
g467
sg64
(lp474
S'127.0.0.1-bb2e05ae-a2de-4759-8bb0-f43d3ba7303f'
p475
ag57
(g66
g59
NtRp476
(dp477
g62
(dp478
g70
I3
ssg71
Nsg64
(lp479
g57
(g73
g59
NtRp480
(dp481
g62
(dp482
sg71
g476
sg64
(lp483
g57
(g78
g59
NtRp484
(dp485
g62
(dp486
g82
g83
ssg71
g480
sg64
(lp487
g294
asbag57
(g78
g59
NtRp488
(dp489
g62
(dp490
g89
g90
ssg71
g480
sg64
(lp491
S':'
asbag57
(g78
g59
NtRp492
(dp493
g62
(dp494
sg71
g480
sg64
(lp495
g57
(g58
g59
NtRp496
(dp497
g62
(dp498
g70
I3
ssg71
g492
sg64
(lp499
S''
asbasbasbag57
(g73
g59
NtRp500
(dp501
g62
(dp502
sg71
g476
sg64
(lp503
g57
(g78
g59
NtRp504
(dp505
g62
(dp506
g82
g83
ssg71
g500
sg64
(lp507
g315
asbag57
(g78
g59
NtRp508
(dp509
g62
(dp510
g89
g90
ssg71
g500
sg64
(lp511
S':'
asbag57
(g78
g59
NtRp512
(dp513
g62
(dp514
sg71
g500
sg64
(lp515
g57
(g58
g59
NtRp516
(dp517
g62
(dp518
g70
I3
ssg71
g512
sg64
(lp519
S''
asbasbasbag57
(g73
g59
NtRp520
(dp521
g62
(dp522
sg71
g476
sg64
(lp523
g57
(g78
g59
NtRp524
(dp525
g62
(dp526
g82
g83
ssg71
g520
sg64
(lp527
g336
asbag57
(g78
g59
NtRp528
(dp529
g62
(dp530
g89
g90
ssg71
g520
sg64
(lp531
S':'
asbag57
(g78
g59
NtRp532
(dp533
g62
(dp534
sg71
g520
sg64
(lp535
g57
(g58
g59
NtRp536
(dp537
g62
(dp538
g70
I3
ssg71
g532
sg64
(lp539
S''
asbasbasbag57
(g73
g59
NtRp540
(dp541
g62
(dp542
sg71
g476
sg64
(lp543
g57
(g78
g59
NtRp544
(dp545
g62
(dp546
g82
g83
ssg71
g540
sg64
(lp547
g357
asbag57
(g78
g59
NtRp548
(dp549
g62
(dp550
g89
g90
ssg71
g540
sg64
(lp551
S':'
asbag57
(g78
g59
NtRp552
(dp553
g62
(dp554
sg71
g540
sg64
(lp555
g57
(g58
g59
NtRp556
(dp557
g62
(dp558
g70
I3
ssg71
g552
sg64
(lp559
S''
asbasbasbag57
(g73
g59
NtRp560
(dp561
g62
(dp562
sg71
g476
sg64
(lp563
g57
(g78
g59
NtRp564
(dp565
g62
(dp566
g82
g83
ssg71
g560
sg64
(lp567
g378
asbag57
(g78
g59
NtRp568
(dp569
g62
(dp570
g89
g90
ssg71
g560
sg64
(lp571
S':'
asbag57
(g78
g59
NtRp572
(dp573
g62
(dp574
sg71
g560
sg64
(lp575
g57
(g58
g59
NtRp576
(dp577
g62
(dp578
g70
I3
ssg71
g572
sg64
(lp579
S''
asbasbasbag57
(g73
g59
NtRp580
(dp581
g62
(dp582
sg71
g476
sg64
(lp583
g57
(g78
g59
NtRp584
(dp585
g62
(dp586
g82
g83
ssg71
g580
sg64
(lp587
g399
asbag57
(g78
g59
NtRp588
(dp589
g62
(dp590
g89
g90
ssg71
g580
sg64
(lp591
S':'
asbag57
(g78
g59
NtRp592
(dp593
g62
(dp594
sg71
g580
sg64
(lp595
g57
(g58
g59
NtRp596
(dp597
g62
(dp598
g70
I3
ssg71
g592
sg64
(lp599
S''
asbasbasbag57
(g73
g59
NtRp600
(dp601
g62
(dp602
sg71
g476
sg64
(lp603
g57
(g78
g59
NtRp604
(dp605
g62
(dp606
g82
g83
ssg71
g600
sg64
(lp607
g420
asbag57
(g78
g59
NtRp608
(dp609
g62
(dp610
g89
g90
ssg71
g600
sg64
(lp611
S':'
asbag57
(g78
g59
NtRp612
(dp613
g62
(dp614
sg71
g600
sg64
(lp615
g57
(g58
g59
NtRp616
(dp617
g62
(dp618
g70
I3
ssg71
g612
sg64
(lp619
S''
asbasbasbag57
(g73
g59
NtRp620
(dp621
g62
(dp622
sg71
g476
sg64
(lp623
g57
(g78
g59
NtRp624
(dp625
g62
(dp626
g82
g83
ssg71
g620
sg64
(lp627
g441
asbag57
(g78
g59
NtRp628
(dp629
g62
(dp630
g89
g90
ssg71
g620
sg64
(lp631
S':'
asbag57
(g78
g59
NtRp632
(dp633
g62
(dp634
sg71
g620
sg64
(lp635
g57
(g58
g59
NtRp636
(dp637
g62
(dp638
g70
I3
ssg71
g632
sg64
(lp639
S''
asbasbasbasbasbasbasbag57
(g73
g59
NtRp640
(dp641
g62
(dp642
sg71
g256
sg64
(lp643
g57
(g78
g59
NtRp644
(dp645
g62
(dp646
g82
g83
ssg71
g640
sg64
(lp647
S'session_id_iiit_calendars'
p648
asbag57
(g78
g59
NtRp649
(dp650
g62
(dp651
g89
g90
ssg71
g640
sg64
(lp652
S':'
asbag57
(g78
g59
NtRp653
(dp654
g62
(dp655
sg71
g640
sg64
(lp656
g57
(g58
g59
NtRp657
(dp658
g62
(dp659
g70
I4
ssg71
g653
sg64
(lp660
S'127.0.0.1-a1d9d8aa-d618-411c-bf72-1b1bcb1390e8'
p661
ag57
(g66
g59
NtRp662
(dp663
g62
(dp664
g70
I3
ssg71
Nsg64
(lp665
g57
(g73
g59
NtRp666
(dp667
g62
(dp668
sg71
g662
sg64
(lp669
g57
(g78
g59
NtRp670
(dp671
g62
(dp672
g82
g83
ssg71
g666
sg64
(lp673
g294
asbag57
(g78
g59
NtRp674
(dp675
g62
(dp676
g89
g90
ssg71
g666
sg64
(lp677
S':'
asbag57
(g78
g59
NtRp678
(dp679
g62
(dp680
sg71
g666
sg64
(lp681
g57
(g58
g59
NtRp682
(dp683
g62
(dp684
g70
I3
ssg71
g678
sg64
(lp685
S''
asbasbasbag57
(g73
g59
NtRp686
(dp687
g62
(dp688
sg71
g662
sg64
(lp689
g57
(g78
g59
NtRp690
(dp691
g62
(dp692
g82
g83
ssg71
g686
sg64
(lp693
g315
asbag57
(g78
g59
NtRp694
(dp695
g62
(dp696
g89
g90
ssg71
g686
sg64
(lp697
S':'
asbag57
(g78
g59
NtRp698
(dp699
g62
(dp700
sg71
g686
sg64
(lp701
g57
(g58
g59
NtRp702
(dp703
g62
(dp704
g70
I3
ssg71
g698
sg64
(lp705
S''
asbasbasbag57
(g73
g59
NtRp706
(dp707
g62
(dp708
sg71
g662
sg64
(lp709
g57
(g78
g59
NtRp710
(dp711
g62
(dp712
g82
g83
ssg71
g706
sg64
(lp713
g336
asbag57
(g78
g59
NtRp714
(dp715
g62
(dp716
g89
g90
ssg71
g706
sg64
(lp717
S':'
asbag57
(g78
g59
NtRp718
(dp719
g62
(dp720
sg71
g706
sg64
(lp721
g57
(g58
g59
NtRp722
(dp723
g62
(dp724
g70
I3
ssg71
g718
sg64
(lp725
S''
asbasbasbag57
(g73
g59
NtRp726
(dp727
g62
(dp728
sg71
g662
sg64
(lp729
g57
(g78
g59
NtRp730
(dp731
g62
(dp732
g82
g83
ssg71
g726
sg64
(lp733
g357
asbag57
(g78
g59
NtRp734
(dp735
g62
(dp736
g89
g90
ssg71
g726
sg64
(lp737
S':'
asbag57
(g78
g59
NtRp738
(dp739
g62
(dp740
sg71
g726
sg64
(lp741
g57
(g58
g59
NtRp742
(dp743
g62
(dp744
g70
I3
ssg71
g738
sg64
(lp745
S''
asbasbasbag57
(g73
g59
NtRp746
(dp747
g62
(dp748
sg71
g662
sg64
(lp749
g57
(g78
g59
NtRp750
(dp751
g62
(dp752
g82
g83
ssg71
g746
sg64
(lp753
g378
asbag57
(g78
g59
NtRp754
(dp755
g62
(dp756
g89
g90
ssg71
g746
sg64
(lp757
S':'
asbag57
(g78
g59
NtRp758
(dp759
g62
(dp760
sg71
g746
sg64
(lp761
g57
(g58
g59
NtRp762
(dp763
g62
(dp764
g70
I3
ssg71
g758
sg64
(lp765
S''
asbasbasbag57
(g73
g59
NtRp766
(dp767
g62
(dp768
sg71
g662
sg64
(lp769
g57
(g78
g59
NtRp770
(dp771
g62
(dp772
g82
g83
ssg71
g766
sg64
(lp773
g399
asbag57
(g78
g59
NtRp774
(dp775
g62
(dp776
g89
g90
ssg71
g766
sg64
(lp777
S':'
asbag57
(g78
g59
NtRp778
(dp779
g62
(dp780
sg71
g766
sg64
(lp781
g57
(g58
g59
NtRp782
(dp783
g62
(dp784
g70
I3
ssg71
g778
sg64
(lp785
S''
asbasbasbag57
(g73
g59
NtRp786
(dp787
g62
(dp788
sg71
g662
sg64
(lp789
g57
(g78
g59
NtRp790
(dp791
g62
(dp792
g82
g83
ssg71
g786
sg64
(lp793
g420
asbag57
(g78
g59
NtRp794
(dp795
g62
(dp796
g89
g90
ssg71
g786
sg64
(lp797
S':'
asbag57
(g78
g59
NtRp798
(dp799
g62
(dp800
sg71
g786
sg64
(lp801
g57
(g58
g59
NtRp802
(dp803
g62
(dp804
g70
I3
ssg71
g798
sg64
(lp805
S''
asbasbasbag57
(g73
g59
NtRp806
(dp807
g62
(dp808
sg71
g662
sg64
(lp809
g57
(g78
g59
NtRp810
(dp811
g62
(dp812
g82
g83
ssg71
g806
sg64
(lp813
g441
asbag57
(g78
g59
NtRp814
(dp815
g62
(dp816
g89
g90
ssg71
g806
sg64
(lp817
S':'
asbag57
(g78
g59
NtRp818
(dp819
g62
(dp820
sg71
g806
sg64
(lp821
g57
(g58
g59
NtRp822
(dp823
g62
(dp824
g70
I3
ssg71
g818
sg64
(lp825
S''
asbasbasbasbasbasbasbag57
(g73
g59
NtRp826
(dp827
g62
(dp828
sg71
g256
sg64
(lp829
g57
(g78
g59
NtRp830
(dp831
g62
(dp832
g82
g83
ssg71
g826
sg64
(lp833
S'session_id_welcome'
p834
asbag57
(g78
g59
NtRp835
(dp836
g62
(dp837
g89
g90
ssg71
g826
sg64
(lp838
S':'
asbag57
(g78
g59
NtRp839
(dp840
g62
(dp841
sg71
g826
sg64
(lp842
g57
(g58
g59
NtRp843
(dp844
g62
(dp845
g70
I4
ssg71
g839
sg64
(lp846
S'127.0.0.1-fd25f810-6ea5-4bd0-a8b7-3287ff2821a6'
p847
ag57
(g66
g59
NtRp848
(dp849
g62
(dp850
g70
I3
ssg71
Nsg64
(lp851
g57
(g73
g59
NtRp852
(dp853
g62
(dp854
sg71
g848
sg64
(lp855
g57
(g78
g59
NtRp856
(dp857
g62
(dp858
g82
g83
ssg71
g852
sg64
(lp859
g294
asbag57
(g78
g59
NtRp860
(dp861
g62
(dp862
g89
g90
ssg71
g852
sg64
(lp863
S':'
asbag57
(g78
g59
NtRp864
(dp865
g62
(dp866
sg71
g852
sg64
(lp867
g57
(g58
g59
NtRp868
(dp869
g62
(dp870
g70
I3
ssg71
g864
sg64
(lp871
S''
asbasbasbag57
(g73
g59
NtRp872
(dp873
g62
(dp874
sg71
g848
sg64
(lp875
g57
(g78
g59
NtRp876
(dp877
g62
(dp878
g82
g83
ssg71
g872
sg64
(lp879
g315
asbag57
(g78
g59
NtRp880
(dp881
g62
(dp882
g89
g90
ssg71
g872
sg64
(lp883
S':'
asbag57
(g78
g59
NtRp884
(dp885
g62
(dp886
sg71
g872
sg64
(lp887
g57
(g58
g59
NtRp888
(dp889
g62
(dp890
g70
I3
ssg71
g884
sg64
(lp891
S''
asbasbasbag57
(g73
g59
NtRp892
(dp893
g62
(dp894
sg71
g848
sg64
(lp895
g57
(g78
g59
NtRp896
(dp897
g62
(dp898
g82
g83
ssg71
g892
sg64
(lp899
g336
asbag57
(g78
g59
NtRp900
(dp901
g62
(dp902
g89
g90
ssg71
g892
sg64
(lp903
S':'
asbag57
(g78
g59
NtRp904
(dp905
g62
(dp906
sg71
g892
sg64
(lp907
g57
(g58
g59
NtRp908
(dp909
g62
(dp910
g70
I3
ssg71
g904
sg64
(lp911
S''
asbasbasbag57
(g73
g59
NtRp912
(dp913
g62
(dp914
sg71
g848
sg64
(lp915
g57
(g78
g59
NtRp916
(dp917
g62
(dp918
g82
g83
ssg71
g912
sg64
(lp919
g357
asbag57
(g78
g59
NtRp920
(dp921
g62
(dp922
g89
g90
ssg71
g912
sg64
(lp923
S':'
asbag57
(g78
g59
NtRp924
(dp925
g62
(dp926
sg71
g912
sg64
(lp927
g57
(g58
g59
NtRp928
(dp929
g62
(dp930
g70
I3
ssg71
g924
sg64
(lp931
S''
asbasbasbag57
(g73
g59
NtRp932
(dp933
g62
(dp934
sg71
g848
sg64
(lp935
g57
(g78
g59
NtRp936
(dp937
g62
(dp938
g82
g83
ssg71
g932
sg64
(lp939
g378
asbag57
(g78
g59
NtRp940
(dp941
g62
(dp942
g89
g90
ssg71
g932
sg64
(lp943
S':'
asbag57
(g78
g59
NtRp944
(dp945
g62
(dp946
sg71
g932
sg64
(lp947
g57
(g58
g59
NtRp948
(dp949
g62
(dp950
g70
I3
ssg71
g944
sg64
(lp951
S''
asbasbasbag57
(g73
g59
NtRp952
(dp953
g62
(dp954
sg71
g848
sg64
(lp955
g57
(g78
g59
NtRp956
(dp957
g62
(dp958
g82
g83
ssg71
g952
sg64
(lp959
g399
asbag57
(g78
g59
NtRp960
(dp961
g62
(dp962
g89
g90
ssg71
g952
sg64
(lp963
S':'
asbag57
(g78
g59
NtRp964
(dp965
g62
(dp966
sg71
g952
sg64
(lp967
g57
(g58
g59
NtRp968
(dp969
g62
(dp970
g70
I3
ssg71
g964
sg64
(lp971
S''
asbasbasbag57
(g73
g59
NtRp972
(dp973
g62
(dp974
sg71
g848
sg64
(lp975
g57
(g78
g59
NtRp976
(dp977
g62
(dp978
g82
g83
ssg71
g972
sg64
(lp979
g420
asbag57
(g78
g59
NtRp980
(dp981
g62
(dp982
g89
g90
ssg71
g972
sg64
(lp983
S':'
asbag57
(g78
g59
NtRp984
(dp985
g62
(dp986
sg71
g972
sg64
(lp987
g57
(g58
g59
NtRp988
(dp989
g62
(dp990
g70
I3
ssg71
g984
sg64
(lp991
S''
asbasbasbag57
(g73
g59
NtRp992
(dp993
g62
(dp994
sg71
g848
sg64
(lp995
g57
(g78
g59
NtRp996
(dp997
g62
(dp998
g82
g83
ssg71
g992
sg64
(lp999
g441
asbag57
(g78
g59
NtRp1000
(dp1001
g62
(dp1002
g89
g90
ssg71
g992
sg64
(lp1003
S':'
asbag57
(g78
g59
NtRp1004
(dp1005
g62
(dp1006
sg71
g992
sg64
(lp1007
g57
(g58
g59
NtRp1008
(dp1009
g62
(dp1010
g70
I3
ssg71
g1004
sg64
(lp1011
S''
asbasbasbasbasbasbasbasbasbasbasbag57
(g73
g59
NtRp1012
(dp1013
g62
(dp1014
sg71
g67
sg64
(lp1015
g57
(g78
g59
NtRp1016
(dp1017
g62
(dp1018
g82
g83
ssg71
g1012
sg64
(lp1019
S'env'
p1020
asbag57
(g78
g59
NtRp1021
(dp1022
g62
(dp1023
g89
g90
ssg71
g1012
sg64
(lp1024
S':'
asbag57
(g78
g59
NtRp1025
(dp1026
g62
(dp1027
sg71
g1012
sg64
(lp1028
g57
(g58
g59
NtRp1029
(dp1030
g62
(dp1031
g70
I5
ssg71
g1025
sg64
(lp1032
g57
(g66
g59
NtRp1033
(dp1034
g62
(dp1035
g70
I4
ssg71
Nsg64
(lp1036
g57
(g73
g59
NtRp1037
(dp1038
g62
(dp1039
sg71
g1033
sg64
(lp1040
g57
(g78
g59
NtRp1041
(dp1042
g62
(dp1043
g82
g83
ssg71
g1037
sg64
(lp1044
S'app_folders'
p1045
asbag57
(g78
g59
NtRp1046
(dp1047
g62
(dp1048
g89
g90
ssg71
g1037
sg64
(lp1049
S':'
asbag57
(g78
g59
NtRp1050
(dp1051
g62
(dp1052
sg71
g1037
sg64
(lp1053
g57
(g58
g59
NtRp1054
(dp1055
g62
(dp1056
g70
I4
ssg71
g1050
sg64
(lp1057
S"set(['/home/simran/web2py/applications/welcome/', '/home/simran/web2py/applications/calendar/', '/home/simran/web2py/applications/IIIT_calendars/', '/home/simran/web2py/applications/admin/'])"
p1058
asbasbasbag57
(g73
g59
NtRp1059
(dp1060
g62
(dp1061
sg71
g1033
sg64
(lp1062
g57
(g78
g59
NtRp1063
(dp1064
g62
(dp1065
g82
g83
ssg71
g1059
sg64
(lp1066
S'applications_parent'
p1067
asbag57
(g78
g59
NtRp1068
(dp1069
g62
(dp1070
g89
g90
ssg71
g1059
sg64
(lp1071
S':'
asbag57
(g78
g59
NtRp1072
(dp1073
g62
(dp1074
sg71
g1059
sg64
(lp1075
g57
(g58
g59
NtRp1076
(dp1077
g62
(dp1078
g70
I4
ssg71
g1072
sg64
(lp1079
S'/home/simran/web2py'
p1080
asbasbasbag57
(g73
g59
NtRp1081
(dp1082
g62
(dp1083
sg71
g1033
sg64
(lp1084
g57
(g78
g59
NtRp1085
(dp1086
g62
(dp1087
g82
g83
ssg71
g1081
sg64
(lp1088
S'cmd_args'
p1089
asbag57
(g78
g59
NtRp1090
(dp1091
g62
(dp1092
g89
g90
ssg71
g1081
sg64
(lp1093
S':'
asbag57
(g78
g59
NtRp1094
(dp1095
g62
(dp1096
sg71
g1081
sg64
(lp1097
g57
(g58
g59
NtRp1098
(dp1099
g62
(dp1100
g70
I4
ssg71
g1094
sg64
(lp1101
g57
(g66
g59
NtRp1102
(dp1103
g62
(dp1104
g70
I3
ssg71
Nsg64
(lp1105
sbasbasbasbag57
(g73
g59
NtRp1106
(dp1107
g62
(dp1108
sg71
g1033
sg64
(lp1109
g57
(g78
g59
NtRp1110
(dp1111
g62
(dp1112
g82
g83
ssg71
g1106
sg64
(lp1113
S'cmd_options'
p1114
asbag57
(g78
g59
NtRp1115
(dp1116
g62
(dp1117
g89
g90
ssg71
g1106
sg64
(lp1118
S':'
asbag57
(g78
g59
NtRp1119
(dp1120
g62
(dp1121
sg71
g1106
sg64
(lp1122
g57
(g58
g59
NtRp1123
(dp1124
g62
(dp1125
g70
I4
ssg71
g1119
sg64
(lp1126
S"<Values at 0x249a7e8: {'verbose': False, 'ip': '127.0.0.1', 'with_scheduler': False, 'ips': [], 'shutdown_timeout': 5, 'taskbar': False, 'port': 8000, 'maxthreads': None, 'softcron': False, 'server_name': 'ubuntu', 'bpython': False, 'nogui': False, 'pid_filename': 'httpserver.pid', 'extcron': False, 'runcron': False, 'run_system_tests': False, 'test': None, 'folder': '/home/simran/web2py', 'config': '', 'minthreads': None, 'winservice': '', 'shell': None, 'run': '', 'log_filename': 'httpserver.log', 'debuglevel': 30, 'args': [''], 'socket_timeout': 5, 'ssl_ca_certificate': None, 'scheduler': None, 'profiler_filename': None, 'ssl_private_key': '', 'scheduler_groups': None, 'password': '<ask>', 'request_queue_size': 5, 'ssl_certificate': '', 'cronjob': False, 'numthreads': None, 'quiet': False, 'interfaces': None, 'import_models': False, 'timeout': 10, 'plain': False, 'nobanner': False}>"
p1127
asbasbasbag57
(g73
g59
NtRp1128
(dp1129
g62
(dp1130
sg71
g1033
sg64
(lp1131
g57
(g78
g59
NtRp1132
(dp1133
g62
(dp1134
g82
g83
ssg71
g1128
sg64
(lp1135
S'db_sessions'
p1136
asbag57
(g78
g59
NtRp1137
(dp1138
g62
(dp1139
g89
g90
ssg71
g1128
sg64
(lp1140
S':'
asbag57
(g78
g59
NtRp1141
(dp1142
g62
(dp1143
sg71
g1128
sg64
(lp1144
g57
(g58
g59
NtRp1145
(dp1146
g62
(dp1147
g70
I4
ssg71
g1141
sg64
(lp1148
S'set([])'
p1149
asbasbasbag57
(g73
g59
NtRp1150
(dp1151
g62
(dp1152
sg71
g1033
sg64
(lp1153
g57
(g78
g59
NtRp1154
(dp1155
g62
(dp1156
g82
g83
ssg71
g1150
sg64
(lp1157
S'debugging'
p1158
asbag57
(g78
g59
NtRp1159
(dp1160
g62
(dp1161
g89
g90
ssg71
g1150
sg64
(lp1162
S':'
asbag57
(g78
g59
NtRp1163
(dp1164
g62
(dp1165
sg71
g1150
sg64
(lp1166
g57
(g58
g59
NtRp1167
(dp1168
g62
(dp1169
g70
I4
ssg71
g1163
sg64
(lp1170
g100
asbasbasbag57
(g73
g59
NtRp1171
(dp1172
g62
(dp1173
sg71
g1033
sg64
(lp1174
g57
(g78
g59
NtRp1175
(dp1176
g62
(dp1177
g82
g83
ssg71
g1171
sg64
(lp1178
S'gluon_parent'
p1179
asbag57
(g78
g59
NtRp1180
(dp1181
g62
(dp1182
g89
g90
ssg71
g1171
sg64
(lp1183
S':'
asbag57
(g78
g59
NtRp1184
(dp1185
g62
(dp1186
sg71
g1171
sg64
(lp1187
g57
(g58
g59
NtRp1188
(dp1189
g62
(dp1190
g70
I4
ssg71
g1184
sg64
(lp1191
S'/home/simran/web2py'
p1192
asbasbasbag57
(g73
g59
NtRp1193
(dp1194
g62
(dp1195
sg71
g1033
sg64
(lp1196
g57
(g78
g59
NtRp1197
(dp1198
g62
(dp1199
g82
g83
ssg71
g1193
sg64
(lp1200
S'http_accept'
p1201
asbag57
(g78
g59
NtRp1202
(dp1203
g62
(dp1204
g89
g90
ssg71
g1193
sg64
(lp1205
S':'
asbag57
(g78
g59
NtRp1206
(dp1207
g62
(dp1208
sg71
g1193
sg64
(lp1209
g57
(g58
g59
NtRp1210
(dp1211
g62
(dp1212
g70
I4
ssg71
g1206
sg64
(lp1213
S'text/html,application/xhtml+xml,application/xml;q=0.9,*/*;q=0.8'
p1214
asbasbasbag57
(g73
g59
NtRp1215
(dp1216
g62
(dp1217
sg71
g1033
sg64
(lp1218
g57
(g78
g59
NtRp1219
(dp1220
g62
(dp1221
g82
g83
ssg71
g1215
sg64
(lp1222
S'http_accept_encoding'
p1223
asbag57
(g78
g59
NtRp1224
(dp1225
g62
(dp1226
g89
g90
ssg71
g1215
sg64
(lp1227
S':'
asbag57
(g78
g59
NtRp1228
(dp1229
g62
(dp1230
sg71
g1215
sg64
(lp1231
g57
(g58
g59
NtRp1232
(dp1233
g62
(dp1234
g70
I4
ssg71
g1228
sg64
(lp1235
S'gzip, deflate'
p1236
asbasbasbag57
(g73
g59
NtRp1237
(dp1238
g62
(dp1239
sg71
g1033
sg64
(lp1240
g57
(g78
g59
NtRp1241
(dp1242
g62
(dp1243
g82
g83
ssg71
g1237
sg64
(lp1244
S'http_accept_language'
p1245
asbag57
(g78
g59
NtRp1246
(dp1247
g62
(dp1248
g89
g90
ssg71
g1237
sg64
(lp1249
S':'
asbag57
(g78
g59
NtRp1250
(dp1251
g62
(dp1252
sg71
g1237
sg64
(lp1253
g57
(g58
g59
NtRp1254
(dp1255
g62
(dp1256
g70
I4
ssg71
g1250
sg64
(lp1257
S'en-US,en;q=0.5'
p1258
asbasbasbag57
(g73
g59
NtRp1259
(dp1260
g62
(dp1261
sg71
g1033
sg64
(lp1262
g57
(g78
g59
NtRp1263
(dp1264
g62
(dp1265
g82
g83
ssg71
g1259
sg64
(lp1266
S'http_connection'
p1267
asbag57
(g78
g59
NtRp1268
(dp1269
g62
(dp1270
g89
g90
ssg71
g1259
sg64
(lp1271
S':'
asbag57
(g78
g59
NtRp1272
(dp1273
g62
(dp1274
sg71
g1259
sg64
(lp1275
g57
(g58
g59
NtRp1276
(dp1277
g62
(dp1278
g70
I4
ssg71
g1272
sg64
(lp1279
S'keep-alive'
p1280
asbasbasbag57
(g73
g59
NtRp1281
(dp1282
g62
(dp1283
sg71
g1033
sg64
(lp1284
g57
(g78
g59
NtRp1285
(dp1286
g62
(dp1287
g82
g83
ssg71
g1281
sg64
(lp1288
S'http_cookie'
p1289
asbag57
(g78
g59
NtRp1290
(dp1291
g62
(dp1292
g89
g90
ssg71
g1281
sg64
(lp1293
S':'
asbag57
(g78
g59
NtRp1294
(dp1295
g62
(dp1296
sg71
g1281
sg64
(lp1297
g57
(g58
g59
NtRp1298
(dp1299
g62
(dp1300
g70
I4
ssg71
g1294
sg64
(lp1301
S'session_id_welcome=127.0.0.1-fd25f810-6ea5-4bd0-a8b7-3287ff2821a6; session_id_admin=127.0.0.1-bcfe86f7-6b2e-4746-8640-c56f94d5ddd1; session_id_iiit_calendars=127.0.0.1-a1d9d8aa-d618-411c-bf72-1b1bcb1390e8; session_id_calendar=127.0.0.1-bb2e05ae-a2de-4759-8bb0-f43d3ba7303f'
p1302
asbasbasbag57
(g73
g59
NtRp1303
(dp1304
g62
(dp1305
sg71
g1033
sg64
(lp1306
g57
(g78
g59
NtRp1307
(dp1308
g62
(dp1309
g82
g83
ssg71
g1303
sg64
(lp1310
S'http_host'
p1311
asbag57
(g78
g59
NtRp1312
(dp1313
g62
(dp1314
g89
g90
ssg71
g1303
sg64
(lp1315
S':'
asbag57
(g78
g59
NtRp1316
(dp1317
g62
(dp1318
sg71
g1303
sg64
(lp1319
g57
(g58
g59
NtRp1320
(dp1321
g62
(dp1322
g70
I4
ssg71
g1316
sg64
(lp1323
S'127.0.0.1:8000'
p1324
asbasbasbag57
(g73
g59
NtRp1325
(dp1326
g62
(dp1327
sg71
g1033
sg64
(lp1328
g57
(g78
g59
NtRp1329
(dp1330
g62
(dp1331
g82
g83
ssg71
g1325
sg64
(lp1332
S'http_referer'
p1333
asbag57
(g78
g59
NtRp1334
(dp1335
g62
(dp1336
g89
g90
ssg71
g1325
sg64
(lp1337
S':'
asbag57
(g78
g59
NtRp1338
(dp1339
g62
(dp1340
sg71
g1325
sg64
(lp1341
g57
(g58
g59
NtRp1342
(dp1343
g62
(dp1344
g70
I4
ssg71
g1338
sg64
(lp1345
S'http://127.0.0.1:8000/IIIT_calendars/default/index'
p1346
asbasbasbag57
(g73
g59
NtRp1347
(dp1348
g62
(dp1349
sg71
g1033
sg64
(lp1350
g57
(g78
g59
NtRp1351
(dp1352
g62
(dp1353
g82
g83
ssg71
g1347
sg64
(lp1354
S'http_user_agent'
p1355
asbag57
(g78
g59
NtRp1356
(dp1357
g62
(dp1358
g89
g90
ssg71
g1347
sg64
(lp1359
S':'
asbag57
(g78
g59
NtRp1360
(dp1361
g62
(dp1362
sg71
g1347
sg64
(lp1363
g57
(g58
g59
NtRp1364
(dp1365
g62
(dp1366
g70
I4
ssg71
g1360
sg64
(lp1367
S'Mozilla/5.0 (X11; Ubuntu; Linux x86_64; rv:20.0) Gecko/20100101 Firefox/20.0'
p1368
asbasbasbag57
(g73
g59
NtRp1369
(dp1370
g62
(dp1371
sg71
g1033
sg64
(lp1372
g57
(g78
g59
NtRp1373
(dp1374
g62
(dp1375
g82
g83
ssg71
g1369
sg64
(lp1376
S'is_jython'
p1377
asbag57
(g78
g59
NtRp1378
(dp1379
g62
(dp1380
g89
g90
ssg71
g1369
sg64
(lp1381
S':'
asbag57
(g78
g59
NtRp1382
(dp1383
g62
(dp1384
sg71
g1369
sg64
(lp1385
g57
(g58
g59
NtRp1386
(dp1387
g62
(dp1388
g70
I4
ssg71
g1382
sg64
(lp1389
g100
asbasbasbag57
(g73
g59
NtRp1390
(dp1391
g62
(dp1392
sg71
g1033
sg64
(lp1393
g57
(g78
g59
NtRp1394
(dp1395
g62
(dp1396
g82
g83
ssg71
g1390
sg64
(lp1397
S'is_pypy'
p1398
asbag57
(g78
g59
NtRp1399
(dp1400
g62
(dp1401
g89
g90
ssg71
g1390
sg64
(lp1402
S':'
asbag57
(g78
g59
NtRp1403
(dp1404
g62
(dp1405
sg71
g1390
sg64
(lp1406
g57
(g58
g59
NtRp1407
(dp1408
g62
(dp1409
g70
I4
ssg71
g1403
sg64
(lp1410
g100
asbasbasbag57
(g73
g59
NtRp1411
(dp1412
g62
(dp1413
sg71
g1033
sg64
(lp1414
g57
(g78
g59
NtRp1415
(dp1416
g62
(dp1417
g82
g83
ssg71
g1411
sg64
(lp1418
S'local_hosts'
p1419
asbag57
(g78
g59
NtRp1420
(dp1421
g62
(dp1422
g89
g90
ssg71
g1411
sg64
(lp1423
S':'
asbag57
(g78
g59
NtRp1424
(dp1425
g62
(dp1426
sg71
g1411
sg64
(lp1427
g57
(g58
g59
NtRp1428
(dp1429
g62
(dp1430
g70
I4
ssg71
g1424
sg64
(lp1431
g57
(g66
g59
NtRp1432
(dp1433
g62
(dp1434
g70
I3
ssg71
Nsg64
(lp1435
g57
(g73
g59
NtRp1436
(dp1437
g62
(dp1438
sg71
g1432
sg64
(lp1439
g57
(g78
g59
NtRp1440
(dp1441
g62
(dp1442
sg71
g1436
sg64
(lp1443
g57
(g58
g59
NtRp1444
(dp1445
g62
(dp1446
g70
I3
ssg71
g1440
sg64
(lp1447
S'::1'
p1448
asbasbasbag57
(g73
g59
NtRp1449
(dp1450
g62
(dp1451
sg71
g1432
sg64
(lp1452
g57
(g78
g59
NtRp1453
(dp1454
g62
(dp1455
sg71
g1449
sg64
(lp1456
g57
(g58
g59
NtRp1457
(dp1458
g62
(dp1459
g70
I3
ssg71
g1453
sg64
(lp1460
S'127.0.1.1'
p1461
asbasbasbag57
(g73
g59
NtRp1462
(dp1463
g62
(dp1464
sg71
g1432
sg64
(lp1465
g57
(g78
g59
NtRp1466
(dp1467
g62
(dp1468
sg71
g1462
sg64
(lp1469
g57
(g58
g59
NtRp1470
(dp1471
g62
(dp1472
g70
I3
ssg71
g1466
sg64
(lp1473
S'::ffff:127.0.0.1'
p1474
asbasbasbag57
(g73
g59
NtRp1475
(dp1476
g62
(dp1477
sg71
g1432
sg64
(lp1478
g57
(g78
g59
NtRp1479
(dp1480
g62
(dp1481
sg71
g1475
sg64
(lp1482
g57
(g58
g59
NtRp1483
(dp1484
g62
(dp1485
g70
I3
ssg71
g1479
sg64
(lp1486
S'127.0.0.1'
p1487
asbasbasbag57
(g73
g59
NtRp1488
(dp1489
g62
(dp1490
sg71
g1432
sg64
(lp1491
g57
(g78
g59
NtRp1492
(dp1493
g62
(dp1494
sg71
g1488
sg64
(lp1495
g57
(g58
g59
NtRp1496
(dp1497
g62
(dp1498
g70
I3
ssg71
g1492
sg64
(lp1499
S'ubuntu'
p1500
asbasbasbasbasbasbasbag57
(g73
g59
NtRp1501
(dp1502
g62
(dp1503
sg71
g1033
sg64
(lp1504
g57
(g78
g59
NtRp1505
(dp1506
g62
(dp1507
g82
g83
ssg71
g1501
sg64
(lp1508
S'path_info'
p1509
asbag57
(g78
g59
NtRp1510
(dp1511
g62
(dp1512
g89
g90
ssg71
g1501
sg64
(lp1513
S':'
asbag57
(g78
g59
NtRp1514
(dp1515
g62
(dp1516
sg71
g1501
sg64
(lp1517
g57
(g58
g59
NtRp1518
(dp1519
g62
(dp1520
g70
I4
ssg71
g1514
sg64
(lp1521
S'/IIIT_calendars/default/calendar.html'
p1522
asbasbasbag57
(g73
g59
NtRp1523
(dp1524
g62
(dp1525
sg71
g1033
sg64
(lp1526
g57
(g78
g59
NtRp1527
(dp1528
g62
(dp1529
g82
g83
ssg71
g1523
sg64
(lp1530
S'query_string'
p1531
asbag57
(g78
g59
NtRp1532
(dp1533
g62
(dp1534
g89
g90
ssg71
g1523
sg64
(lp1535
S':'
asbag57
(g78
g59
NtRp1536
(dp1537
g62
(dp1538
sg71
g1523
sg64
(lp1539
g57
(g58
g59
NtRp1540
(dp1541
g62
(dp1542
g70
I4
ssg71
g1536
sg64
(lp1543
S'username=20'
p1544
asbasbasbag57
(g73
g59
NtRp1545
(dp1546
g62
(dp1547
sg71
g1033
sg64
(lp1548
g57
(g78
g59
NtRp1549
(dp1550
g62
(dp1551
g82
g83
ssg71
g1545
sg64
(lp1552
S'remote_addr'
p1553
asbag57
(g78
g59
NtRp1554
(dp1555
g62
(dp1556
g89
g90
ssg71
g1545
sg64
(lp1557
S':'
asbag57
(g78
g59
NtRp1558
(dp1559
g62
(dp1560
sg71
g1545
sg64
(lp1561
g57
(g58
g59
NtRp1562
(dp1563
g62
(dp1564
g70
I4
ssg71
g1558
sg64
(lp1565
g212
asbasbasbag57
(g73
g59
NtRp1566
(dp1567
g62
(dp1568
sg71
g1033
sg64
(lp1569
g57
(g78
g59
NtRp1570
(dp1571
g62
(dp1572
g82
g83
ssg71
g1566
sg64
(lp1573
S'remote_port'
p1574
asbag57
(g78
g59
NtRp1575
(dp1576
g62
(dp1577
g89
g90
ssg71
g1566
sg64
(lp1578
S':'
asbag57
(g78
g59
NtRp1579
(dp1580
g62
(dp1581
sg71
g1566
sg64
(lp1582
g57
(g58
g59
NtRp1583
(dp1584
g62
(dp1585
g70
I4
ssg71
g1579
sg64
(lp1586
S'54604'
p1587
asbasbasbag57
(g73
g59
NtRp1588
(dp1589
g62
(dp1590
sg71
g1033
sg64
(lp1591
g57
(g78
g59
NtRp1592
(dp1593
g62
(dp1594
g82
g83
ssg71
g1588
sg64
(lp1595
S'request_method'
p1596
asbag57
(g78
g59
NtRp1597
(dp1598
g62
(dp1599
g89
g90
ssg71
g1588
sg64
(lp1600
S':'
asbag57
(g78
g59
NtRp1601
(dp1602
g62
(dp1603
sg71
g1588
sg64
(lp1604
g57
(g58
g59
NtRp1605
(dp1606
g62
(dp1607
g70
I4
ssg71
g1601
sg64
(lp1608
S'GET'
p1609
asbasbasbag57
(g73
g59
NtRp1610
(dp1611
g62
(dp1612
sg71
g1033
sg64
(lp1613
g57
(g78
g59
NtRp1614
(dp1615
g62
(dp1616
g82
g83
ssg71
g1610
sg64
(lp1617
S'request_uri'
p1618
asbag57
(g78
g59
NtRp1619
(dp1620
g62
(dp1621
g89
g90
ssg71
g1610
sg64
(lp1622
S':'
asbag57
(g78
g59
NtRp1623
(dp1624
g62
(dp1625
sg71
g1610
sg64
(lp1626
g57
(g58
g59
NtRp1627
(dp1628
g62
(dp1629
g70
I4
ssg71
g1623
sg64
(lp1630
S'/IIIT_calendars/default/calendar.html?username=20'
p1631
asbasbasbag57
(g73
g59
NtRp1632
(dp1633
g62
(dp1634
sg71
g1033
sg64
(lp1635
g57
(g78
g59
NtRp1636
(dp1637
g62
(dp1638
g82
g83
ssg71
g1632
sg64
(lp1639
S'script_name'
p1640
asbag57
(g78
g59
NtRp1641
(dp1642
g62
(dp1643
g89
g90
ssg71
g1632
sg64
(lp1644
S':'
asbag57
(g78
g59
NtRp1645
(dp1646
g62
(dp1647
sg71
g1632
sg64
(lp1648
g57
(g58
g59
NtRp1649
(dp1650
g62
(dp1651
g70
I4
ssg71
g1645
sg64
(lp1652
S''
asbasbasbag57
(g73
g59
NtRp1653
(dp1654
g62
(dp1655
sg71
g1033
sg64
(lp1656
g57
(g78
g59
NtRp1657
(dp1658
g62
(dp1659
g82
g83
ssg71
g1653
sg64
(lp1660
S'server_name'
p1661
asbag57
(g78
g59
NtRp1662
(dp1663
g62
(dp1664
g89
g90
ssg71
g1653
sg64
(lp1665
S':'
asbag57
(g78
g59
NtRp1666
(dp1667
g62
(dp1668
sg71
g1653
sg64
(lp1669
g57
(g58
g59
NtRp1670
(dp1671
g62
(dp1672
g70
I4
ssg71
g1666
sg64
(lp1673
S'ubuntu'
p1674
asbasbasbag57
(g73
g59
NtRp1675
(dp1676
g62
(dp1677
sg71
g1033
sg64
(lp1678
g57
(g78
g59
NtRp1679
(dp1680
g62
(dp1681
g82
g83
ssg71
g1675
sg64
(lp1682
S'server_port'
p1683
asbag57
(g78
g59
NtRp1684
(dp1685
g62
(dp1686
g89
g90
ssg71
g1675
sg64
(lp1687
S':'
asbag57
(g78
g59
NtRp1688
(dp1689
g62
(dp1690
sg71
g1675
sg64
(lp1691
g57
(g58
g59
NtRp1692
(dp1693
g62
(dp1694
g70
I4
ssg71
g1688
sg64
(lp1695
S'8000'
p1696
asbasbasbag57
(g73
g59
NtRp1697
(dp1698
g62
(dp1699
sg71
g1033
sg64
(lp1700
g57
(g78
g59
NtRp1701
(dp1702
g62
(dp1703
g82
g83
ssg71
g1697
sg64
(lp1704
S'server_protocol'
p1705
asbag57
(g78
g59
NtRp1706
(dp1707
g62
(dp1708
g89
g90
ssg71
g1697
sg64
(lp1709
S':'
asbag57
(g78
g59
NtRp1710
(dp1711
g62
(dp1712
sg71
g1697
sg64
(lp1713
g57
(g58
g59
NtRp1714
(dp1715
g62
(dp1716
g70
I4
ssg71
g1710
sg64
(lp1717
S'HTTP/1.1'
p1718
asbasbasbag57
(g73
g59
NtRp1719
(dp1720
g62
(dp1721
sg71
g1033
sg64
(lp1722
g57
(g78
g59
NtRp1723
(dp1724
g62
(dp1725
g82
g83
ssg71
g1719
sg64
(lp1726
S'server_software'
p1727
asbag57
(g78
g59
NtRp1728
(dp1729
g62
(dp1730
g89
g90
ssg71
g1719
sg64
(lp1731
S':'
asbag57
(g78
g59
NtRp1732
(dp1733
g62
(dp1734
sg71
g1719
sg64
(lp1735
g57
(g58
g59
NtRp1736
(dp1737
g62
(dp1738
g70
I4
ssg71
g1732
sg64
(lp1739
S'Rocket 1.2.6'
p1740
asbasbasbag57
(g73
g59
NtRp1741
(dp1742
g62
(dp1743
sg71
g1033
sg64
(lp1744
g57
(g78
g59
NtRp1745
(dp1746
g62
(dp1747
g82
g83
ssg71
g1741
sg64
(lp1748
S'web2py_path'
p1749
asbag57
(g78
g59
NtRp1750
(dp1751
g62
(dp1752
g89
g90
ssg71
g1741
sg64
(lp1753
S':'
asbag57
(g78
g59
NtRp1754
(dp1755
g62
(dp1756
sg71
g1741
sg64
(lp1757
g57
(g58
g59
NtRp1758
(dp1759
g62
(dp1760
g70
I4
ssg71
g1754
sg64
(lp1761
g1080
asbasbasbag57
(g73
g59
NtRp1762
(dp1763
g62
(dp1764
sg71
g1033
sg64
(lp1765
g57
(g78
g59
NtRp1766
(dp1767
g62
(dp1768
g82
g83
ssg71
g1762
sg64
(lp1769
S'web2py_version'
p1770
asbag57
(g78
g59
NtRp1771
(dp1772
g62
(dp1773
g89
g90
ssg71
g1762
sg64
(lp1774
S':'
asbag57
(g78
g59
NtRp1775
(dp1776
g62
(dp1777
sg71
g1762
sg64
(lp1778
g57
(g58
g59
NtRp1779
(dp1780
g62
(dp1781
g70
I4
ssg71
g1775
sg64
(lp1782
g57
(g66
g59
NtRp1783
(dp1784
g62
(dp1785
g70
I3
ssg71
Nsg64
(lp1786
g57
(g73
g59
NtRp1787
(dp1788
g62
(dp1789
sg71
g1783
sg64
(lp1790
g57
(g78
g59
NtRp1791
(dp1792
g62
(dp1793
sg71
g1787
sg64
(lp1794
g57
(g58
g59
NtRp1795
(dp1796
g62
(dp1797
g70
I3
ssg71
g1791
sg64
(lp1798
S'2'
asbasbasbag57
(g73
g59
NtRp1799
(dp1800
g62
(dp1801
sg71
g1783
sg64
(lp1802
g57
(g78
g59
NtRp1803
(dp1804
g62
(dp1805
sg71
g1799
sg64
(lp1806
g57
(g58
g59
NtRp1807
(dp1808
g62
(dp1809
g70
I3
ssg71
g1803
sg64
(lp1810
S'3'
asbasbasbag57
(g73
g59
NtRp1811
(dp1812
g62
(dp1813
sg71
g1783
sg64
(lp1814
g57
(g78
g59
NtRp1815
(dp1816
g62
(dp1817
sg71
g1811
sg64
(lp1818
g57
(g58
g59
NtRp1819
(dp1820
g62
(dp1821
g70
I3
ssg71
g1815
sg64
(lp1822
S'2'
asbasbasbag57
(g73
g59
NtRp1823
(dp1824
g62
(dp1825
sg71
g1783
sg64
(lp1826
g57
(g78
g59
NtRp1827
(dp1828
g62
(dp1829
sg71
g1823
sg64
(lp1830
g57
(g58
g59
NtRp1831
(dp1832
g62
(dp1833
g70
I3
ssg71
g1827
sg64
(lp1834
S'datetime.datetime(2012, 12, 17, 15, 3, 30)'
p1835
asbasbasbag57
(g73
g59
NtRp1836
(dp1837
g62
(dp1838
sg71
g1783
sg64
(lp1839
g57
(g78
g59
NtRp1840
(dp1841
g62
(dp1842
sg71
g1836
sg64
(lp1843
g57
(g58
g59
NtRp1844
(dp1845
g62
(dp1846
g70
I3
ssg71
g1840
sg64
(lp1847
S'stable'
p1848
asbasbasbasbasbasbasbag57
(g73
g59
NtRp1849
(dp1850
g62
(dp1851
sg71
g1033
sg64
(lp1852
g57
(g78
g59
NtRp1853
(dp1854
g62
(dp1855
g82
g83
ssg71
g1849
sg64
(lp1856
S'wsgi_errors'
p1857
asbag57
(g78
g59
NtRp1858
(dp1859
g62
(dp1860
g89
g90
ssg71
g1849
sg64
(lp1861
S':'
asbag57
(g78
g59
NtRp1862
(dp1863
g62
(dp1864
sg71
g1849
sg64
(lp1865
g57
(g58
g59
NtRp1866
(dp1867
g62
(dp1868
g70
I4
ssg71
g1862
sg64
(lp1869
S"<open file '<stderr>', mode 'w' at 0x7fd6de5a5270>"
p1870
asbasbasbag57
(g73
g59
NtRp1871
(dp1872
g62
(dp1873
sg71
g1033
sg64
(lp1874
g57
(g78
g59
NtRp1875
(dp1876
g62
(dp1877
g82
g83
ssg71
g1871
sg64
(lp1878
S'wsgi_file_wrapper'
p1879
asbag57
(g78
g59
NtRp1880
(dp1881
g62
(dp1882
g89
g90
ssg71
g1871
sg64
(lp1883
S':'
asbag57
(g78
g59
NtRp1884
(dp1885
g62
(dp1886
sg71
g1871
sg64
(lp1887
g57
(g58
g59
NtRp1888
(dp1889
g62
(dp1890
g70
I4
ssg71
g1884
sg64
(lp1891
S'<class wsgiref.util.FileWrapper at 0x2404c18>'
p1892
asbasbasbag57
(g73
g59
NtRp1893
(dp1894
g62
(dp1895
sg71
g1033
sg64
(lp1896
g57
(g78
g59
NtRp1897
(dp1898
g62
(dp1899
g82
g83
ssg71
g1893
sg64
(lp1900
S'wsgi_input'
p1901
asbag57
(g78
g59
NtRp1902
(dp1903
g62
(dp1904
g89
g90
ssg71
g1893
sg64
(lp1905
S':'
asbag57
(g78
g59
NtRp1906
(dp1907
g62
(dp1908
sg71
g1893
sg64
(lp1909
g57
(g58
g59
NtRp1910
(dp1911
g62
(dp1912
g70
I4
ssg71
g1906
sg64
(lp1913
S'<socket._fileobject object at 0x7fd6c4232750>'
p1914
asbasbasbag57
(g73
g59
NtRp1915
(dp1916
g62
(dp1917
sg71
g1033
sg64
(lp1918
g57
(g78
g59
NtRp1919
(dp1920
g62
(dp1921
g82
g83
ssg71
g1915
sg64
(lp1922
S'wsgi_multiprocess'
p1923
asbag57
(g78
g59
NtRp1924
(dp1925
g62
(dp1926
g89
g90
ssg71
g1915
sg64
(lp1927
S':'
asbag57
(g78
g59
NtRp1928
(dp1929
g62
(dp1930
sg71
g1915
sg64
(lp1931
g57
(g58
g59
NtRp1932
(dp1933
g62
(dp1934
g70
I4
ssg71
g1928
sg64
(lp1935
g100
asbasbasbag57
(g73
g59
NtRp1936
(dp1937
g62
(dp1938
sg71
g1033
sg64
(lp1939
g57
(g78
g59
NtRp1940
(dp1941
g62
(dp1942
g82
g83
ssg71
g1936
sg64
(lp1943
S'wsgi_multithread'
p1944
asbag57
(g78
g59
NtRp1945
(dp1946
g62
(dp1947
g89
g90
ssg71
g1936
sg64
(lp1948
S':'
asbag57
(g78
g59
NtRp1949
(dp1950
g62
(dp1951
sg71
g1936
sg64
(lp1952
g57
(g58
g59
NtRp1953
(dp1954
g62
(dp1955
g70
I4
ssg71
g1949
sg64
(lp1956
S'True'
p1957
asbasbasbag57
(g73
g59
NtRp1958
(dp1959
g62
(dp1960
sg71
g1033
sg64
(lp1961
g57
(g78
g59
NtRp1962
(dp1963
g62
(dp1964
g82
g83
ssg71
g1958
sg64
(lp1965
S'wsgi_run_once'
p1966
asbag57
(g78
g59
NtRp1967
(dp1968
g62
(dp1969
g89
g90
ssg71
g1958
sg64
(lp1970
S':'
asbag57
(g78
g59
NtRp1971
(dp1972
g62
(dp1973
sg71
g1958
sg64
(lp1974
g57
(g58
g59
NtRp1975
(dp1976
g62
(dp1977
g70
I4
ssg71
g1971
sg64
(lp1978
g100
asbasbasbag57
(g73
g59
NtRp1979
(dp1980
g62
(dp1981
sg71
g1033
sg64
(lp1982
g57
(g78
g59
NtRp1983
(dp1984
g62
(dp1985
g82
g83
ssg71
g1979
sg64
(lp1986
S'wsgi_url_scheme'
p1987
asbag57
(g78
g59
NtRp1988
(dp1989
g62
(dp1990
g89
g90
ssg71
g1979
sg64
(lp1991
S':'
asbag57
(g78
g59
NtRp1992
(dp1993
g62
(dp1994
sg71
g1979
sg64
(lp1995
g57
(g58
g59
NtRp1996
(dp1997
g62
(dp1998
g70
I4
ssg71
g1992
sg64
(lp1999
S'http'
p2000
asbasbasbag57
(g73
g59
NtRp2001
(dp2002
g62
(dp2003
sg71
g1033
sg64
(lp2004
g57
(g78
g59
NtRp2005
(dp2006
g62
(dp2007
g82
g83
ssg71
g2001
sg64
(lp2008
S'wsgi_version'
p2009
asbag57
(g78
g59
NtRp2010
(dp2011
g62
(dp2012
g89
g90
ssg71
g2001
sg64
(lp2013
S':'
asbag57
(g78
g59
NtRp2014
(dp2015
g62
(dp2016
sg71
g2001
sg64
(lp2017
g57
(g58
g59
NtRp2018
(dp2019
g62
(dp2020
g70
I4
ssg71
g2014
sg64
(lp2021
g57
(g66
g59
NtRp2022
(dp2023
g62
(dp2024
g70
I3
ssg71
Nsg64
(lp2025
g57
(g73
g59
NtRp2026
(dp2027
g62
(dp2028
sg71
g2022
sg64
(lp2029
g57
(g78
g59
NtRp2030
(dp2031
g62
(dp2032
sg71
g2026
sg64
(lp2033
g57
(g58
g59
NtRp2034
(dp2035
g62
(dp2036
g70
I3
ssg71
g2030
sg64
(lp2037
S'1'
asbasbasbag57
(g73
g59
NtRp2038
(dp2039
g62
(dp2040
sg71
g2022
sg64
(lp2041
g57
(g78
g59
NtRp2042
(dp2043
g62
(dp2044
sg71
g2038
sg64
(lp2045
g57
(g58
g59
NtRp2046
(dp2047
g62
(dp2048
g70
I3
ssg71
g2042
sg64
(lp2049
S'0'
asbasbasbasbasbasbasbasbasbasbasbag57
(g73
g59
NtRp2050
(dp2051
g62
(dp2052
sg71
g67
sg64
(lp2053
g57
(g78
g59
NtRp2054
(dp2055
g62
(dp2056
g82
g83
ssg71
g2050
sg64
(lp2057
S'extension'
p2058
asbag57
(g78
g59
NtRp2059
(dp2060
g62
(dp2061
g89
g90
ssg71
g2050
sg64
(lp2062
S':'
asbag57
(g78
g59
NtRp2063
(dp2064
g62
(dp2065
sg71
g2050
sg64
(lp2066
g57
(g58
g59
NtRp2067
(dp2068
g62
(dp2069
g70
I5
ssg71
g2063
sg64
(lp2070
S'html'
p2071
asbasbasbag57
(g73
g59
NtRp2072
(dp2073
g62
(dp2074
sg71
g67
sg64
(lp2075
g57
(g78
g59
NtRp2076
(dp2077
g62
(dp2078
g82
g83
ssg71
g2072
sg64
(lp2079
S'folder'
p2080
asbag57
(g78
g59
NtRp2081
(dp2082
g62
(dp2083
g89
g90
ssg71
g2072
sg64
(lp2084
S':'
asbag57
(g78
g59
NtRp2085
(dp2086
g62
(dp2087
sg71
g2072
sg64
(lp2088
g57
(g58
g59
NtRp2089
(dp2090
g62
(dp2091
g70
I5
ssg71
g2085
sg64
(lp2092
S'/home/simran/web2py/applications/IIIT_calendars/'
p2093
asbasbasbag57
(g73
g59
NtRp2094
(dp2095
g62
(dp2096
sg71
g67
sg64
(lp2097
g57
(g78
g59
NtRp2098
(dp2099
g62
(dp2100
g82
g83
ssg71
g2094
sg64
(lp2101
S'function'
p2102
asbag57
(g78
g59
NtRp2103
(dp2104
g62
(dp2105
g89
g90
ssg71
g2094
sg64
(lp2106
S':'
asbag57
(g78
g59
NtRp2107
(dp2108
g62
(dp2109
sg71
g2094
sg64
(lp2110
g57
(g58
g59
NtRp2111
(dp2112
g62
(dp2113
g70
I5
ssg71
g2107
sg64
(lp2114
S'calendar'
p2115
asbasbasbag57
(g73
g59
NtRp2116
(dp2117
g62
(dp2118
sg71
g67
sg64
(lp2119
g57
(g78
g59
NtRp2120
(dp2121
g62
(dp2122
g82
g83
ssg71
g2116
sg64
(lp2123
S'get_vars'
p2124
asbag57
(g78
g59
NtRp2125
(dp2126
g62
(dp2127
g89
g90
ssg71
g2116
sg64
(lp2128
S':'
asbag57
(g78
g59
NtRp2129
(dp2130
g62
(dp2131
sg71
g2116
sg64
(lp2132
g57
(g58
g59
NtRp2133
(dp2134
g62
(dp2135
g70
I5
ssg71
g2129
sg64
(lp2136
g57
(g66
g59
NtRp2137
(dp2138
g62
(dp2139
g70
I4
ssg71
Nsg64
(lp2140
g57
(g73
g59
NtRp2141
(dp2142
g62
(dp2143
sg71
g2137
sg64
(lp2144
g57
(g78
g59
NtRp2145
(dp2146
g62
(dp2147
g82
g83
ssg71
g2141
sg64
(lp2148
S'username'
p2149
asbag57
(g78
g59
NtRp2150
(dp2151
g62
(dp2152
g89
g90
ssg71
g2141
sg64
(lp2153
S':'
asbag57
(g78
g59
NtRp2154
(dp2155
g62
(dp2156
sg71
g2141
sg64
(lp2157
g57
(g58
g59
NtRp2158
(dp2159
g62
(dp2160
g70
I4
ssg71
g2154
sg64
(lp2161
S'20'
p2162
asbasbasbasbasbasbasbag57
(g73
g59
NtRp2163
(dp2164
g62
(dp2165
sg71
g67
sg64
(lp2166
g57
(g78
g59
NtRp2167
(dp2168
g62
(dp2169
g82
g83
ssg71
g2163
sg64
(lp2170
S'global_settings'
p2171
asbag57
(g78
g59
NtRp2172
(dp2173
g62
(dp2174
g89
g90
ssg71
g2163
sg64
(lp2175
S':'
asbag57
(g78
g59
NtRp2176
(dp2177
g62
(dp2178
sg71
g2163
sg64
(lp2179
g57
(g58
g59
NtRp2180
(dp2181
g62
(dp2182
g70
I5
ssg71
g2176
sg64
(lp2183
g57
(g66
g59
NtRp2184
(dp2185
g62
(dp2186
g70
I4
ssg71
Nsg64
(lp2187
g57
(g73
g59
NtRp2188
(dp2189
g62
(dp2190
sg71
g2184
sg64
(lp2191
g57
(g78
g59
NtRp2192
(dp2193
g62
(dp2194
g82
g83
ssg71
g2188
sg64
(lp2195
g1045
asbag57
(g78
g59
NtRp2196
(dp2197
g62
(dp2198
g89
g90
ssg71
g2188
sg64
(lp2199
S':'
asbag57
(g78
g59
NtRp2200
(dp2201
g62
(dp2202
sg71
g2188
sg64
(lp2203
g57
(g58
g59
NtRp2204
(dp2205
g62
(dp2206
g70
I4
ssg71
g2200
sg64
(lp2207
S"set(['/home/simran/web2py/applications/welcome/', '/home/simran/web2py/applications/calendar/', '/home/simran/web2py/applications/IIIT_calendars/', '/home/simran/web2py/applications/admin/'])"
p2208
asbasbasbag57
(g73
g59
NtRp2209
(dp2210
g62
(dp2211
sg71
g2184
sg64
(lp2212
g57
(g78
g59
NtRp2213
(dp2214
g62
(dp2215
g82
g83
ssg71
g2209
sg64
(lp2216
g1067
asbag57
(g78
g59
NtRp2217
(dp2218
g62
(dp2219
g89
g90
ssg71
g2209
sg64
(lp2220
S':'
asbag57
(g78
g59
NtRp2221
(dp2222
g62
(dp2223
sg71
g2209
sg64
(lp2224
g57
(g58
g59
NtRp2225
(dp2226
g62
(dp2227
g70
I4
ssg71
g2221
sg64
(lp2228
g1080
asbasbasbag57
(g73
g59
NtRp2229
(dp2230
g62
(dp2231
sg71
g2184
sg64
(lp2232
g57
(g78
g59
NtRp2233
(dp2234
g62
(dp2235
g82
g83
ssg71
g2229
sg64
(lp2236
g1089
asbag57
(g78
g59
NtRp2237
(dp2238
g62
(dp2239
g89
g90
ssg71
g2229
sg64
(lp2240
S':'
asbag57
(g78
g59
NtRp2241
(dp2242
g62
(dp2243
sg71
g2229
sg64
(lp2244
g57
(g58
g59
NtRp2245
(dp2246
g62
(dp2247
g70
I4
ssg71
g2241
sg64
(lp2248
g57
(g66
g59
NtRp2249
(dp2250
g62
(dp2251
g70
I3
ssg71
Nsg64
(lp2252
sbasbasbasbag57
(g73
g59
NtRp2253
(dp2254
g62
(dp2255
sg71
g2184
sg64
(lp2256
g57
(g78
g59
NtRp2257
(dp2258
g62
(dp2259
g82
g83
ssg71
g2253
sg64
(lp2260
g1114
asbag57
(g78
g59
NtRp2261
(dp2262
g62
(dp2263
g89
g90
ssg71
g2253
sg64
(lp2264
S':'
asbag57
(g78
g59
NtRp2265
(dp2266
g62
(dp2267
sg71
g2253
sg64
(lp2268
g57
(g58
g59
NtRp2269
(dp2270
g62
(dp2271
g70
I4
ssg71
g2265
sg64
(lp2272
S"<Values at 0x249a7e8: {'verbose': False, 'ip': '127.0.0.1', 'with_scheduler': False, 'ips': [], 'shutdown_timeout': 5, 'taskbar': False, 'port': 8000, 'maxthreads': None, 'softcron': False, 'server_name': 'ubuntu', 'bpython': False, 'nogui': False, 'pid_filename': 'httpserver.pid', 'extcron': False, 'runcron': False, 'run_system_tests': False, 'test': None, 'folder': '/home/simran/web2py', 'config': '', 'minthreads': None, 'winservice': '', 'shell': None, 'run': '', 'log_filename': 'httpserver.log', 'debuglevel': 30, 'args': [''], 'socket_timeout': 5, 'ssl_ca_certificate': None, 'scheduler': None, 'profiler_filename': None, 'ssl_private_key': '', 'scheduler_groups': None, 'password': '<ask>', 'request_queue_size': 5, 'ssl_certificate': '', 'cronjob': False, 'numthreads': None, 'quiet': False, 'interfaces': None, 'import_models': False, 'timeout': 10, 'plain': False, 'nobanner': False}>"
p2273
asbasbasbag57
(g73
g59
NtRp2274
(dp2275
g62
(dp2276
sg71
g2184
sg64
(lp2277
g57
(g78
g59
NtRp2278
(dp2279
g62
(dp2280
g82
g83
ssg71
g2274
sg64
(lp2281
g1136
asbag57
(g78
g59
NtRp2282
(dp2283
g62
(dp2284
g89
g90
ssg71
g2274
sg64
(lp2285
S':'
asbag57
(g78
g59
NtRp2286
(dp2287
g62
(dp2288
sg71
g2274
sg64
(lp2289
g57
(g58
g59
NtRp2290
(dp2291
g62
(dp2292
g70
I4
ssg71
g2286
sg64
(lp2293
S'set([])'
p2294
asbasbasbag57
(g73
g59
NtRp2295
(dp2296
g62
(dp2297
sg71
g2184
sg64
(lp2298
g57
(g78
g59
NtRp2299
(dp2300
g62
(dp2301
g82
g83
ssg71
g2295
sg64
(lp2302
g1158
asbag57
(g78
g59
NtRp2303
(dp2304
g62
(dp2305
g89
g90
ssg71
g2295
sg64
(lp2306
S':'
asbag57
(g78
g59
NtRp2307
(dp2308
g62
(dp2309
sg71
g2295
sg64
(lp2310
g57
(g58
g59
NtRp2311
(dp2312
g62
(dp2313
g70
I4
ssg71
g2307
sg64
(lp2314
g100
asbasbasbag57
(g73
g59
NtRp2315
(dp2316
g62
(dp2317
sg71
g2184
sg64
(lp2318
g57
(g78
g59
NtRp2319
(dp2320
g62
(dp2321
g82
g83
ssg71
g2315
sg64
(lp2322
g1179
asbag57
(g78
g59
NtRp2323
(dp2324
g62
(dp2325
g89
g90
ssg71
g2315
sg64
(lp2326
S':'
asbag57
(g78
g59
NtRp2327
(dp2328
g62
(dp2329
sg71
g2315
sg64
(lp2330
g57
(g58
g59
NtRp2331
(dp2332
g62
(dp2333
g70
I4
ssg71
g2327
sg64
(lp2334
g1192
asbasbasbag57
(g73
g59
NtRp2335
(dp2336
g62
(dp2337
sg71
g2184
sg64
(lp2338
g57
(g78
g59
NtRp2339
(dp2340
g62
(dp2341
g82
g83
ssg71
g2335
sg64
(lp2342
g1377
asbag57
(g78
g59
NtRp2343
(dp2344
g62
(dp2345
g89
g90
ssg71
g2335
sg64
(lp2346
S':'
asbag57
(g78
g59
NtRp2347
(dp2348
g62
(dp2349
sg71
g2335
sg64
(lp2350
g57
(g58
g59
NtRp2351
(dp2352
g62
(dp2353
g70
I4
ssg71
g2347
sg64
(lp2354
g100
asbasbasbag57
(g73
g59
NtRp2355
(dp2356
g62
(dp2357
sg71
g2184
sg64
(lp2358
g57
(g78
g59
NtRp2359
(dp2360
g62
(dp2361
g82
g83
ssg71
g2355
sg64
(lp2362
g1398
asbag57
(g78
g59
NtRp2363
(dp2364
g62
(dp2365
g89
g90
ssg71
g2355
sg64
(lp2366
S':'
asbag57
(g78
g59
NtRp2367
(dp2368
g62
(dp2369
sg71
g2355
sg64
(lp2370
g57
(g58
g59
NtRp2371
(dp2372
g62
(dp2373
g70
I4
ssg71
g2367
sg64
(lp2374
g100
asbasbasbag57
(g73
g59
NtRp2375
(dp2376
g62
(dp2377
sg71
g2184
sg64
(lp2378
g57
(g78
g59
NtRp2379
(dp2380
g62
(dp2381
g82
g83
ssg71
g2375
sg64
(lp2382
g1419
asbag57
(g78
g59
NtRp2383
(dp2384
g62
(dp2385
g89
g90
ssg71
g2375
sg64
(lp2386
S':'
asbag57
(g78
g59
NtRp2387
(dp2388
g62
(dp2389
sg71
g2375
sg64
(lp2390
g57
(g58
g59
NtRp2391
(dp2392
g62
(dp2393
g70
I4
ssg71
g2387
sg64
(lp2394
g57
(g66
g59
NtRp2395
(dp2396
g62
(dp2397
g70
I3
ssg71
Nsg64
(lp2398
g57
(g73
g59
NtRp2399
(dp2400
g62
(dp2401
sg71
g2395
sg64
(lp2402
g57
(g78
g59
NtRp2403
(dp2404
g62
(dp2405
sg71
g2399
sg64
(lp2406
g57
(g58
g59
NtRp2407
(dp2408
g62
(dp2409
g70
I3
ssg71
g2403
sg64
(lp2410
g1448
asbasbasbag57
(g73
g59
NtRp2411
(dp2412
g62
(dp2413
sg71
g2395
sg64
(lp2414
g57
(g78
g59
NtRp2415
(dp2416
g62
(dp2417
sg71
g2411
sg64
(lp2418
g57
(g58
g59
NtRp2419
(dp2420
g62
(dp2421
g70
I3
ssg71
g2415
sg64
(lp2422
g1461
asbasbasbag57
(g73
g59
NtRp2423
(dp2424
g62
(dp2425
sg71
g2395
sg64
(lp2426
g57
(g78
g59
NtRp2427
(dp2428
g62
(dp2429
sg71
g2423
sg64
(lp2430
g57
(g58
g59
NtRp2431
(dp2432
g62
(dp2433
g70
I3
ssg71
g2427
sg64
(lp2434
g1474
asbasbasbag57
(g73
g59
NtRp2435
(dp2436
g62
(dp2437
sg71
g2395
sg64
(lp2438
g57
(g78
g59
NtRp2439
(dp2440
g62
(dp2441
sg71
g2435
sg64
(lp2442
g57
(g58
g59
NtRp2443
(dp2444
g62
(dp2445
g70
I3
ssg71
g2439
sg64
(lp2446
g1487
asbasbasbag57
(g73
g59
NtRp2447
(dp2448
g62
(dp2449
sg71
g2395
sg64
(lp2450
g57
(g78
g59
NtRp2451
(dp2452
g62
(dp2453
sg71
g2447
sg64
(lp2454
g57
(g58
g59
NtRp2455
(dp2456
g62
(dp2457
g70
I3
ssg71
g2451
sg64
(lp2458
g1500
asbasbasbasbasbasbasbag57
(g73
g59
NtRp2459
(dp2460
g62
(dp2461
sg71
g2184
sg64
(lp2462
g57
(g78
g59
NtRp2463
(dp2464
g62
(dp2465
g82
g83
ssg71
g2459
sg64
(lp2466
g1770
asbag57
(g78
g59
NtRp2467
(dp2468
g62
(dp2469
g89
g90
ssg71
g2459
sg64
(lp2470
S':'
asbag57
(g78
g59
NtRp2471
(dp2472
g62
(dp2473
sg71
g2459
sg64
(lp2474
g57
(g58
g59
NtRp2475
(dp2476
g62
(dp2477
g70
I4
ssg71
g2471
sg64
(lp2478
g57
(g66
g59
NtRp2479
(dp2480
g62
(dp2481
g70
I3
ssg71
Nsg64
(lp2482
g57
(g73
g59
NtRp2483
(dp2484
g62
(dp2485
sg71
g2479
sg64
(lp2486
g57
(g78
g59
NtRp2487
(dp2488
g62
(dp2489
sg71
g2483
sg64
(lp2490
g57
(g58
g59
NtRp2491
(dp2492
g62
(dp2493
g70
I3
ssg71
g2487
sg64
(lp2494
S'2'
asbasbasbag57
(g73
g59
NtRp2495
(dp2496
g62
(dp2497
sg71
g2479
sg64
(lp2498
g57
(g78
g59
NtRp2499
(dp2500
g62
(dp2501
sg71
g2495
sg64
(lp2502
g57
(g58
g59
NtRp2503
(dp2504
g62
(dp2505
g70
I3
ssg71
g2499
sg64
(lp2506
S'3'
asbasbasbag57
(g73
g59
NtRp2507
(dp2508
g62
(dp2509
sg71
g2479
sg64
(lp2510
g57
(g78
g59
NtRp2511
(dp2512
g62
(dp2513
sg71
g2507
sg64
(lp2514
g57
(g58
g59
NtRp2515
(dp2516
g62
(dp2517
g70
I3
ssg71
g2511
sg64
(lp2518
S'2'
asbasbasbag57
(g73
g59
NtRp2519
(dp2520
g62
(dp2521
sg71
g2479
sg64
(lp2522
g57
(g78
g59
NtRp2523
(dp2524
g62
(dp2525
sg71
g2519
sg64
(lp2526
g57
(g58
g59
NtRp2527
(dp2528
g62
(dp2529
g70
I3
ssg71
g2523
sg64
(lp2530
S'datetime.datetime(2012, 12, 17, 15, 3, 30)'
p2531
asbasbasbag57
(g73
g59
NtRp2532
(dp2533
g62
(dp2534
sg71
g2479
sg64
(lp2535
g57
(g78
g59
NtRp2536
(dp2537
g62
(dp2538
sg71
g2532
sg64
(lp2539
g57
(g58
g59
NtRp2540
(dp2541
g62
(dp2542
g70
I3
ssg71
g2536
sg64
(lp2543
g1848
asbasbasbasbasbasbasbasbasbasbasbag57
(g73
g59
NtRp2544
(dp2545
g62
(dp2546
sg71
g67
sg64
(lp2547
g57
(g78
g59
NtRp2548
(dp2549
g62
(dp2550
g82
g83
ssg71
g2544
sg64
(lp2551
S'is_https'
p2552
asbag57
(g78
g59
NtRp2553
(dp2554
g62
(dp2555
g89
g90
ssg71
g2544
sg64
(lp2556
S':'
asbag57
(g78
g59
NtRp2557
(dp2558
g62
(dp2559
sg71
g2544
sg64
(lp2560
g57
(g58
g59
NtRp2561
(dp2562
g62
(dp2563
g70
I5
ssg71
g2557
sg64
(lp2564
g100
asbasbasbag57
(g73
g59
NtRp2565
(dp2566
g62
(dp2567
sg71
g67
sg64
(lp2568
g57
(g78
g59
NtRp2569
(dp2570
g62
(dp2571
g82
g83
ssg71
g2565
sg64
(lp2572
S'is_local'
p2573
asbag57
(g78
g59
NtRp2574
(dp2575
g62
(dp2576
g89
g90
ssg71
g2565
sg64
(lp2577
S':'
asbag57
(g78
g59
NtRp2578
(dp2579
g62
(dp2580
sg71
g2565
sg64
(lp2581
g57
(g58
g59
NtRp2582
(dp2583
g62
(dp2584
g70
I5
ssg71
g2578
sg64
(lp2585
g1957
asbasbasbag57
(g73
g59
NtRp2586
(dp2587
g62
(dp2588
sg71
g67
sg64
(lp2589
g57
(g78
g59
NtRp2590
(dp2591
g62
(dp2592
g82
g83
ssg71
g2586
sg64
(lp2593
S'is_restful'
p2594
asbag57
(g78
g59
NtRp2595
(dp2596
g62
(dp2597
g89
g90
ssg71
g2586
sg64
(lp2598
S':'
asbag57
(g78
g59
NtRp2599
(dp2600
g62
(dp2601
sg71
g2586
sg64
(lp2602
g57
(g58
g59
NtRp2603
(dp2604
g62
(dp2605
g70
I5
ssg71
g2599
sg64
(lp2606
g100
asbasbasbag57
(g73
g59
NtRp2607
(dp2608
g62
(dp2609
sg71
g67
sg64
(lp2610
g57
(g78
g59
NtRp2611
(dp2612
g62
(dp2613
g82
g83
ssg71
g2607
sg64
(lp2614
S'now'
p2615
asbag57
(g78
g59
NtRp2616
(dp2617
g62
(dp2618
g89
g90
ssg71
g2607
sg64
(lp2619
S':'
asbag57
(g78
g59
NtRp2620
(dp2621
g62
(dp2622
sg71
g2607
sg64
(lp2623
g57
(g58
g59
NtRp2624
(dp2625
g62
(dp2626
g70
I5
ssg71
g2620
sg64
(lp2627
S'datetime.datetime(2013, 4, 13, 14, 44, 21, 917219)'
p2628
asbasbasbag57
(g73
g59
NtRp2629
(dp2630
g62
(dp2631
sg71
g67
sg64
(lp2632
g57
(g78
g59
NtRp2633
(dp2634
g62
(dp2635
g82
g83
ssg71
g2629
sg64
(lp2636
S'post_vars'
p2637
asbag57
(g78
g59
NtRp2638
(dp2639
g62
(dp2640
g89
g90
ssg71
g2629
sg64
(lp2641
S':'
asbag57
(g78
g59
NtRp2642
(dp2643
g62
(dp2644
sg71
g2629
sg64
(lp2645
g57
(g58
g59
NtRp2646
(dp2647
g62
(dp2648
g70
I5
ssg71
g2642
sg64
(lp2649
g57
(g66
g59
NtRp2650
(dp2651
g62
(dp2652
g70
I4
ssg71
Nsg64
(lp2653
sbasbasbasbag57
(g73
g59
NtRp2654
(dp2655
g62
(dp2656
sg71
g67
sg64
(lp2657
g57
(g78
g59
NtRp2658
(dp2659
g62
(dp2660
g82
g83
ssg71
g2654
sg64
(lp2661
S'raw_args'
p2662
asbag57
(g78
g59
NtRp2663
(dp2664
g62
(dp2665
g89
g90
ssg71
g2654
sg64
(lp2666
S':'
asbag57
(g78
g59
NtRp2667
(dp2668
g62
(dp2669
sg71
g2654
sg64
(lp2670
g57
(g58
g59
NtRp2671
(dp2672
g62
(dp2673
g70
I5
ssg71
g2667
sg64
(lp2674
S''
asbasbasbag57
(g73
g59
NtRp2675
(dp2676
g62
(dp2677
sg71
g67
sg64
(lp2678
g57
(g78
g59
NtRp2679
(dp2680
g62
(dp2681
g82
g83
ssg71
g2675
sg64
(lp2682
S'raw_extension'
p2683
asbag57
(g78
g59
NtRp2684
(dp2685
g62
(dp2686
g89
g90
ssg71
g2675
sg64
(lp2687
S':'
asbag57
(g78
g59
NtRp2688
(dp2689
g62
(dp2690
sg71
g2675
sg64
(lp2691
g57
(g58
g59
NtRp2692
(dp2693
g62
(dp2694
g70
I5
ssg71
g2688
sg64
(lp2695
g2071
asbasbasbag57
(g73
g59
NtRp2696
(dp2697
g62
(dp2698
sg71
g67
sg64
(lp2699
g57
(g78
g59
NtRp2700
(dp2701
g62
(dp2702
g82
g83
ssg71
g2696
sg64
(lp2703
S'url'
p2704
asbag57
(g78
g59
NtRp2705
(dp2706
g62
(dp2707
g89
g90
ssg71
g2696
sg64
(lp2708
S':'
asbag57
(g78
g59
NtRp2709
(dp2710
g62
(dp2711
sg71
g2696
sg64
(lp2712
g57
(g58
g59
NtRp2713
(dp2714
g62
(dp2715
g70
I5
ssg71
g2709
sg64
(lp2716
g1522
asbasbasbag57
(g73
g59
NtRp2717
(dp2718
g62
(dp2719
sg71
g67
sg64
(lp2720
g57
(g78
g59
NtRp2721
(dp2722
g62
(dp2723
g82
g83
ssg71
g2717
sg64
(lp2724
S'utcnow'
p2725
asbag57
(g78
g59
NtRp2726
(dp2727
g62
(dp2728
g89
g90
ssg71
g2717
sg64
(lp2729
S':'
asbag57
(g78
g59
NtRp2730
(dp2731
g62
(dp2732
sg71
g2717
sg64
(lp2733
g57
(g58
g59
NtRp2734
(dp2735
g62
(dp2736
g70
I5
ssg71
g2730
sg64
(lp2737
S'datetime.datetime(2013, 4, 13, 9, 14, 21, 917248)'
p2738
asbasbasbag57
(g73
g59
NtRp2739
(dp2740
g62
(dp2741
sg71
g67
sg64
(lp2742
g57
(g78
g59
NtRp2743
(dp2744
g62
(dp2745
g82
g83
ssg71
g2739
sg64
(lp2746
S'uuid'
p2747
asbag57
(g78
g59
NtRp2748
(dp2749
g62
(dp2750
g89
g90
ssg71
g2739
sg64
(lp2751
S':'
asbag57
(g78
g59
NtRp2752
(dp2753
g62
(dp2754
sg71
g2739
sg64
(lp2755
g57
(g58
g59
NtRp2756
(dp2757
g62
(dp2758
g70
I5
ssg71
g2752
sg64
(lp2759
S'IIIT_calendars/127.0.0.1.2013-04-13.14-44-21.c1d05dca-1598-44a5-b247-ecfc96bb1bb7'
p2760
asbasbasbag57
(g73
g59
NtRp2761
(dp2762
g62
(dp2763
sg71
g67
sg64
(lp2764
g57
(g78
g59
NtRp2765
(dp2766
g62
(dp2767
g82
g83
ssg71
g2761
sg64
(lp2768
S'vars'
p2769
asbag57
(g78
g59
NtRp2770
(dp2771
g62
(dp2772
g89
g90
ssg71
g2761
sg64
(lp2773
S':'
asbag57
(g78
g59
NtRp2774
(dp2775
g62
(dp2776
sg71
g2761
sg64
(lp2777
g57
(g58
g59
NtRp2778
(dp2779
g62
(dp2780
g70
I5
ssg71
g2774
sg64
(lp2781
g57
(g66
g59
NtRp2782
(dp2783
g62
(dp2784
g70
I4
ssg71
Nsg64
(lp2785
g57
(g73
g59
NtRp2786
(dp2787
g62
(dp2788
sg71
g2782
sg64
(lp2789
g57
(g78
g59
NtRp2790
(dp2791
g62
(dp2792
g82
g83
ssg71
g2786
sg64
(lp2793
g2149
asbag57
(g78
g59
NtRp2794
(dp2795
g62
(dp2796
g89
g90
ssg71
g2786
sg64
(lp2797
S':'
asbag57
(g78
g59
NtRp2798
(dp2799
g62
(dp2800
sg71
g2786
sg64
(lp2801
g57
(g58
g59
NtRp2802
(dp2803
g62
(dp2804
g70
I4
ssg71
g2798
sg64
(lp2805
g2162
asbasbasbasbasbasbasbag57
(g73
g59
NtRp2806
(dp2807
g62
(dp2808
sg71
g67
sg64
(lp2809
g57
(g78
g59
NtRp2810
(dp2811
g62
(dp2812
g82
g83
ssg71
g2806
sg64
(lp2813
S'wsgi'
p2814
asbag57
(g78
g59
NtRp2815
(dp2816
g62
(dp2817
g89
g90
ssg71
g2806
sg64
(lp2818
S':'
asbag57
(g78
g59
NtRp2819
(dp2820
g62
(dp2821
sg71
g2806
sg64
(lp2822
g57
(g58
g59
NtRp2823
(dp2824
g62
(dp2825
g70
I5
ssg71
g2819
sg64
(lp2826
g57
(g66
g59
NtRp2827
(dp2828
g62
(dp2829
g70
I4
ssg71
Nsg64
(lp2830
g57
(g73
g59
NtRp2831
(dp2832
g62
(dp2833
sg71
g2827
sg64
(lp2834
g57
(g78
g59
NtRp2835
(dp2836
g62
(dp2837
g82
g83
ssg71
g2831
sg64
(lp2838
S'environ'
p2839
asbag57
(g78
g59
NtRp2840
(dp2841
g62
(dp2842
g89
g90
ssg71
g2831
sg64
(lp2843
S':'
asbag57
(g78
g59
NtRp2844
(dp2845
g62
(dp2846
sg71
g2831
sg64
(lp2847
g57
(g58
g59
NtRp2848
(dp2849
g62
(dp2850
g70
I4
ssg71
g2844
sg64
(lp2851
g57
(g66
g59
NtRp2852
(dp2853
g62
(dp2854
g70
I3
ssg71
Nsg64
(lp2855
g57
(g73
g59
NtRp2856
(dp2857
g62
(dp2858
sg71
g2852
sg64
(lp2859
g57
(g78
g59
NtRp2860
(dp2861
g62
(dp2862
g82
g83
ssg71
g2856
sg64
(lp2863
S'HTTP_ACCEPT'
p2864
asbag57
(g78
g59
NtRp2865
(dp2866
g62
(dp2867
g89
g90
ssg71
g2856
sg64
(lp2868
S':'
asbag57
(g78
g59
NtRp2869
(dp2870
g62
(dp2871
sg71
g2856
sg64
(lp2872
g57
(g58
g59
NtRp2873
(dp2874
g62
(dp2875
g70
I3
ssg71
g2869
sg64
(lp2876
g1214
asbasbasbag57
(g73
g59
NtRp2877
(dp2878
g62
(dp2879
sg71
g2852
sg64
(lp2880
g57
(g78
g59
NtRp2881
(dp2882
g62
(dp2883
g82
g83
ssg71
g2877
sg64
(lp2884
S'HTTP_ACCEPT_ENCODING'
p2885
asbag57
(g78
g59
NtRp2886
(dp2887
g62
(dp2888
g89
g90
ssg71
g2877
sg64
(lp2889
S':'
asbag57
(g78
g59
NtRp2890
(dp2891
g62
(dp2892
sg71
g2877
sg64
(lp2893
g57
(g58
g59
NtRp2894
(dp2895
g62
(dp2896
g70
I3
ssg71
g2890
sg64
(lp2897
g1236
asbasbasbag57
(g73
g59
NtRp2898
(dp2899
g62
(dp2900
sg71
g2852
sg64
(lp2901
g57
(g78
g59
NtRp2902
(dp2903
g62
(dp2904
g82
g83
ssg71
g2898
sg64
(lp2905
S'HTTP_ACCEPT_LANGUAGE'
p2906
asbag57
(g78
g59
NtRp2907
(dp2908
g62
(dp2909
g89
g90
ssg71
g2898
sg64
(lp2910
S':'
asbag57
(g78
g59
NtRp2911
(dp2912
g62
(dp2913
sg71
g2898
sg64
(lp2914
g57
(g58
g59
NtRp2915
(dp2916
g62
(dp2917
g70
I3
ssg71
g2911
sg64
(lp2918
g1258
asbasbasbag57
(g73
g59
NtRp2919
(dp2920
g62
(dp2921
sg71
g2852
sg64
(lp2922
g57
(g78
g59
NtRp2923
(dp2924
g62
(dp2925
g82
g83
ssg71
g2919
sg64
(lp2926
S'HTTP_CONNECTION'
p2927
asbag57
(g78
g59
NtRp2928
(dp2929
g62
(dp2930
g89
g90
ssg71
g2919
sg64
(lp2931
S':'
asbag57
(g78
g59
NtRp2932
(dp2933
g62
(dp2934
sg71
g2919
sg64
(lp2935
g57
(g58
g59
NtRp2936
(dp2937
g62
(dp2938
g70
I3
ssg71
g2932
sg64
(lp2939
g1280
asbasbasbag57
(g73
g59
NtRp2940
(dp2941
g62
(dp2942
sg71
g2852
sg64
(lp2943
g57
(g78
g59
NtRp2944
(dp2945
g62
(dp2946
g82
g83
ssg71
g2940
sg64
(lp2947
S'HTTP_COOKIE'
p2948
asbag57
(g78
g59
NtRp2949
(dp2950
g62
(dp2951
g89
g90
ssg71
g2940
sg64
(lp2952
S':'
asbag57
(g78
g59
NtRp2953
(dp2954
g62
(dp2955
sg71
g2940
sg64
(lp2956
g57
(g58
g59
NtRp2957
(dp2958
g62
(dp2959
g70
I3
ssg71
g2953
sg64
(lp2960
g1302
asbasbasbag57
(g73
g59
NtRp2961
(dp2962
g62
(dp2963
sg71
g2852
sg64
(lp2964
g57
(g78
g59
NtRp2965
(dp2966
g62
(dp2967
g82
g83
ssg71
g2961
sg64
(lp2968
S'HTTP_HOST'
p2969
asbag57
(g78
g59
NtRp2970
(dp2971
g62
(dp2972
g89
g90
ssg71
g2961
sg64
(lp2973
S':'
asbag57
(g78
g59
NtRp2974
(dp2975
g62
(dp2976
sg71
g2961
sg64
(lp2977
g57
(g58
g59
NtRp2978
(dp2979
g62
(dp2980
g70
I3
ssg71
g2974
sg64
(lp2981
g1324
asbasbasbag57
(g73
g59
NtRp2982
(dp2983
g62
(dp2984
sg71
g2852
sg64
(lp2985
g57
(g78
g59
NtRp2986
(dp2987
g62
(dp2988
g82
g83
ssg71
g2982
sg64
(lp2989
S'HTTP_REFERER'
p2990
asbag57
(g78
g59
NtRp2991
(dp2992
g62
(dp2993
g89
g90
ssg71
g2982
sg64
(lp2994
S':'
asbag57
(g78
g59
NtRp2995
(dp2996
g62
(dp2997
sg71
g2982
sg64
(lp2998
g57
(g58
g59
NtRp2999
(dp3000
g62
(dp3001
g70
I3
ssg71
g2995
sg64
(lp3002
g1346
asbasbasbag57
(g73
g59
NtRp3003
(dp3004
g62
(dp3005
sg71
g2852
sg64
(lp3006
g57
(g78
g59
NtRp3007
(dp3008
g62
(dp3009
g82
g83
ssg71
g3003
sg64
(lp3010
S'HTTP_USER_AGENT'
p3011
asbag57
(g78
g59
NtRp3012
(dp3013
g62
(dp3014
g89
g90
ssg71
g3003
sg64
(lp3015
S':'
asbag57
(g78
g59
NtRp3016
(dp3017
g62
(dp3018
sg71
g3003
sg64
(lp3019
g57
(g58
g59
NtRp3020
(dp3021
g62
(dp3022
g70
I3
ssg71
g3016
sg64
(lp3023
g1368
asbasbasbag57
(g73
g59
NtRp3024
(dp3025
g62
(dp3026
sg71
g2852
sg64
(lp3027
g57
(g78
g59
NtRp3028
(dp3029
g62
(dp3030
g82
g83
ssg71
g3024
sg64
(lp3031
S'PATH_INFO'
p3032
asbag57
(g78
g59
NtRp3033
(dp3034
g62
(dp3035
g89
g90
ssg71
g3024
sg64
(lp3036
S':'
asbag57
(g78
g59
NtRp3037
(dp3038
g62
(dp3039
sg71
g3024
sg64
(lp3040
g57
(g58
g59
NtRp3041
(dp3042
g62
(dp3043
g70
I3
ssg71
g3037
sg64
(lp3044
g1522
asbasbasbag57
(g73
g59
NtRp3045
(dp3046
g62
(dp3047
sg71
g2852
sg64
(lp3048
g57
(g78
g59
NtRp3049
(dp3050
g62
(dp3051
g82
g83
ssg71
g3045
sg64
(lp3052
S'QUERY_STRING'
p3053
asbag57
(g78
g59
NtRp3054
(dp3055
g62
(dp3056
g89
g90
ssg71
g3045
sg64
(lp3057
S':'
asbag57
(g78
g59
NtRp3058
(dp3059
g62
(dp3060
sg71
g3045
sg64
(lp3061
g57
(g58
g59
NtRp3062
(dp3063
g62
(dp3064
g70
I3
ssg71
g3058
sg64
(lp3065
g1544
asbasbasbag57
(g73
g59
NtRp3066
(dp3067
g62
(dp3068
sg71
g2852
sg64
(lp3069
g57
(g78
g59
NtRp3070
(dp3071
g62
(dp3072
g82
g83
ssg71
g3066
sg64
(lp3073
S'REMOTE_ADDR'
p3074
asbag57
(g78
g59
NtRp3075
(dp3076
g62
(dp3077
g89
g90
ssg71
g3066
sg64
(lp3078
S':'
asbag57
(g78
g59
NtRp3079
(dp3080
g62
(dp3081
sg71
g3066
sg64
(lp3082
g57
(g58
g59
NtRp3083
(dp3084
g62
(dp3085
g70
I3
ssg71
g3079
sg64
(lp3086
g212
asbasbasbag57
(g73
g59
NtRp3087
(dp3088
g62
(dp3089
sg71
g2852
sg64
(lp3090
g57
(g78
g59
NtRp3091
(dp3092
g62
(dp3093
g82
g83
ssg71
g3087
sg64
(lp3094
S'REMOTE_PORT'
p3095
asbag57
(g78
g59
NtRp3096
(dp3097
g62
(dp3098
g89
g90
ssg71
g3087
sg64
(lp3099
S':'
asbag57
(g78
g59
NtRp3100
(dp3101
g62
(dp3102
sg71
g3087
sg64
(lp3103
g57
(g58
g59
NtRp3104
(dp3105
g62
(dp3106
g70
I3
ssg71
g3100
sg64
(lp3107
g1587
asbasbasbag57
(g73
g59
NtRp3108
(dp3109
g62
(dp3110
sg71
g2852
sg64
(lp3111
g57
(g78
g59
NtRp3112
(dp3113
g62
(dp3114
g82
g83
ssg71
g3108
sg64
(lp3115
S'REQUEST_METHOD'
p3116
asbag57
(g78
g59
NtRp3117
(dp3118
g62
(dp3119
g89
g90
ssg71
g3108
sg64
(lp3120
S':'
asbag57
(g78
g59
NtRp3121
(dp3122
g62
(dp3123
sg71
g3108
sg64
(lp3124
g57
(g58
g59
NtRp3125
(dp3126
g62
(dp3127
g70
I3
ssg71
g3121
sg64
(lp3128
g1609
asbasbasbag57
(g73
g59
NtRp3129
(dp3130
g62
(dp3131
sg71
g2852
sg64
(lp3132
g57
(g78
g59
NtRp3133
(dp3134
g62
(dp3135
g82
g83
ssg71
g3129
sg64
(lp3136
S'REQUEST_URI'
p3137
asbag57
(g78
g59
NtRp3138
(dp3139
g62
(dp3140
g89
g90
ssg71
g3129
sg64
(lp3141
S':'
asbag57
(g78
g59
NtRp3142
(dp3143
g62
(dp3144
sg71
g3129
sg64
(lp3145
g57
(g58
g59
NtRp3146
(dp3147
g62
(dp3148
g70
I3
ssg71
g3142
sg64
(lp3149
g1631
asbasbasbag57
(g73
g59
NtRp3150
(dp3151
g62
(dp3152
sg71
g2852
sg64
(lp3153
g57
(g78
g59
NtRp3154
(dp3155
g62
(dp3156
g82
g83
ssg71
g3150
sg64
(lp3157
S'SCRIPT_NAME'
p3158
asbag57
(g78
g59
NtRp3159
(dp3160
g62
(dp3161
g89
g90
ssg71
g3150
sg64
(lp3162
S':'
asbag57
(g78
g59
NtRp3163
(dp3164
g62
(dp3165
sg71
g3150
sg64
(lp3166
g57
(g58
g59
NtRp3167
(dp3168
g62
(dp3169
g70
I3
ssg71
g3163
sg64
(lp3170
S''
asbasbasbag57
(g73
g59
NtRp3171
(dp3172
g62
(dp3173
sg71
g2852
sg64
(lp3174
g57
(g78
g59
NtRp3175
(dp3176
g62
(dp3177
g82
g83
ssg71
g3171
sg64
(lp3178
S'SERVER_NAME'
p3179
asbag57
(g78
g59
NtRp3180
(dp3181
g62
(dp3182
g89
g90
ssg71
g3171
sg64
(lp3183
S':'
asbag57
(g78
g59
NtRp3184
(dp3185
g62
(dp3186
sg71
g3171
sg64
(lp3187
g57
(g58
g59
NtRp3188
(dp3189
g62
(dp3190
g70
I3
ssg71
g3184
sg64
(lp3191
g1674
asbasbasbag57
(g73
g59
NtRp3192
(dp3193
g62
(dp3194
sg71
g2852
sg64
(lp3195
g57
(g78
g59
NtRp3196
(dp3197
g62
(dp3198
g82
g83
ssg71
g3192
sg64
(lp3199
S'SERVER_PORT'
p3200
asbag57
(g78
g59
NtRp3201
(dp3202
g62
(dp3203
g89
g90
ssg71
g3192
sg64
(lp3204
S':'
asbag57
(g78
g59
NtRp3205
(dp3206
g62
(dp3207
sg71
g3192
sg64
(lp3208
g57
(g58
g59
NtRp3209
(dp3210
g62
(dp3211
g70
I3
ssg71
g3205
sg64
(lp3212
g1696
asbasbasbag57
(g73
g59
NtRp3213
(dp3214
g62
(dp3215
sg71
g2852
sg64
(lp3216
g57
(g78
g59
NtRp3217
(dp3218
g62
(dp3219
g82
g83
ssg71
g3213
sg64
(lp3220
S'SERVER_PROTOCOL'
p3221
asbag57
(g78
g59
NtRp3222
(dp3223
g62
(dp3224
g89
g90
ssg71
g3213
sg64
(lp3225
S':'
asbag57
(g78
g59
NtRp3226
(dp3227
g62
(dp3228
sg71
g3213
sg64
(lp3229
g57
(g58
g59
NtRp3230
(dp3231
g62
(dp3232
g70
I3
ssg71
g3226
sg64
(lp3233
g1718
asbasbasbag57
(g73
g59
NtRp3234
(dp3235
g62
(dp3236
sg71
g2852
sg64
(lp3237
g57
(g78
g59
NtRp3238
(dp3239
g62
(dp3240
g82
g83
ssg71
g3234
sg64
(lp3241
S'SERVER_SOFTWARE'
p3242
asbag57
(g78
g59
NtRp3243
(dp3244
g62
(dp3245
g89
g90
ssg71
g3234
sg64
(lp3246
S':'
asbag57
(g78
g59
NtRp3247
(dp3248
g62
(dp3249
sg71
g3234
sg64
(lp3250
g57
(g58
g59
NtRp3251
(dp3252
g62
(dp3253
g70
I3
ssg71
g3247
sg64
(lp3254
g1740
asbasbasbag57
(g73
g59
NtRp3255
(dp3256
g62
(dp3257
sg71
g2852
sg64
(lp3258
g57
(g78
g59
NtRp3259
(dp3260
g62
(dp3261
g82
g83
ssg71
g3255
sg64
(lp3262
S'wsgi.errors'
p3263
asbag57
(g78
g59
NtRp3264
(dp3265
g62
(dp3266
g89
g90
ssg71
g3255
sg64
(lp3267
S':'
asbag57
(g78
g59
NtRp3268
(dp3269
g62
(dp3270
sg71
g3255
sg64
(lp3271
g57
(g58
g59
NtRp3272
(dp3273
g62
(dp3274
g70
I3
ssg71
g3268
sg64
(lp3275
S"<open file '<stderr>', mode 'w' at 0x7fd6de5a5270>"
p3276
asbasbasbag57
(g73
g59
NtRp3277
(dp3278
g62
(dp3279
sg71
g2852
sg64
(lp3280
g57
(g78
g59
NtRp3281
(dp3282
g62
(dp3283
g82
g83
ssg71
g3277
sg64
(lp3284
S'wsgi.file_wrapper'
p3285
asbag57
(g78
g59
NtRp3286
(dp3287
g62
(dp3288
g89
g90
ssg71
g3277
sg64
(lp3289
S':'
asbag57
(g78
g59
NtRp3290
(dp3291
g62
(dp3292
sg71
g3277
sg64
(lp3293
g57
(g58
g59
NtRp3294
(dp3295
g62
(dp3296
g70
I3
ssg71
g3290
sg64
(lp3297
S'<class wsgiref.util.FileWrapper at 0x2404c18>'
p3298
asbasbasbag57
(g73
g59
NtRp3299
(dp3300
g62
(dp3301
sg71
g2852
sg64
(lp3302
g57
(g78
g59
NtRp3303
(dp3304
g62
(dp3305
g82
g83
ssg71
g3299
sg64
(lp3306
S'wsgi.input'
p3307
asbag57
(g78
g59
NtRp3308
(dp3309
g62
(dp3310
g89
g90
ssg71
g3299
sg64
(lp3311
S':'
asbag57
(g78
g59
NtRp3312
(dp3313
g62
(dp3314
sg71
g3299
sg64
(lp3315
g57
(g58
g59
NtRp3316
(dp3317
g62
(dp3318
g70
I3
ssg71
g3312
sg64
(lp3319
S'<cStringIO.StringO object at 0x7fd6ac0ad960>'
p3320
asbasbasbag57
(g73
g59
NtRp3321
(dp3322
g62
(dp3323
sg71
g2852
sg64
(lp3324
g57
(g78
g59
NtRp3325
(dp3326
g62
(dp3327
g82
g83
ssg71
g3321
sg64
(lp3328
S'wsgi.multiprocess'
p3329
asbag57
(g78
g59
NtRp3330
(dp3331
g62
(dp3332
g89
g90
ssg71
g3321
sg64
(lp3333
S':'
asbag57
(g78
g59
NtRp3334
(dp3335
g62
(dp3336
sg71
g3321
sg64
(lp3337
g57
(g58
g59
NtRp3338
(dp3339
g62
(dp3340
g70
I3
ssg71
g3334
sg64
(lp3341
g100
asbasbasbag57
(g73
g59
NtRp3342
(dp3343
g62
(dp3344
sg71
g2852
sg64
(lp3345
g57
(g78
g59
NtRp3346
(dp3347
g62
(dp3348
g82
g83
ssg71
g3342
sg64
(lp3349
S'wsgi.multithread'
p3350
asbag57
(g78
g59
NtRp3351
(dp3352
g62
(dp3353
g89
g90
ssg71
g3342
sg64
(lp3354
S':'
asbag57
(g78
g59
NtRp3355
(dp3356
g62
(dp3357
sg71
g3342
sg64
(lp3358
g57
(g58
g59
NtRp3359
(dp3360
g62
(dp3361
g70
I3
ssg71
g3355
sg64
(lp3362
g1957
asbasbasbag57
(g73
g59
NtRp3363
(dp3364
g62
(dp3365
sg71
g2852
sg64
(lp3366
g57
(g78
g59
NtRp3367
(dp3368
g62
(dp3369
g82
g83
ssg71
g3363
sg64
(lp3370
S'wsgi.run_once'
p3371
asbag57
(g78
g59
NtRp3372
(dp3373
g62
(dp3374
g89
g90
ssg71
g3363
sg64
(lp3375
S':'
asbag57
(g78
g59
NtRp3376
(dp3377
g62
(dp3378
sg71
g3363
sg64
(lp3379
g57
(g58
g59
NtRp3380
(dp3381
g62
(dp3382
g70
I3
ssg71
g3376
sg64
(lp3383
g100
asbasbasbag57
(g73
g59
NtRp3384
(dp3385
g62
(dp3386
sg71
g2852
sg64
(lp3387
g57
(g78
g59
NtRp3388
(dp3389
g62
(dp3390
g82
g83
ssg71
g3384
sg64
(lp3391
S'wsgi.url_scheme'
p3392
asbag57
(g78
g59
NtRp3393
(dp3394
g62
(dp3395
g89
g90
ssg71
g3384
sg64
(lp3396
S':'
asbag57
(g78
g59
NtRp3397
(dp3398
g62
(dp3399
sg71
g3384
sg64
(lp3400
g57
(g58
g59
NtRp3401
(dp3402
g62
(dp3403
g70
I3
ssg71
g3397
sg64
(lp3404
g2000
asbasbasbag57
(g73
g59
NtRp3405
(dp3406
g62
(dp3407
sg71
g2852
sg64
(lp3408
g57
(g78
g59
NtRp3409
(dp3410
g62
(dp3411
g82
g83
ssg71
g3405
sg64
(lp3412
S'wsgi.version'
p3413
asbag57
(g78
g59
NtRp3414
(dp3415
g62
(dp3416
g89
g90
ssg71
g3405
sg64
(lp3417
S':'
asbag57
(g78
g59
NtRp3418
(dp3419
g62
(dp3420
sg71
g3405
sg64
(lp3421
g57
(g58
g59
NtRp3422
(dp3423
g62
(dp3424
g70
I3
ssg71
g3418
sg64
(lp3425
S'1'
asbasbasbasbasbasbasbasbasbasbasbasbasbsS'frames'
p3426
(lp3427
(dp3428
S'file'
p3429
S'/home/simran/web2py/gluon/restricted.py'
p3430
sS'dump'
p3431
(dp3432
S'environment'
p3433
S"{'A': <class 'gluon.html.A'>, 'Auth': <class 'gluon.tools.Auth'>, 'B': <class 'gluon.html.B'>, 'BEAUTIFY': <class 'gluon.html.BEAUTIFY'>, 'BODY': <class 'gluon.html.BODY'>, 'BR': <class 'gluon.html.BR'>, 'BUTTON': <class 'gluon.html.BUTTON'>, 'CAT': <class 'gluon.html.CAT'>, 'CENTER': <class 'gluon.html.CENTER'>, 'CLEANUP': <class 'gluon.validators.CLEANUP'>, ...}"
p3434
sS'ccode'
p3435
S'<code object <module> at 0x7fd6b418deb0, file "/.../IIIT_calendars/controllers/default.py", line 11>'
p3436
ssS'lnum'
p3437
I212
sS'lines'
p3438
(dp3439
I207
S'    try:'
p3440
sI208
S'        if isinstance(code, types.CodeType):'
p3441
sI209
S'            ccode = code'
p3442
sI210
S'        else:'
p3443
sI211
S'            ccode = compile2(code, layer)'
p3444
sI212
S'        exec ccode in environment'
p3445
sI213
S'    except HTTP:'
p3446
sI214
S'        raise'
p3447
sI215
S'    except RestrictedError:'
p3448
sI216
S'        # do not encapsulate (obfuscate) the original RestrictedError'
p3449
ssS'call'
p3450
S"(code='# -*- coding: utf-8 -*-\\n# this file is released ...als()\\n\\nresponse._vars=response._caller(calendar)\\n', environment={'A': <class 'gluon.html.A'>, 'Auth': <class 'gluon.tools.Auth'>, 'B': <class 'gluon.html.B'>, 'BEAUTIFY': <class 'gluon.html.BEAUTIFY'>, 'BODY': <class 'gluon.html.BODY'>, 'BR': <class 'gluon.html.BR'>, 'BUTTON': <class 'gluon.html.BUTTON'>, 'CAT': <class 'gluon.html.CAT'>, 'CENTER': <class 'gluon.html.CENTER'>, 'CLEANUP': <class 'gluon.validators.CLEANUP'>, ...}, layer='/home/simran/web2py/applications/IIIT_calendars/controllers/default.py')"
p3451
sS'func'
p3452
S'restricted'
p3453
sa(dp3454
g3429
S'/home/simran/web2py/applications/IIIT_calendars/controllers/default.py'
p3455
sg3431
(dp3456
sg3437
I138
sg3438
(dp3457
I128
S'def add_adminevents():'
p3458
sI129
S"    form=SQLFORM(db.admin_events).process(next=URL('default','admin_op'))"
p3459
sI130
S'    return locals()'
p3460
sI131
S''
sI132
S'def editadmineventdetails():'
p3461
sI133
S'    return locals()'
p3462
sI134
S''
sI135
S'def printn():'
p3463
sI136
S'\treturn locals()'
p3464
sI127
S''
ssg3450
S'()'
p3465
sg3452
S'<module>'
p3466
sa(dp3467
g3429
S'/home/simran/web2py/gluon/globals.py'
p3468
sg3431
(dp3469
S'self'
p3470
S'undefined'
p3471
sS'f'
S'<function calendar>'
p3472
ssg3437
I193
sg3438
(dp3473
I192
S'        self._vars = None'
p3474
sI193
S'        self._caller = lambda f: f()'
p3475
sI194
S'        self._view_environment = None'
p3476
sI195
S'        self._custom_commit = None'
p3477
sI196
S'        self._custom_rollback = None'
p3478
sI197
S''
sI188
S'        self.menu = []             # used by the default view layout'
p3479
sI189
S'        self.files = []            # used by web2py_ajax.html'
p3480
sI190
S'        self.generic_patterns = []  # patterns to allow generic views'
p3481
sI191
S"        self.delimiters = ('{{', '}}')"
p3482
ssg3450
S'(f=<function calendar>)'
p3483
sg3452
S'<lambda>'
p3484
sa(dp3485
g3429
S'/home/simran/web2py/applications/IIIT_calendars/controllers/default.py'
p3486
sg3431
(dp3487
S'c'
S'None'
p3488
sS'db.auth_user.first_name'
p3489
S'<gluon.dal.Field object>'
p3490
sS').select'
p3491
g3471
sS'q'
g3471
sS'db.auth_user'
p3492
S'<Table auth_user (id,first_name,last_name,email,...stration_key,reset_password_key,registration_id)>'
p3493
sS'db.auth_user.id'
p3494
S'<gluon.dal.Field object>'
p3495
sS'global db'
p3496
S'<DAL uri="sqlite://storage.sqlite">'
p3497
sS'builtinint'
p3498
S"<type 'int'>"
p3499
ssg3437
I25
sg3438
(dp3500
I20
S'   return locals()'
p3501
sI21
S''
sI22
S'def calendar():'
p3502
sI23
S"    'auth' in globals()"
p3503
sI24
S'    c=request.args(0)'
p3504
sI25
S'    q=db(db.auth_user.id==int(c)).select(db.auth_user.first_name)'
p3505
sI26
S'    return locals()'
p3506
sI27
S''
sI28
S'def user():'
p3507
sI29
S'    """'
p3508
ssg3450
S'()'
p3509
sg3452
S'calendar'
p3510
sasS'pyver'
p3511
S'Python 2.7.3: /usr/bin/python'
p3512
sS'session'
p3513
g57
(g58
g59
NtRp3514
(dp3515
g62
(dp3516
sg64
(lp3517
g57
(g66
g59
NtRp3518
(dp3519
g62
(dp3520
g70
I5
ssg71
Nsg64
(lp3521
g57
(g73
g59
NtRp3522
(dp3523
g62
(dp3524
sg71
g3518
sg64
(lp3525
g57
(g78
g59
NtRp3526
(dp3527
g62
(dp3528
g82
g83
ssg71
g3522
sg64
(lp3529
S'auth'
p3530
asbag57
(g78
g59
NtRp3531
(dp3532
g62
(dp3533
g89
g90
ssg71
g3522
sg64
(lp3534
S':'
asbag57
(g78
g59
NtRp3535
(dp3536
g62
(dp3537
sg71
g3522
sg64
(lp3538
g57
(g58
g59
NtRp3539
(dp3540
g62
(dp3541
g70
I5
ssg71
g3535
sg64
(lp3542
g57
(g66
g59
NtRp3543
(dp3544
g62
(dp3545
g70
I4
ssg71
Nsg64
(lp3546
g57
(g73
g59
NtRp3547
(dp3548
g62
(dp3549
sg71
g3543
sg64
(lp3550
g57
(g78
g59
NtRp3551
(dp3552
g62
(dp3553
g82
g83
ssg71
g3547
sg64
(lp3554
S'expiration'
p3555
asbag57
(g78
g59
NtRp3556
(dp3557
g62
(dp3558
g89
g90
ssg71
g3547
sg64
(lp3559
S':'
asbag57
(g78
g59
NtRp3560
(dp3561
g62
(dp3562
sg71
g3547
sg64
(lp3563
g57
(g58
g59
NtRp3564
(dp3565
g62
(dp3566
g70
I4
ssg71
g3560
sg64
(lp3567
S'3600'
p3568
asbasbasbag57
(g73
g59
NtRp3569
(dp3570
g62
(dp3571
sg71
g3543
sg64
(lp3572
g57
(g78
g59
NtRp3573
(dp3574
g62
(dp3575
g82
g83
ssg71
g3569
sg64
(lp3576
S'hmac_key'
p3577
asbag57
(g78
g59
NtRp3578
(dp3579
g62
(dp3580
g89
g90
ssg71
g3569
sg64
(lp3581
S':'
asbag57
(g78
g59
NtRp3582
(dp3583
g62
(dp3584
sg71
g3569
sg64
(lp3585
g57
(g58
g59
NtRp3586
(dp3587
g62
(dp3588
g70
I4
ssg71
g3582
sg64
(lp3589
S'8e59c729-dfad-4970-b109-4ba27605e871'
p3590
asbasbasbag57
(g73
g59
NtRp3591
(dp3592
g62
(dp3593
sg71
g3543
sg64
(lp3594
g57
(g78
g59
NtRp3595
(dp3596
g62
(dp3597
g82
g83
ssg71
g3591
sg64
(lp3598
S'last_visit'
p3599
asbag57
(g78
g59
NtRp3600
(dp3601
g62
(dp3602
g89
g90
ssg71
g3591
sg64
(lp3603
S':'
asbag57
(g78
g59
NtRp3604
(dp3605
g62
(dp3606
sg71
g3591
sg64
(lp3607
g57
(g58
g59
NtRp3608
(dp3609
g62
(dp3610
g70
I4
ssg71
g3604
sg64
(lp3611
S'datetime.datetime(2013, 4, 13, 14, 43, 49, 275665)'
p3612
asbasbasbag57
(g73
g59
NtRp3613
(dp3614
g62
(dp3615
sg71
g3543
sg64
(lp3616
g57
(g78
g59
NtRp3617
(dp3618
g62
(dp3619
g82
g83
ssg71
g3613
sg64
(lp3620
S'remember'
p3621
asbag57
(g78
g59
NtRp3622
(dp3623
g62
(dp3624
g89
g90
ssg71
g3613
sg64
(lp3625
S':'
asbag57
(g78
g59
NtRp3626
(dp3627
g62
(dp3628
sg71
g3613
sg64
(lp3629
g57
(g58
g59
NtRp3630
(dp3631
g62
(dp3632
g70
I4
ssg71
g3626
sg64
(lp3633
g100
asbasbasbag57
(g73
g59
NtRp3634
(dp3635
g62
(dp3636
sg71
g3543
sg64
(lp3637
g57
(g78
g59
NtRp3638
(dp3639
g62
(dp3640
g82
g83
ssg71
g3634
sg64
(lp3641
S'user'
p3642
asbag57
(g78
g59
NtRp3643
(dp3644
g62
(dp3645
g89
g90
ssg71
g3634
sg64
(lp3646
S':'
asbag57
(g78
g59
NtRp3647
(dp3648
g62
(dp3649
sg71
g3634
sg64
(lp3650
g57
(g58
g59
NtRp3651
(dp3652
g62
(dp3653
g70
I4
ssg71
g3647
sg64
(lp3654
g57
(g66
g59
NtRp3655
(dp3656
g62
(dp3657
g70
I3
ssg71
Nsg64
(lp3658
g57
(g73
g59
NtRp3659
(dp3660
g62
(dp3661
sg71
g3655
sg64
(lp3662
g57
(g78
g59
NtRp3663
(dp3664
g62
(dp3665
g82
g83
ssg71
g3659
sg64
(lp3666
S'email'
p3667
asbag57
(g78
g59
NtRp3668
(dp3669
g62
(dp3670
g89
g90
ssg71
g3659
sg64
(lp3671
S':'
asbag57
(g78
g59
NtRp3672
(dp3673
g62
(dp3674
sg71
g3659
sg64
(lp3675
g57
(g58
g59
NtRp3676
(dp3677
g62
(dp3678
g70
I3
ssg71
g3672
sg64
(lp3679
S'aarshvigajjar@gmail.com'
p3680
asbasbasbag57
(g73
g59
NtRp3681
(dp3682
g62
(dp3683
sg71
g3655
sg64
(lp3684
g57
(g78
g59
NtRp3685
(dp3686
g62
(dp3687
g82
g83
ssg71
g3681
sg64
(lp3688
S'first_name'
p3689
asbag57
(g78
g59
NtRp3690
(dp3691
g62
(dp3692
g89
g90
ssg71
g3681
sg64
(lp3693
S':'
asbag57
(g78
g59
NtRp3694
(dp3695
g62
(dp3696
sg71
g3681
sg64
(lp3697
g57
(g58
g59
NtRp3698
(dp3699
g62
(dp3700
g70
I3
ssg71
g3694
sg64
(lp3701
S'Aarshvi'
p3702
asbasbasbag57
(g73
g59
NtRp3703
(dp3704
g62
(dp3705
sg71
g3655
sg64
(lp3706
g57
(g78
g59
NtRp3707
(dp3708
g62
(dp3709
g82
g83
ssg71
g3703
sg64
(lp3710
S'id'
p3711
asbag57
(g78
g59
NtRp3712
(dp3713
g62
(dp3714
g89
g90
ssg71
g3703
sg64
(lp3715
S':'
asbag57
(g78
g59
NtRp3716
(dp3717
g62
(dp3718
sg71
g3703
sg64
(lp3719
g57
(g58
g59
NtRp3720
(dp3721
g62
(dp3722
g70
I3
ssg71
g3716
sg64
(lp3723
S'20'
p3724
asbasbasbag57
(g73
g59
NtRp3725
(dp3726
g62
(dp3727
sg71
g3655
sg64
(lp3728
g57
(g78
g59
NtRp3729
(dp3730
g62
(dp3731
g82
g83
ssg71
g3725
sg64
(lp3732
S'last_name'
p3733
asbag57
(g78
g59
NtRp3734
(dp3735
g62
(dp3736
g89
g90
ssg71
g3725
sg64
(lp3737
S':'
asbag57
(g78
g59
NtRp3738
(dp3739
g62
(dp3740
sg71
g3725
sg64
(lp3741
g57
(g58
g59
NtRp3742
(dp3743
g62
(dp3744
g70
I3
ssg71
g3738
sg64
(lp3745
S'Gajjar'
p3746
asbasbasbag57
(g73
g59
NtRp3747
(dp3748
g62
(dp3749
sg71
g3655
sg64
(lp3750
g57
(g78
g59
NtRp3751
(dp3752
g62
(dp3753
g82
g83
ssg71
g3747
sg64
(lp3754
S'registration_id'
p3755
asbag57
(g78
g59
NtRp3756
(dp3757
g62
(dp3758
g89
g90
ssg71
g3747
sg64
(lp3759
S':'
asbag57
(g78
g59
NtRp3760
(dp3761
g62
(dp3762
sg71
g3747
sg64
(lp3763
g57
(g58
g59
NtRp3764
(dp3765
g62
(dp3766
g70
I3
ssg71
g3760
sg64
(lp3767
S''
asbasbasbag57
(g73
g59
NtRp3768
(dp3769
g62
(dp3770
sg71
g3655
sg64
(lp3771
g57
(g78
g59
NtRp3772
(dp3773
g62
(dp3774
g82
g83
ssg71
g3768
sg64
(lp3775
S'registration_key'
p3776
asbag57
(g78
g59
NtRp3777
(dp3778
g62
(dp3779
g89
g90
ssg71
g3768
sg64
(lp3780
S':'
asbag57
(g78
g59
NtRp3781
(dp3782
g62
(dp3783
sg71
g3768
sg64
(lp3784
g57
(g58
g59
NtRp3785
(dp3786
g62
(dp3787
g70
I3
ssg71
g3781
sg64
(lp3788
S''
asbasbasbag57
(g73
g59
NtRp3789
(dp3790
g62
(dp3791
sg71
g3655
sg64
(lp3792
g57
(g78
g59
NtRp3793
(dp3794
g62
(dp3795
g82
g83
ssg71
g3789
sg64
(lp3796
S'reset_password_key'
p3797
asbag57
(g78
g59
NtRp3798
(dp3799
g62
(dp3800
g89
g90
ssg71
g3789
sg64
(lp3801
S':'
asbag57
(g78
g59
NtRp3802
(dp3803
g62
(dp3804
sg71
g3789
sg64
(lp3805
g57
(g58
g59
NtRp3806
(dp3807
g62
(dp3808
g70
I3
ssg71
g3802
sg64
(lp3809
S''
asbasbasbasbasbasbasbag57
(g73
g59
NtRp3810
(dp3811
g62
(dp3812
sg71
g3543
sg64
(lp3813
g57
(g78
g59
NtRp3814
(dp3815
g62
(dp3816
g82
g83
ssg71
g3810
sg64
(lp3817
S'user_groups'
p3818
asbag57
(g78
g59
NtRp3819
(dp3820
g62
(dp3821
g89
g90
ssg71
g3810
sg64
(lp3822
S':'
asbag57
(g78
g59
NtRp3823
(dp3824
g62
(dp3825
sg71
g3810
sg64
(lp3826
g57
(g58
g59
NtRp3827
(dp3828
g62
(dp3829
g70
I4
ssg71
g3823
sg64
(lp3830
g57
(g66
g59
NtRp3831
(dp3832
g62
(dp3833
g70
I3
ssg71
Nsg64
(lp3834
sbasbasbasbasbasbasbasbag57
(g73
g59
NtRp3835
(dp3836
g62
(dp3837
sg71
g3518
sg64
(lp3838
g57
(g78
g59
NtRp3839
(dp3840
g62
(dp3841
g82
g83
ssg71
g3835
sg64
(lp3842
S'flash'
p3843
asbag57
(g78
g59
NtRp3844
(dp3845
g62
(dp3846
g89
g90
ssg71
g3835
sg64
(lp3847
S':'
asbag57
(g78
g59
NtRp3848
(dp3849
g62
(dp3850
sg71
g3835
sg64
(lp3851
g57
(g58
g59
NtRp3852
(dp3853
g62
(dp3854
g70
I5
ssg71
g3848
sg64
(lp3855
S'None'
p3856
asbasbasbag57
(g73
g59
NtRp3857
(dp3858
g62
(dp3859
sg71
g3518
sg64
(lp3860
g57
(g78
g59
NtRp3861
(dp3862
g62
(dp3863
g82
g83
ssg71
g3857
sg64
(lp3864
S'last_orderby'
p3865
asbag57
(g78
g59
NtRp3866
(dp3867
g62
(dp3868
g89
g90
ssg71
g3857
sg64
(lp3869
S':'
asbag57
(g78
g59
NtRp3870
(dp3871
g62
(dp3872
sg71
g3857
sg64
(lp3873
g57
(g58
g59
NtRp3874
(dp3875
g62
(dp3876
g70
I5
ssg71
g3870
sg64
(lp3877
S'None'
p3878
asbasbasbag57
(g73
g59
NtRp3879
(dp3880
g62
(dp3881
sg71
g3518
sg64
(lp3882
g57
(g78
g59
NtRp3883
(dp3884
g62
(dp3885
g82
g83
ssg71
g3879
sg64
(lp3886
S'last_query'
p3887
asbag57
(g78
g59
NtRp3888
(dp3889
g62
(dp3890
g89
g90
ssg71
g3879
sg64
(lp3891
S':'
asbag57
(g78
g59
NtRp3892
(dp3893
g62
(dp3894
sg71
g3879
sg64
(lp3895
g57
(g58
g59
NtRp3896
(dp3897
g62
(dp3898
g70
I5
ssg71
g3892
sg64
(lp3899
S'db.auth_user.id>0'
p3900
asbasbasbasbasbsS'etype'
p3901
S"<type 'exceptions.TypeError'>"
p3902
sS'date'
p3903
S'Sat Apr 13 14:44:21 2013'
p3904
sS'response'
p3905
g57
(g58
g59
NtRp3906
(dp3907
g62
(dp3908
sg64
(lp3909
g57
(g66
g59
NtRp3910
(dp3911
g62
(dp3912
g70
I5
ssg71
Nsg64
(lp3913
g57
(g73
g59
NtRp3914
(dp3915
g62
(dp3916
sg71
g3910
sg64
(lp3917
g57
(g78
g59
NtRp3918
(dp3919
g62
(dp3920
g82
g83
ssg71
g3914
sg64
(lp3921
g155
asbag57
(g78
g59
NtRp3922
(dp3923
g62
(dp3924
g89
g90
ssg71
g3914
sg64
(lp3925
S':'
asbag57
(g78
g59
NtRp3926
(dp3927
g62
(dp3928
sg71
g3914
sg64
(lp3929
g57
(g58
g59
NtRp3930
(dp3931
g62
(dp3932
g70
I5
ssg71
g3926
sg64
(lp3933
S'<cStringIO.StringO object at 0x7fd6b447af48>'
p3934
asbasbasbag57
(g73
g59
NtRp3935
(dp3936
g62
(dp3937
sg71
g3910
sg64
(lp3938
g57
(g78
g59
NtRp3939
(dp3940
g62
(dp3941
g82
g83
ssg71
g3935
sg64
(lp3942
g243
asbag57
(g78
g59
NtRp3943
(dp3944
g62
(dp3945
g89
g90
ssg71
g3935
sg64
(lp3946
S':'
asbag57
(g78
g59
NtRp3947
(dp3948
g62
(dp3949
sg71
g3935
sg64
(lp3950
g57
(g58
g59
NtRp3951
(dp3952
g62
(dp3953
g70
I5
ssg71
g3947
sg64
(lp3954
g57
(g66
g59
NtRp3955
(dp3956
g62
(dp3957
g70
I4
ssg71
Nsg64
(lp3958
g57
(g73
g59
NtRp3959
(dp3960
g62
(dp3961
sg71
g3955
sg64
(lp3962
g57
(g78
g59
NtRp3963
(dp3964
g62
(dp3965
g82
g83
ssg71
g3959
sg64
(lp3966
S'session_id_iiit_calendars'
p3967
asbag57
(g78
g59
NtRp3968
(dp3969
g62
(dp3970
g89
g90
ssg71
g3959
sg64
(lp3971
S':'
asbag57
(g78
g59
NtRp3972
(dp3973
g62
(dp3974
sg71
g3959
sg64
(lp3975
g57
(g58
g59
NtRp3976
(dp3977
g62
(dp3978
g70
I4
ssg71
g3972
sg64
(lp3979
g661
ag57
(g66
g59
NtRp3980
(dp3981
g62
(dp3982
g70
I3
ssg71
Nsg64
(lp3983
g57
(g73
g59
NtRp3984
(dp3985
g62
(dp3986
sg71
g3980
sg64
(lp3987
g57
(g78
g59
NtRp3988
(dp3989
g62
(dp3990
g82
g83
ssg71
g3984
sg64
(lp3991
g294
asbag57
(g78
g59
NtRp3992
(dp3993
g62
(dp3994
g89
g90
ssg71
g3984
sg64
(lp3995
S':'
asbag57
(g78
g59
NtRp3996
(dp3997
g62
(dp3998
sg71
g3984
sg64
(lp3999
g57
(g58
g59
NtRp4000
(dp4001
g62
(dp4002
g70
I3
ssg71
g3996
sg64
(lp4003
S''
asbasbasbag57
(g73
g59
NtRp4004
(dp4005
g62
(dp4006
sg71
g3980
sg64
(lp4007
g57
(g78
g59
NtRp4008
(dp4009
g62
(dp4010
g82
g83
ssg71
g4004
sg64
(lp4011
g315
asbag57
(g78
g59
NtRp4012
(dp4013
g62
(dp4014
g89
g90
ssg71
g4004
sg64
(lp4015
S':'
asbag57
(g78
g59
NtRp4016
(dp4017
g62
(dp4018
sg71
g4004
sg64
(lp4019
g57
(g58
g59
NtRp4020
(dp4021
g62
(dp4022
g70
I3
ssg71
g4016
sg64
(lp4023
S''
asbasbasbag57
(g73
g59
NtRp4024
(dp4025
g62
(dp4026
sg71
g3980
sg64
(lp4027
g57
(g78
g59
NtRp4028
(dp4029
g62
(dp4030
g82
g83
ssg71
g4024
sg64
(lp4031
g336
asbag57
(g78
g59
NtRp4032
(dp4033
g62
(dp4034
g89
g90
ssg71
g4024
sg64
(lp4035
S':'
asbag57
(g78
g59
NtRp4036
(dp4037
g62
(dp4038
sg71
g4024
sg64
(lp4039
g57
(g58
g59
NtRp4040
(dp4041
g62
(dp4042
g70
I3
ssg71
g4036
sg64
(lp4043
S''
asbasbasbag57
(g73
g59
NtRp4044
(dp4045
g62
(dp4046
sg71
g3980
sg64
(lp4047
g57
(g78
g59
NtRp4048
(dp4049
g62
(dp4050
g82
g83
ssg71
g4044
sg64
(lp4051
g357
asbag57
(g78
g59
NtRp4052
(dp4053
g62
(dp4054
g89
g90
ssg71
g4044
sg64
(lp4055
S':'
asbag57
(g78
g59
NtRp4056
(dp4057
g62
(dp4058
sg71
g4044
sg64
(lp4059
g57
(g58
g59
NtRp4060
(dp4061
g62
(dp4062
g70
I3
ssg71
g4056
sg64
(lp4063
S''
asbasbasbag57
(g73
g59
NtRp4064
(dp4065
g62
(dp4066
sg71
g3980
sg64
(lp4067
g57
(g78
g59
NtRp4068
(dp4069
g62
(dp4070
g82
g83
ssg71
g4064
sg64
(lp4071
g378
asbag57
(g78
g59
NtRp4072
(dp4073
g62
(dp4074
g89
g90
ssg71
g4064
sg64
(lp4075
S':'
asbag57
(g78
g59
NtRp4076
(dp4077
g62
(dp4078
sg71
g4064
sg64
(lp4079
g57
(g58
g59
NtRp4080
(dp4081
g62
(dp4082
g70
I3
ssg71
g4076
sg64
(lp4083
S''
asbasbasbag57
(g73
g59
NtRp4084
(dp4085
g62
(dp4086
sg71
g3980
sg64
(lp4087
g57
(g78
g59
NtRp4088
(dp4089
g62
(dp4090
g82
g83
ssg71
g4084
sg64
(lp4091
g399
asbag57
(g78
g59
NtRp4092
(dp4093
g62
(dp4094
g89
g90
ssg71
g4084
sg64
(lp4095
S':'
asbag57
(g78
g59
NtRp4096
(dp4097
g62
(dp4098
sg71
g4084
sg64
(lp4099
g57
(g58
g59
NtRp4100
(dp4101
g62
(dp4102
g70
I3
ssg71
g4096
sg64
(lp4103
S'/'
asbasbasbag57
(g73
g59
NtRp4104
(dp4105
g62
(dp4106
sg71
g3980
sg64
(lp4107
g57
(g78
g59
NtRp4108
(dp4109
g62
(dp4110
g82
g83
ssg71
g4104
sg64
(lp4111
g420
asbag57
(g78
g59
NtRp4112
(dp4113
g62
(dp4114
g89
g90
ssg71
g4104
sg64
(lp4115
S':'
asbag57
(g78
g59
NtRp4116
(dp4117
g62
(dp4118
sg71
g4104
sg64
(lp4119
g57
(g58
g59
NtRp4120
(dp4121
g62
(dp4122
g70
I3
ssg71
g4116
sg64
(lp4123
S''
asbasbasbag57
(g73
g59
NtRp4124
(dp4125
g62
(dp4126
sg71
g3980
sg64
(lp4127
g57
(g78
g59
NtRp4128
(dp4129
g62
(dp4130
g82
g83
ssg71
g4124
sg64
(lp4131
g441
asbag57
(g78
g59
NtRp4132
(dp4133
g62
(dp4134
g89
g90
ssg71
g4124
sg64
(lp4135
S':'
asbag57
(g78
g59
NtRp4136
(dp4137
g62
(dp4138
sg71
g4124
sg64
(lp4139
g57
(g58
g59
NtRp4140
(dp4141
g62
(dp4142
g70
I3
ssg71
g4136
sg64
(lp4143
S''
asbasbasbasbasbasbasbasbasbasbasbag57
(g73
g59
NtRp4144
(dp4145
g62
(dp4146
sg71
g3910
sg64
(lp4147
g57
(g78
g59
NtRp4148
(dp4149
g62
(dp4150
g82
g83
ssg71
g4144
sg64
(lp4151
S'delimiters'
p4152
asbag57
(g78
g59
NtRp4153
(dp4154
g62
(dp4155
g89
g90
ssg71
g4144
sg64
(lp4156
S':'
asbag57
(g78
g59
NtRp4157
(dp4158
g62
(dp4159
sg71
g4144
sg64
(lp4160
g57
(g58
g59
NtRp4161
(dp4162
g62
(dp4163
g70
I5
ssg71
g4157
sg64
(lp4164
g57
(g66
g59
NtRp4165
(dp4166
g62
(dp4167
g70
I4
ssg71
Nsg64
(lp4168
g57
(g73
g59
NtRp4169
(dp4170
g62
(dp4171
sg71
g4165
sg64
(lp4172
g57
(g78
g59
NtRp4173
(dp4174
g62
(dp4175
sg71
g4169
sg64
(lp4176
g57
(g58
g59
NtRp4177
(dp4178
g62
(dp4179
g70
I4
ssg71
g4173
sg64
(lp4180
S'{{'
p4181
asbasbasbag57
(g73
g59
NtRp4182
(dp4183
g62
(dp4184
sg71
g4165
sg64
(lp4185
g57
(g78
g59
NtRp4186
(dp4187
g62
(dp4188
sg71
g4182
sg64
(lp4189
g57
(g58
g59
NtRp4190
(dp4191
g62
(dp4192
g70
I4
ssg71
g4186
sg64
(lp4193
S'}}'
p4194
asbasbasbasbasbasbasbag57
(g73
g59
NtRp4195
(dp4196
g62
(dp4197
sg71
g3910
sg64
(lp4198
g57
(g78
g59
NtRp4199
(dp4200
g62
(dp4201
g82
g83
ssg71
g4195
sg64
(lp4202
S'files'
p4203
asbag57
(g78
g59
NtRp4204
(dp4205
g62
(dp4206
g89
g90
ssg71
g4195
sg64
(lp4207
S':'
asbag57
(g78
g59
NtRp4208
(dp4209
g62
(dp4210
sg71
g4195
sg64
(lp4211
g57
(g58
g59
NtRp4212
(dp4213
g62
(dp4214
g70
I5
ssg71
g4208
sg64
(lp4215
g57
(g66
g59
NtRp4216
(dp4217
g62
(dp4218
g70
I4
ssg71
Nsg64
(lp4219
sbasbasbasbag57
(g73
g59
NtRp4220
(dp4221
g62
(dp4222
sg71
g3910
sg64
(lp4223
g57
(g78
g59
NtRp4224
(dp4225
g62
(dp4226
g82
g83
ssg71
g4220
sg64
(lp4227
S'flash'
p4228
asbag57
(g78
g59
NtRp4229
(dp4230
g62
(dp4231
g89
g90
ssg71
g4220
sg64
(lp4232
S':'
asbag57
(g78
g59
NtRp4233
(dp4234
g62
(dp4235
sg71
g4220
sg64
(lp4236
g57
(g58
g59
NtRp4237
(dp4238
g62
(dp4239
g70
I5
ssg71
g4233
sg64
(lp4240
S''
asbasbasbag57
(g73
g59
NtRp4241
(dp4242
g62
(dp4243
sg71
g3910
sg64
(lp4244
g57
(g78
g59
NtRp4245
(dp4246
g62
(dp4247
g82
g83
ssg71
g4241
sg64
(lp4248
S'generic_patterns'
p4249
asbag57
(g78
g59
NtRp4250
(dp4251
g62
(dp4252
g89
g90
ssg71
g4241
sg64
(lp4253
S':'
asbag57
(g78
g59
NtRp4254
(dp4255
g62
(dp4256
sg71
g4241
sg64
(lp4257
g57
(g58
g59
NtRp4258
(dp4259
g62
(dp4260
g70
I5
ssg71
g4254
sg64
(lp4261
g57
(g66
g59
NtRp4262
(dp4263
g62
(dp4264
g70
I4
ssg71
Nsg64
(lp4265
g57
(g73
g59
NtRp4266
(dp4267
g62
(dp4268
sg71
g4262
sg64
(lp4269
g57
(g78
g59
NtRp4270
(dp4271
g62
(dp4272
sg71
g4266
sg64
(lp4273
g57
(g58
g59
NtRp4274
(dp4275
g62
(dp4276
g70
I4
ssg71
g4270
sg64
(lp4277
S'*'
asbasbasbasbasbasbasbag57
(g73
g59
NtRp4278
(dp4279
g62
(dp4280
sg71
g3910
sg64
(lp4281
g57
(g78
g59
NtRp4282
(dp4283
g62
(dp4284
g82
g83
ssg71
g4278
sg64
(lp4285
S'google_analytics_id'
p4286
asbag57
(g78
g59
NtRp4287
(dp4288
g62
(dp4289
g89
g90
ssg71
g4278
sg64
(lp4290
S':'
asbag57
(g78
g59
NtRp4291
(dp4292
g62
(dp4293
sg71
g4278
sg64
(lp4294
g57
(g58
g59
NtRp4295
(dp4296
g62
(dp4297
g70
I5
ssg71
g4291
sg64
(lp4298
S'None'
p4299
asbasbasbag57
(g73
g59
NtRp4300
(dp4301
g62
(dp4302
sg71
g3910
sg64
(lp4303
g57
(g78
g59
NtRp4304
(dp4305
g62
(dp4306
g82
g83
ssg71
g4300
sg64
(lp4307
S'headers'
p4308
asbag57
(g78
g59
NtRp4309
(dp4310
g62
(dp4311
g89
g90
ssg71
g4300
sg64
(lp4312
S':'
asbag57
(g78
g59
NtRp4313
(dp4314
g62
(dp4315
sg71
g4300
sg64
(lp4316
g57
(g58
g59
NtRp4317
(dp4318
g62
(dp4319
g70
I5
ssg71
g4313
sg64
(lp4320
g57
(g66
g59
NtRp4321
(dp4322
g62
(dp4323
g70
I4
ssg71
Nsg64
(lp4324
g57
(g73
g59
NtRp4325
(dp4326
g62
(dp4327
sg71
g4321
sg64
(lp4328
g57
(g78
g59
NtRp4329
(dp4330
g62
(dp4331
g82
g83
ssg71
g4325
sg64
(lp4332
S'X-Powered-By'
p4333
asbag57
(g78
g59
NtRp4334
(dp4335
g62
(dp4336
g89
g90
ssg71
g4325
sg64
(lp4337
S':'
asbag57
(g78
g59
NtRp4338
(dp4339
g62
(dp4340
sg71
g4325
sg64
(lp4341
g57
(g58
g59
NtRp4342
(dp4343
g62
(dp4344
g70
I4
ssg71
g4338
sg64
(lp4345
S'web2py'
p4346
asbasbasbasbasbasbasbag57
(g73
g59
NtRp4347
(dp4348
g62
(dp4349
sg71
g3910
sg64
(lp4350
g57
(g78
g59
NtRp4351
(dp4352
g62
(dp4353
g82
g83
ssg71
g4347
sg64
(lp4354
S'logo'
p4355
asbag57
(g78
g59
NtRp4356
(dp4357
g62
(dp4358
g89
g90
ssg71
g4347
sg64
(lp4359
S':'
asbag57
(g78
g59
NtRp4360
(dp4361
g62
(dp4362
sg71
g4347
sg64
(lp4363
g57
(g58
g59
NtRp4364
(dp4365
g62
(dp4366
g70
I5
ssg71
g4360
sg64
(lp4367
g57
(cgluon.html
A
p4368
g59
NtRp4369
(dp4370
g62
(dp4371
S'_class'
p4372
S'brand'
p4373
sS'_href'
p4374
S'http://www.web2py.com/'
p4375
ssg71
Nsg64
(lp4376
g57
(cgluon.html
B
p4377
g59
NtRp4378
(dp4379
g62
(dp4380
sg71
g4369
sg64
(lp4381
S'web'
p4382
ag57
(cgluon.html
SPAN
p4383
g59
NtRp4384
(dp4385
g62
(dp4386
sg71
g4378
sg64
(lp4387
I2
asbaS'py'
p4388
asbacgluon.html
XML_unpickle
p4389
(S's\r\x00\x00\x00&trade;&nbsp;'
tRp4390
asbasbasbasbag57
(g73
g59
NtRp4391
(dp4392
g62
(dp4393
sg71
g3910
sg64
(lp4394
g57
(g78
g59
NtRp4395
(dp4396
g62
(dp4397
g82
g83
ssg71
g4391
sg64
(lp4398
S'menu'
p4399
asbag57
(g78
g59
NtRp4400
(dp4401
g62
(dp4402
g89
g90
ssg71
g4391
sg64
(lp4403
S':'
asbag57
(g78
g59
NtRp4404
(dp4405
g62
(dp4406
sg71
g4391
sg64
(lp4407
g57
(g58
g59
NtRp4408
(dp4409
g62
(dp4410
g70
I5
ssg71
g4404
sg64
(lp4411
g57
(g66
g59
NtRp4412
(dp4413
g62
(dp4414
g70
I4
ssg71
Nsg64
(lp4415
g57
(g73
g59
NtRp4416
(dp4417
g62
(dp4418
sg71
g4412
sg64
(lp4419
g57
(g78
g59
NtRp4420
(dp4421
g62
(dp4422
sg71
g4416
sg64
(lp4423
g57
(g58
g59
NtRp4424
(dp4425
g62
(dp4426
g70
I4
ssg71
g4420
sg64
(lp4427
g57
(g66
g59
NtRp4428
(dp4429
g62
(dp4430
g70
I3
ssg71
Nsg64
(lp4431
g57
(g73
g59
NtRp4432
(dp4433
g62
(dp4434
sg71
g4428
sg64
(lp4435
g57
(g78
g59
NtRp4436
(dp4437
g62
(dp4438
sg71
g4432
sg64
(lp4439
g57
(g58
g59
NtRp4440
(dp4441
g62
(dp4442
g70
I3
ssg71
g4436
sg64
(lp4443
cgluon.languages
lazyT_unpickle
p4444
(S's\x04\x00\x00\x00Home'
tRp4445
asbasbasbag57
(g73
g59
NtRp4446
(dp4447
g62
(dp4448
sg71
g4428
sg64
(lp4449
g57
(g78
g59
NtRp4450
(dp4451
g62
(dp4452
sg71
g4446
sg64
(lp4453
g57
(g58
g59
NtRp4454
(dp4455
g62
(dp4456
g70
I3
ssg71
g4450
sg64
(lp4457
g100
asbasbasbag57
(g73
g59
NtRp4458
(dp4459
g62
(dp4460
sg71
g4428
sg64
(lp4461
g57
(g78
g59
NtRp4462
(dp4463
g62
(dp4464
sg71
g4458
sg64
(lp4465
g57
(g58
g59
NtRp4466
(dp4467
g62
(dp4468
g70
I3
ssg71
g4462
sg64
(lp4469
S'/IIIT_calendars/default/index'
p4470
asbasbasbag57
(g73
g59
NtRp4471
(dp4472
g62
(dp4473
sg71
g4428
sg64
(lp4474
g57
(g78
g59
NtRp4475
(dp4476
g62
(dp4477
sg71
g4471
sg64
(lp4478
g57
(g58
g59
NtRp4479
(dp4480
g62
(dp4481
g70
I3
ssg71
g4475
sg64
(lp4482
g57
(g66
g59
NtRp4483
(dp4484
g62
(dp4485
g70
I2
ssg71
Nsg64
(lp4486
sbasbasbasbasbasbasbasbag57
(g73
g59
NtRp4487
(dp4488
g62
(dp4489
sg71
g4412
sg64
(lp4490
g57
(g78
g59
NtRp4491
(dp4492
g62
(dp4493
sg71
g4487
sg64
(lp4494
g57
(g58
g59
NtRp4495
(dp4496
g62
(dp4497
g70
I4
ssg71
g4491
sg64
(lp4498
g57
(g66
g59
NtRp4499
(dp4500
g62
(dp4501
g70
I3
ssg71
Nsg64
(lp4502
g57
(g73
g59
NtRp4503
(dp4504
g62
(dp4505
sg71
g4499
sg64
(lp4506
g57
(g78
g59
NtRp4507
(dp4508
g62
(dp4509
sg71
g4503
sg64
(lp4510
g57
(g58
g59
NtRp4511
(dp4512
g62
(dp4513
g70
I3
ssg71
g4507
sg64
(lp4514
g57
(g4383
g59
NtRp4515
(dp4516
g62
(dp4517
g4372
S'highlighted'
p4518
ssg71
Nsg64
(lp4519
g4346
asbasbasbasbag57
(g73
g59
NtRp4520
(dp4521
g62
(dp4522
sg71
g4499
sg64
(lp4523
g57
(g78
g59
NtRp4524
(dp4525
g62
(dp4526
sg71
g4520
sg64
(lp4527
g57
(g58
g59
NtRp4528
(dp4529
g62
(dp4530
g70
I3
ssg71
g4524
sg64
(lp4531
g100
asbasbasbag57
(g73
g59
NtRp4532
(dp4533
g62
(dp4534
sg71
g4499
sg64
(lp4535
g57
(g78
g59
NtRp4536
(dp4537
g62
(dp4538
sg71
g4532
sg64
(lp4539
g57
(g58
g59
NtRp4540
(dp4541
g62
(dp4542
g70
I3
ssg71
g4536
sg64
(lp4543
S'http://web2py.com'
p4544
asbasbasbag57
(g73
g59
NtRp4545
(dp4546
g62
(dp4547
sg71
g4499
sg64
(lp4548
g57
(g78
g59
NtRp4549
(dp4550
g62
(dp4551
sg71
g4545
sg64
(lp4552
g57
(g58
g59
NtRp4553
(dp4554
g62
(dp4555
g70
I3
ssg71
g4549
sg64
(lp4556
g57
(g66
g59
NtRp4557
(dp4558
g62
(dp4559
g70
I2
ssg71
Nsg64
(lp4560
g57
(g73
g59
NtRp4561
(dp4562
g62
(dp4563
sg71
g4557
sg64
(lp4564
g57
(g78
g59
NtRp4565
(dp4566
g62
(dp4567
sg71
g4561
sg64
(lp4568
g57
(g58
g59
NtRp4569
(dp4570
g62
(dp4571
g70
I2
ssg71
g4565
sg64
(lp4572
g57
(g66
g59
NtRp4573
(dp4574
g62
(dp4575
g70
I1
ssg71
Nsg64
(lp4576
g57
(g73
g59
NtRp4577
(dp4578
g62
(dp4579
sg71
g4573
sg64
(lp4580
g57
(g78
g59
NtRp4581
(dp4582
g62
(dp4583
sg71
g4577
sg64
(lp4584
g57
(g58
g59
NtRp4585
(dp4586
g62
(dp4587
g70
I1
ssg71
g4581
sg64
(lp4588
g4444
(S's\x08\x00\x00\x00My Sites'
tRp4589
asbasbasbag57
(g73
g59
NtRp4590
(dp4591
g62
(dp4592
sg71
g4573
sg64
(lp4593
g57
(g78
g59
NtRp4594
(dp4595
g62
(dp4596
sg71
g4590
sg64
(lp4597
g57
(g58
g59
NtRp4598
(dp4599
g62
(dp4600
g70
I1
ssg71
g4594
sg64
(lp4601
I00
asbasbasbag57
(g73
g59
NtRp4602
(dp4603
g62
(dp4604
sg71
g4573
sg64
(lp4605
g57
(g78
g59
NtRp4606
(dp4607
g62
(dp4608
sg71
g4602
sg64
(lp4609
g57
(g58
g59
NtRp4610
(dp4611
g62
(dp4612
g70
I1
ssg71
g4606
sg64
(lp4613
S'/admin/default/site'
p4614
asbasbasbasbasbasbasbag57
(g73
g59
NtRp4615
(dp4616
g62
(dp4617
sg71
g4557
sg64
(lp4618
g57
(g78
g59
NtRp4619
(dp4620
g62
(dp4621
sg71
g4615
sg64
(lp4622
g57
(g58
g59
NtRp4623
(dp4624
g62
(dp4625
g70
I2
ssg71
g4619
sg64
(lp4626
g57
(g66
g59
NtRp4627
(dp4628
g62
(dp4629
g70
I1
ssg71
Nsg64
(lp4630
g57
(g73
g59
NtRp4631
(dp4632
g62
(dp4633
sg71
g4627
sg64
(lp4634
g57
(g78
g59
NtRp4635
(dp4636
g62
(dp4637
sg71
g4631
sg64
(lp4638
g57
(g58
g59
NtRp4639
(dp4640
g62
(dp4641
g70
I1
ssg71
g4635
sg64
(lp4642
g4444
(S's\x08\x00\x00\x00This App'
tRp4643
asbasbasbag57
(g73
g59
NtRp4644
(dp4645
g62
(dp4646
sg71
g4627
sg64
(lp4647
g57
(g78
g59
NtRp4648
(dp4649
g62
(dp4650
sg71
g4644
sg64
(lp4651
g57
(g58
g59
NtRp4652
(dp4653
g62
(dp4654
g70
I1
ssg71
g4648
sg64
(lp4655
I00
asbasbasbag57
(g73
g59
NtRp4656
(dp4657
g62
(dp4658
sg71
g4627
sg64
(lp4659
g57
(g78
g59
NtRp4660
(dp4661
g62
(dp4662
sg71
g4656
sg64
(lp4663
g57
(g58
g59
NtRp4664
(dp4665
g62
(dp4666
g70
I1
ssg71
g4660
sg64
(lp4667
S'/admin/default/design/IIIT_calendars'
p4668
asbasbasbag57
(g73
g59
NtRp4669
(dp4670
g62
(dp4671
sg71
g4627
sg64
(lp4672
g57
(g78
g59
NtRp4673
(dp4674
g62
(dp4675
sg71
g4669
sg64
(lp4676
g57
(g58
g59
NtRp4677
(dp4678
g62
(dp4679
g70
I1
ssg71
g4673
sg64
(lp4680
(lp4681
(g4444
(S's\n\x00\x00\x00Controller'
tRp4682
I00
S'/admin/default/edit/IIIT_calendars/controllers/default.py'
tp4683
a(g4444
(S's\x04\x00\x00\x00View'
tRp4684
I00
S'/admin/default/edit/IIIT_calendars/views/default/calendar.html'
tp4685
a(g4444
(S's\x06\x00\x00\x00Layout'
tRp4686
I00
S'/admin/default/edit/IIIT_calendars/views/layout.html'
tp4687
a(g4444
(S's\n\x00\x00\x00Stylesheet'
tRp4688
I00
S'/admin/default/edit/IIIT_calendars/static/css/web2py.css'
tp4689
a(g4444
(S's\x08\x00\x00\x00DB Model'
tRp4690
I00
S'/admin/default/edit/IIIT_calendars/models/db.py'
tp4691
a(g4444
(S's\n\x00\x00\x00Menu Model'
tRp4692
I00
S'/admin/default/edit/IIIT_calendars/models/menu.py'
tp4693
a(g4444
(S's\x08\x00\x00\x00Database'
tRp4694
I00
S'/IIIT_calendars/appadmin/index'
tp4695
a(g4444
(S's\x06\x00\x00\x00Errors'
tRp4696
I00
S'/admin/default/errors/IIIT_calendars'
tp4697
a(g4444
(S's\x05\x00\x00\x00About'
tRp4698
I00
S'/admin/default/about/IIIT_calendars'
tp4699
aasbasbasbasbasbasbasbag57
(g73
g59
NtRp4700
(dp4701
g62
(dp4702
sg71
g4557
sg64
(lp4703
g57
(g78
g59
NtRp4704
(dp4705
g62
(dp4706
sg71
g4700
sg64
(lp4707
g57
(g58
g59
NtRp4708
(dp4709
g62
(dp4710
g70
I2
ssg71
g4704
sg64
(lp4711
g57
(g66
g59
NtRp4712
(dp4713
g62
(dp4714
g70
I1
ssg71
Nsg64
(lp4715
g57
(g73
g59
NtRp4716
(dp4717
g62
(dp4718
sg71
g4712
sg64
(lp4719
g57
(g78
g59
NtRp4720
(dp4721
g62
(dp4722
sg71
g4716
sg64
(lp4723
g57
(g58
g59
NtRp4724
(dp4725
g62
(dp4726
g70
I1
ssg71
g4720
sg64
(lp4727
S'web2py.com'
p4728
asbasbasbag57
(g73
g59
NtRp4729
(dp4730
g62
(dp4731
sg71
g4712
sg64
(lp4732
g57
(g78
g59
NtRp4733
(dp4734
g62
(dp4735
sg71
g4729
sg64
(lp4736
g57
(g58
g59
NtRp4737
(dp4738
g62
(dp4739
g70
I1
ssg71
g4733
sg64
(lp4740
I00
asbasbasbag57
(g73
g59
NtRp4741
(dp4742
g62
(dp4743
sg71
g4712
sg64
(lp4744
g57
(g78
g59
NtRp4745
(dp4746
g62
(dp4747
sg71
g4741
sg64
(lp4748
g57
(g58
g59
NtRp4749
(dp4750
g62
(dp4751
g70
I1
ssg71
g4745
sg64
(lp4752
S'http://www.web2py.com'
p4753
asbasbasbag57
(g73
g59
NtRp4754
(dp4755
g62
(dp4756
sg71
g4712
sg64
(lp4757
g57
(g78
g59
NtRp4758
(dp4759
g62
(dp4760
sg71
g4754
sg64
(lp4761
g57
(g58
g59
NtRp4762
(dp4763
g62
(dp4764
g70
I1
ssg71
g4758
sg64
(lp4765
(lp4766
(g4444
(S's\x08\x00\x00\x00Download'
tRp4767
I00
S'http://www.web2py.com/examples/default/download'
p4768
tp4769
a(g4444
(S's\x07\x00\x00\x00Support'
tRp4770
I00
S'http://www.web2py.com/examples/default/support'
p4771
tp4772
a(g4444
(S's\x04\x00\x00\x00Demo'
tRp4773
I00
S'http://web2py.com/demo_admin'
p4774
tp4775
a(g4444
(S's\x0e\x00\x00\x00Quick Examples'
tRp4776
I00
S'http://web2py.com/examples/default/examples'
p4777
tp4778
a(g4444
(S's\x03\x00\x00\x00FAQ'
tRp4779
I00
S'http://web2py.com/AlterEgo'
p4780
tp4781
a(g4444
(S's\x06\x00\x00\x00Videos'
tRp4782
I00
S'http://www.web2py.com/examples/default/videos/'
p4783
tp4784
a(g4444
(S's\x11\x00\x00\x00Free Applications'
tRp4785
I00
S'http://web2py.com/appliances'
p4786
tp4787
a(g4444
(S's\x07\x00\x00\x00Plugins'
tRp4788
I00
S'http://web2py.com/plugins'
p4789
tp4790
a(g4444
(S's\x07\x00\x00\x00Layouts'
tRp4791
I00
S'http://web2py.com/layouts'
p4792
tp4793
a(g4444
(S's\x07\x00\x00\x00Recipes'
tRp4794
I00
S'http://web2pyslices.com/'
p4795
tp4796
a(g4444
(S's\x08\x00\x00\x00Semantic'
tRp4797
I00
S'http://web2py.com/semantic'
p4798
tp4799
aasbasbasbasbasbasbasbag57
(g73
g59
NtRp4800
(dp4801
g62
(dp4802
sg71
g4557
sg64
(lp4803
g57
(g78
g59
NtRp4804
(dp4805
g62
(dp4806
sg71
g4800
sg64
(lp4807
g57
(g58
g59
NtRp4808
(dp4809
g62
(dp4810
g70
I2
ssg71
g4804
sg64
(lp4811
g57
(g66
g59
NtRp4812
(dp4813
g62
(dp4814
g70
I1
ssg71
Nsg64
(lp4815
g57
(g73
g59
NtRp4816
(dp4817
g62
(dp4818
sg71
g4812
sg64
(lp4819
g57
(g78
g59
NtRp4820
(dp4821
g62
(dp4822
sg71
g4816
sg64
(lp4823
g57
(g58
g59
NtRp4824
(dp4825
g62
(dp4826
g70
I1
ssg71
g4820
sg64
(lp4827
g4444
(S's\r\x00\x00\x00Documentation'
tRp4828
asbasbasbag57
(g73
g59
NtRp4829
(dp4830
g62
(dp4831
sg71
g4812
sg64
(lp4832
g57
(g78
g59
NtRp4833
(dp4834
g62
(dp4835
sg71
g4829
sg64
(lp4836
g57
(g58
g59
NtRp4837
(dp4838
g62
(dp4839
g70
I1
ssg71
g4833
sg64
(lp4840
I00
asbasbasbag57
(g73
g59
NtRp4841
(dp4842
g62
(dp4843
sg71
g4812
sg64
(lp4844
g57
(g78
g59
NtRp4845
(dp4846
g62
(dp4847
sg71
g4841
sg64
(lp4848
g57
(g58
g59
NtRp4849
(dp4850
g62
(dp4851
g70
I1
ssg71
g4845
sg64
(lp4852
S'http://www.web2py.com/book'
p4853
asbasbasbag57
(g73
g59
NtRp4854
(dp4855
g62
(dp4856
sg71
g4812
sg64
(lp4857
g57
(g78
g59
NtRp4858
(dp4859
g62
(dp4860
sg71
g4854
sg64
(lp4861
g57
(g58
g59
NtRp4862
(dp4863
g62
(dp4864
g70
I1
ssg71
g4858
sg64
(lp4865
(lp4866
(g4444
(S's\x07\x00\x00\x00Preface'
tRp4867
I00
S'http://www.web2py.com/book/default/chapter/00'
p4868
tp4869
a(g4444
(S's\x0c\x00\x00\x00Introduction'
tRp4870
I00
S'http://www.web2py.com/book/default/chapter/01'
p4871
tp4872
a(g4444
(S's\x06\x00\x00\x00Python'
tRp4873
I00
S'http://www.web2py.com/book/default/chapter/02'
p4874
tp4875
a(g4444
(S's\x08\x00\x00\x00Overview'
tRp4876
I00
S'http://www.web2py.com/book/default/chapter/03'
p4877
tp4878
a(g4444
(S's\x08\x00\x00\x00The Core'
tRp4879
I00
S'http://www.web2py.com/book/default/chapter/04'
p4880
tp4881
a(g4444
(S's\t\x00\x00\x00The Views'
tRp4882
I00
S'http://www.web2py.com/book/default/chapter/05'
p4883
tp4884
a(g4444
(S's\x08\x00\x00\x00Database'
tRp4885
I00
S'http://www.web2py.com/book/default/chapter/06'
p4886
tp4887
a(g4444
(S's\x14\x00\x00\x00Forms and Validators'
tRp4888
I00
S'http://www.web2py.com/book/default/chapter/07'
p4889
tp4890
a(g4444
(S's\r\x00\x00\x00Email and SMS'
tRp4891
I00
S'http://www.web2py.com/book/default/chapter/08'
p4892
tp4893
a(g4444
(S's\x0e\x00\x00\x00Access Control'
tRp4894
I00
S'http://www.web2py.com/book/default/chapter/09'
p4895
tp4896
a(g4444
(S's\x08\x00\x00\x00Services'
tRp4897
I00
S'http://www.web2py.com/book/default/chapter/10'
p4898
tp4899
a(g4444
(S's\x0c\x00\x00\x00Ajax Recipes'
tRp4900
I00
S'http://www.web2py.com/book/default/chapter/11'
p4901
tp4902
a(g4444
(S's\x16\x00\x00\x00Components and Plugins'
tRp4903
I00
S'http://www.web2py.com/book/default/chapter/12'
p4904
tp4905
a(g4444
(S's\x12\x00\x00\x00Deployment Recipes'
tRp4906
I00
S'http://www.web2py.com/book/default/chapter/13'
p4907
tp4908
a(g4444
(S's\r\x00\x00\x00Other Recipes'
tRp4909
I00
S'http://www.web2py.com/book/default/chapter/14'
p4910
tp4911
a(g4444
(S's\r\x00\x00\x00Buy this book'
tRp4912
I00
S'http://stores.lulu.com/web2py'
p4913
tp4914
aasbasbasbasbasbasbasbag57
(g73
g59
NtRp4915
(dp4916
g62
(dp4917
sg71
g4557
sg64
(lp4918
g57
(g78
g59
NtRp4919
(dp4920
g62
(dp4921
sg71
g4915
sg64
(lp4922
g57
(g58
g59
NtRp4923
(dp4924
g62
(dp4925
g70
I2
ssg71
g4919
sg64
(lp4926
g57
(g66
g59
NtRp4927
(dp4928
g62
(dp4929
g70
I1
ssg71
Nsg64
(lp4930
g57
(g73
g59
NtRp4931
(dp4932
g62
(dp4933
sg71
g4927
sg64
(lp4934
g57
(g78
g59
NtRp4935
(dp4936
g62
(dp4937
sg71
g4931
sg64
(lp4938
g57
(g58
g59
NtRp4939
(dp4940
g62
(dp4941
g70
I1
ssg71
g4935
sg64
(lp4942
g4444
(S's\t\x00\x00\x00Community'
tRp4943
asbasbasbag57
(g73
g59
NtRp4944
(dp4945
g62
(dp4946
sg71
g4927
sg64
(lp4947
g57
(g78
g59
NtRp4948
(dp4949
g62
(dp4950
sg71
g4944
sg64
(lp4951
g57
(g58
g59
NtRp4952
(dp4953
g62
(dp4954
g70
I1
ssg71
g4948
sg64
(lp4955
I00
asbasbasbag57
(g73
g59
NtRp4956
(dp4957
g62
(dp4958
sg71
g4927
sg64
(lp4959
g57
(g78
g59
NtRp4960
(dp4961
g62
(dp4962
sg71
g4956
sg64
(lp4963
g57
(g58
g59
NtRp4964
(dp4965
g62
(dp4966
g70
I1
ssg71
g4960
sg64
(lp4967
Nasbasbasbag57
(g73
g59
NtRp4968
(dp4969
g62
(dp4970
sg71
g4927
sg64
(lp4971
g57
(g78
g59
NtRp4972
(dp4973
g62
(dp4974
sg71
g4968
sg64
(lp4975
g57
(g58
g59
NtRp4976
(dp4977
g62
(dp4978
g70
I1
ssg71
g4972
sg64
(lp4979
(lp4980
(g4444
(S's\x06\x00\x00\x00Groups'
tRp4981
I00
S'http://www.web2py.com/examples/default/usergroups'
p4982
tp4983
a(g4444
(S's\x07\x00\x00\x00Twitter'
tRp4984
I00
S'http://twitter.com/web2py'
p4985
tp4986
a(g4444
(S's\t\x00\x00\x00Live Chat'
tRp4987
I00
S'http://webchat.freenode.net/?channels=web2py'
p4988
tp4989
aasbasbasbasbasbasbasbag57
(g73
g59
NtRp4990
(dp4991
g62
(dp4992
sg71
g4557
sg64
(lp4993
g57
(g78
g59
NtRp4994
(dp4995
g62
(dp4996
sg71
g4990
sg64
(lp4997
g57
(g58
g59
NtRp4998
(dp4999
g62
(dp5000
g70
I2
ssg71
g4994
sg64
(lp5001
g57
(g66
g59
NtRp5002
(dp5003
g62
(dp5004
g70
I1
ssg71
Nsg64
(lp5005
g57
(g73
g59
NtRp5006
(dp5007
g62
(dp5008
sg71
g5002
sg64
(lp5009
g57
(g78
g59
NtRp5010
(dp5011
g62
(dp5012
sg71
g5006
sg64
(lp5013
g57
(g58
g59
NtRp5014
(dp5015
g62
(dp5016
g70
I1
ssg71
g5010
sg64
(lp5017
g4444
(S's\x07\x00\x00\x00Plugins'
tRp5018
asbasbasbag57
(g73
g59
NtRp5019
(dp5020
g62
(dp5021
sg71
g5002
sg64
(lp5022
g57
(g78
g59
NtRp5023
(dp5024
g62
(dp5025
sg71
g5019
sg64
(lp5026
g57
(g58
g59
NtRp5027
(dp5028
g62
(dp5029
g70
I1
ssg71
g5023
sg64
(lp5030
I00
asbasbasbag57
(g73
g59
NtRp5031
(dp5032
g62
(dp5033
sg71
g5002
sg64
(lp5034
g57
(g78
g59
NtRp5035
(dp5036
g62
(dp5037
sg71
g5031
sg64
(lp5038
g57
(g58
g59
NtRp5039
(dp5040
g62
(dp5041
g70
I1
ssg71
g5035
sg64
(lp5042
Nasbasbasbag57
(g73
g59
NtRp5043
(dp5044
g62
(dp5045
sg71
g5002
sg64
(lp5046
g57
(g78
g59
NtRp5047
(dp5048
g62
(dp5049
sg71
g5043
sg64
(lp5050
g57
(g58
g59
NtRp5051
(dp5052
g62
(dp5053
g70
I1
ssg71
g5047
sg64
(lp5054
(lp5055
(S'plugin_wiki'
p5056
I00
S'http://web2py.com/examples/default/download'
p5057
tp5058
a(g4444
(S's\r\x00\x00\x00Other Plugins'
tRp5059
I00
g4789
tp5060
a(g4444
(S's\x0e\x00\x00\x00Layout Plugins'
tRp5061
I00
g4792
tp5062
aasbasbasbasbasbasbasbasbasbasbasbasbasbasbasbasbasbasbasbag57
(g73
g59
NtRp5063
(dp5064
g62
(dp5065
sg71
g3910
sg64
(lp5066
g57
(g78
g59
NtRp5067
(dp5068
g62
(dp5069
g82
g83
ssg71
g5063
sg64
(lp5070
S'meta'
p5071
asbag57
(g78
g59
NtRp5072
(dp5073
g62
(dp5074
g89
g90
ssg71
g5063
sg64
(lp5075
S':'
asbag57
(g78
g59
NtRp5076
(dp5077
g62
(dp5078
sg71
g5063
sg64
(lp5079
g57
(g58
g59
NtRp5080
(dp5081
g62
(dp5082
g70
I5
ssg71
g5076
sg64
(lp5083
g57
(g66
g59
NtRp5084
(dp5085
g62
(dp5086
g70
I4
ssg71
Nsg64
(lp5087
g57
(g73
g59
NtRp5088
(dp5089
g62
(dp5090
sg71
g5084
sg64
(lp5091
g57
(g78
g59
NtRp5092
(dp5093
g62
(dp5094
g82
g83
ssg71
g5088
sg64
(lp5095
S'author'
p5096
asbag57
(g78
g59
NtRp5097
(dp5098
g62
(dp5099
g89
g90
ssg71
g5088
sg64
(lp5100
S':'
asbag57
(g78
g59
NtRp5101
(dp5102
g62
(dp5103
sg71
g5088
sg64
(lp5104
g57
(g58
g59
NtRp5105
(dp5106
g62
(dp5107
g70
I4
ssg71
g5101
sg64
(lp5108
S'Your Name <you@example.com>'
p5109
asbasbasbag57
(g73
g59
NtRp5110
(dp5111
g62
(dp5112
sg71
g5084
sg64
(lp5113
g57
(g78
g59
NtRp5114
(dp5115
g62
(dp5116
g82
g83
ssg71
g5110
sg64
(lp5117
S'description'
p5118
asbag57
(g78
g59
NtRp5119
(dp5120
g62
(dp5121
g89
g90
ssg71
g5110
sg64
(lp5122
S':'
asbag57
(g78
g59
NtRp5123
(dp5124
g62
(dp5125
sg71
g5110
sg64
(lp5126
g57
(g58
g59
NtRp5127
(dp5128
g62
(dp5129
g70
I4
ssg71
g5123
sg64
(lp5130
S'a cool new app'
p5131
asbasbasbag57
(g73
g59
NtRp5132
(dp5133
g62
(dp5134
sg71
g5084
sg64
(lp5135
g57
(g78
g59
NtRp5136
(dp5137
g62
(dp5138
g82
g83
ssg71
g5132
sg64
(lp5139
S'generator'
p5140
asbag57
(g78
g59
NtRp5141
(dp5142
g62
(dp5143
g89
g90
ssg71
g5132
sg64
(lp5144
S':'
asbag57
(g78
g59
NtRp5145
(dp5146
g62
(dp5147
sg71
g5132
sg64
(lp5148
g57
(g58
g59
NtRp5149
(dp5150
g62
(dp5151
g70
I4
ssg71
g5145
sg64
(lp5152
S'Web2py Web Framework'
p5153
asbasbasbag57
(g73
g59
NtRp5154
(dp5155
g62
(dp5156
sg71
g5084
sg64
(lp5157
g57
(g78
g59
NtRp5158
(dp5159
g62
(dp5160
g82
g83
ssg71
g5154
sg64
(lp5161
S'keywords'
p5162
asbag57
(g78
g59
NtRp5163
(dp5164
g62
(dp5165
g89
g90
ssg71
g5154
sg64
(lp5166
S':'
asbag57
(g78
g59
NtRp5167
(dp5168
g62
(dp5169
sg71
g5154
sg64
(lp5170
g57
(g58
g59
NtRp5171
(dp5172
g62
(dp5173
g70
I4
ssg71
g5167
sg64
(lp5174
S'web2py, python, framework'
p5175
asbasbasbasbasbasbasbag57
(g73
g59
NtRp5176
(dp5177
g62
(dp5178
sg71
g3910
sg64
(lp5179
g57
(g78
g59
NtRp5180
(dp5181
g62
(dp5182
g82
g83
ssg71
g5176
sg64
(lp5183
S'models_to_run'
p5184
asbag57
(g78
g59
NtRp5185
(dp5186
g62
(dp5187
g89
g90
ssg71
g5176
sg64
(lp5188
S':'
asbag57
(g78
g59
NtRp5189
(dp5190
g62
(dp5191
sg71
g5176
sg64
(lp5192
g57
(g58
g59
NtRp5193
(dp5194
g62
(dp5195
g70
I5
ssg71
g5189
sg64
(lp5196
g57
(g66
g59
NtRp5197
(dp5198
g62
(dp5199
g70
I4
ssg71
Nsg64
(lp5200
g57
(g73
g59
NtRp5201
(dp5202
g62
(dp5203
sg71
g5197
sg64
(lp5204
g57
(g78
g59
NtRp5205
(dp5206
g62
(dp5207
sg71
g5201
sg64
(lp5208
g57
(g58
g59
NtRp5209
(dp5210
g62
(dp5211
g70
I4
ssg71
g5205
sg64
(lp5212
S'^\\w+\\.py$'
p5213
asbasbasbag57
(g73
g59
NtRp5214
(dp5215
g62
(dp5216
sg71
g5197
sg64
(lp5217
g57
(g78
g59
NtRp5218
(dp5219
g62
(dp5220
sg71
g5214
sg64
(lp5221
g57
(g58
g59
NtRp5222
(dp5223
g62
(dp5224
g70
I4
ssg71
g5218
sg64
(lp5225
S'^default/\\w+\\.py$'
p5226
asbasbasbag57
(g73
g59
NtRp5227
(dp5228
g62
(dp5229
sg71
g5197
sg64
(lp5230
g57
(g78
g59
NtRp5231
(dp5232
g62
(dp5233
sg71
g5227
sg64
(lp5234
g57
(g58
g59
NtRp5235
(dp5236
g62
(dp5237
g70
I4
ssg71
g5231
sg64
(lp5238
S'^default/calendar/\\w+\\.py$'
p5239
asbasbasbasbasbasbasbag57
(g73
g59
NtRp5240
(dp5241
g62
(dp5242
sg71
g3910
sg64
(lp5243
g57
(g78
g59
NtRp5244
(dp5245
g62
(dp5246
g82
g83
ssg71
g5240
sg64
(lp5247
S'postprocessing'
p5248
asbag57
(g78
g59
NtRp5249
(dp5250
g62
(dp5251
g89
g90
ssg71
g5240
sg64
(lp5252
S':'
asbag57
(g78
g59
NtRp5253
(dp5254
g62
(dp5255
sg71
g5240
sg64
(lp5256
g57
(g58
g59
NtRp5257
(dp5258
g62
(dp5259
g70
I5
ssg71
g5253
sg64
(lp5260
g57
(g66
g59
NtRp5261
(dp5262
g62
(dp5263
g70
I4
ssg71
Nsg64
(lp5264
sbasbasbasbag57
(g73
g59
NtRp5265
(dp5266
g62
(dp5267
sg71
g3910
sg64
(lp5268
g57
(g78
g59
NtRp5269
(dp5270
g62
(dp5271
g82
g83
ssg71
g5265
sg64
(lp5272
S'session_cookie_expires'
p5273
asbag57
(g78
g59
NtRp5274
(dp5275
g62
(dp5276
g89
g90
ssg71
g5265
sg64
(lp5277
S':'
asbag57
(g78
g59
NtRp5278
(dp5279
g62
(dp5280
sg71
g5265
sg64
(lp5281
g57
(g58
g59
NtRp5282
(dp5283
g62
(dp5284
g70
I5
ssg71
g5278
sg64
(lp5285
S'None'
p5286
asbasbasbag57
(g73
g59
NtRp5287
(dp5288
g62
(dp5289
sg71
g3910
sg64
(lp5290
g57
(g78
g59
NtRp5291
(dp5292
g62
(dp5293
g82
g83
ssg71
g5287
sg64
(lp5294
S'session_data_name'
p5295
asbag57
(g78
g59
NtRp5296
(dp5297
g62
(dp5298
g89
g90
ssg71
g5287
sg64
(lp5299
S':'
asbag57
(g78
g59
NtRp5300
(dp5301
g62
(dp5302
sg71
g5287
sg64
(lp5303
g57
(g58
g59
NtRp5304
(dp5305
g62
(dp5306
g70
I5
ssg71
g5300
sg64
(lp5307
S'session_data_iiit_calendars'
p5308
asbasbasbag57
(g73
g59
NtRp5309
(dp5310
g62
(dp5311
sg71
g3910
sg64
(lp5312
g57
(g78
g59
NtRp5313
(dp5314
g62
(dp5315
g82
g83
ssg71
g5309
sg64
(lp5316
S'session_file'
p5317
asbag57
(g78
g59
NtRp5318
(dp5319
g62
(dp5320
g89
g90
ssg71
g5309
sg64
(lp5321
S':'
asbag57
(g78
g59
NtRp5322
(dp5323
g62
(dp5324
sg71
g5309
sg64
(lp5325
g57
(g58
g59
NtRp5326
(dp5327
g62
(dp5328
g70
I5
ssg71
g5322
sg64
(lp5329
S"<open file '/home/simran/web2py/applications/IIIT_calendars/sessions/127.0.0.1-a1d9d8aa-d618-411c-bf72-1b1bcb1390e8', mode 'rb+' at 0x7fd6b0119e40>"
p5330
asbasbasbag57
(g73
g59
NtRp5331
(dp5332
g62
(dp5333
sg71
g3910
sg64
(lp5334
g57
(g78
g59
NtRp5335
(dp5336
g62
(dp5337
g82
g83
ssg71
g5331
sg64
(lp5338
S'session_filename'
p5339
asbag57
(g78
g59
NtRp5340
(dp5341
g62
(dp5342
g89
g90
ssg71
g5331
sg64
(lp5343
S':'
asbag57
(g78
g59
NtRp5344
(dp5345
g62
(dp5346
sg71
g5331
sg64
(lp5347
g57
(g58
g59
NtRp5348
(dp5349
g62
(dp5350
g70
I5
ssg71
g5344
sg64
(lp5351
S'/home/simran/web2py/applications/IIIT_calendars/sessions/127.0.0.1-a1d9d8aa-d618-411c-bf72-1b1bcb1390e8'
p5352
asbasbasbag57
(g73
g59
NtRp5353
(dp5354
g62
(dp5355
sg71
g3910
sg64
(lp5356
g57
(g78
g59
NtRp5357
(dp5358
g62
(dp5359
g82
g83
ssg71
g5353
sg64
(lp5360
S'session_id'
p5361
asbag57
(g78
g59
NtRp5362
(dp5363
g62
(dp5364
g89
g90
ssg71
g5353
sg64
(lp5365
S':'
asbag57
(g78
g59
NtRp5366
(dp5367
g62
(dp5368
sg71
g5353
sg64
(lp5369
g57
(g58
g59
NtRp5370
(dp5371
g62
(dp5372
g70
I5
ssg71
g5366
sg64
(lp5373
g661
asbasbasbag57
(g73
g59
NtRp5374
(dp5375
g62
(dp5376
sg71
g3910
sg64
(lp5377
g57
(g78
g59
NtRp5378
(dp5379
g62
(dp5380
g82
g83
ssg71
g5374
sg64
(lp5381
S'session_id_name'
p5382
asbag57
(g78
g59
NtRp5383
(dp5384
g62
(dp5385
g89
g90
ssg71
g5374
sg64
(lp5386
S':'
asbag57
(g78
g59
NtRp5387
(dp5388
g62
(dp5389
sg71
g5374
sg64
(lp5390
g57
(g58
g59
NtRp5391
(dp5392
g62
(dp5393
g70
I5
ssg71
g5387
sg64
(lp5394
g3967
asbasbasbag57
(g73
g59
NtRp5395
(dp5396
g62
(dp5397
sg71
g3910
sg64
(lp5398
g57
(g78
g59
NtRp5399
(dp5400
g62
(dp5401
g82
g83
ssg71
g5395
sg64
(lp5402
S'session_locked'
p5403
asbag57
(g78
g59
NtRp5404
(dp5405
g62
(dp5406
g89
g90
ssg71
g5395
sg64
(lp5407
S':'
asbag57
(g78
g59
NtRp5408
(dp5409
g62
(dp5410
sg71
g5395
sg64
(lp5411
g57
(g58
g59
NtRp5412
(dp5413
g62
(dp5414
g70
I5
ssg71
g5408
sg64
(lp5415
g1957
asbasbasbag57
(g73
g59
NtRp5416
(dp5417
g62
(dp5418
sg71
g3910
sg64
(lp5419
g57
(g78
g59
NtRp5420
(dp5421
g62
(dp5422
g82
g83
ssg71
g5416
sg64
(lp5423
S'session_new'
p5424
asbag57
(g78
g59
NtRp5425
(dp5426
g62
(dp5427
g89
g90
ssg71
g5416
sg64
(lp5428
S':'
asbag57
(g78
g59
NtRp5429
(dp5430
g62
(dp5431
sg71
g5416
sg64
(lp5432
g57
(g58
g59
NtRp5433
(dp5434
g62
(dp5435
g70
I5
ssg71
g5429
sg64
(lp5436
g100
asbasbasbag57
(g73
g59
NtRp5437
(dp5438
g62
(dp5439
sg71
g3910
sg64
(lp5440
g57
(g78
g59
NtRp5441
(dp5442
g62
(dp5443
g82
g83
ssg71
g5437
sg64
(lp5444
S'session_storage_type'
p5445
asbag57
(g78
g59
NtRp5446
(dp5447
g62
(dp5448
g89
g90
ssg71
g5437
sg64
(lp5449
S':'
asbag57
(g78
g59
NtRp5450
(dp5451
g62
(dp5452
sg71
g5437
sg64
(lp5453
g57
(g58
g59
NtRp5454
(dp5455
g62
(dp5456
g70
I5
ssg71
g5450
sg64
(lp5457
g3429
asbasbasbag57
(g73
g59
NtRp5458
(dp5459
g62
(dp5460
sg71
g3910
sg64
(lp5461
g57
(g78
g59
NtRp5462
(dp5463
g62
(dp5464
g82
g83
ssg71
g5458
sg64
(lp5465
S'status'
p5466
asbag57
(g78
g59
NtRp5467
(dp5468
g62
(dp5469
g89
g90
ssg71
g5458
sg64
(lp5470
S':'
asbag57
(g78
g59
NtRp5471
(dp5472
g62
(dp5473
sg71
g5458
sg64
(lp5474
g57
(g58
g59
NtRp5475
(dp5476
g62
(dp5477
g70
I5
ssg71
g5471
sg64
(lp5478
S'200'
p5479
asbasbasbag57
(g73
g59
NtRp5480
(dp5481
g62
(dp5482
sg71
g3910
sg64
(lp5483
g57
(g78
g59
NtRp5484
(dp5485
g62
(dp5486
g82
g83
ssg71
g5480
sg64
(lp5487
S'subtitle'
p5488
asbag57
(g78
g59
NtRp5489
(dp5490
g62
(dp5491
g89
g90
ssg71
g5480
sg64
(lp5492
S':'
asbag57
(g78
g59
NtRp5493
(dp5494
g62
(dp5495
sg71
g5480
sg64
(lp5496
g57
(g58
g59
NtRp5497
(dp5498
g62
(dp5499
g70
I5
ssg71
g5493
sg64
(lp5500
g4444
(S's\r\x00\x00\x00customize me!'
tRp5501
asbasbasbag57
(g73
g59
NtRp5502
(dp5503
g62
(dp5504
sg71
g3910
sg64
(lp5505
g57
(g78
g59
NtRp5506
(dp5507
g62
(dp5508
g82
g83
ssg71
g5502
sg64
(lp5509
S'title'
p5510
asbag57
(g78
g59
NtRp5511
(dp5512
g62
(dp5513
g89
g90
ssg71
g5502
sg64
(lp5514
S':'
asbag57
(g78
g59
NtRp5515
(dp5516
g62
(dp5517
sg71
g5502
sg64
(lp5518
g57
(g58
g59
NtRp5519
(dp5520
g62
(dp5521
g70
I5
ssg71
g5515
sg64
(lp5522
S'Iiit Calendars'
p5523
asbasbasbag57
(g73
g59
NtRp5524
(dp5525
g62
(dp5526
sg71
g3910
sg64
(lp5527
g57
(g78
g59
NtRp5528
(dp5529
g62
(dp5530
g82
g83
ssg71
g5524
sg64
(lp5531
S'view'
p5532
asbag57
(g78
g59
NtRp5533
(dp5534
g62
(dp5535
g89
g90
ssg71
g5524
sg64
(lp5536
S':'
asbag57
(g78
g59
NtRp5537
(dp5538
g62
(dp5539
sg71
g5524
sg64
(lp5540
g57
(g58
g59
NtRp5541
(dp5542
g62
(dp5543
g70
I5
ssg71
g5537
sg64
(lp5544
S'default/calendar.html'
p5545
asbasbasbasbasbsS'locals'
p5546
(dp5547
S'c'
S'None'
p5548
sssS'traceback'
p5549
S'Traceback (most recent call last):\n  File "/home/simran/web2py/gluon/restricted.py", line 212, in restricted\n    exec ccode in environment\n  File "/home/simran/web2py/applications/IIIT_calendars/controllers/default.py", line 138, in <module>\n  File "/home/simran/web2py/gluon/globals.py", line 193, in <lambda>\n    self._caller = lambda f: f()\n  File "/home/simran/web2py/applications/IIIT_calendars/controllers/default.py", line 25, in calendar\n    q=db(db.auth_user.id==int(c)).select(db.auth_user.first_name)\nTypeError: int() argument must be a string or a number, not \'NoneType\'\n'
p5550
s.