(dp1
S'output'
p2
S"<type 'exceptions.TypeError'> 'NoneType' object is not callable"
p3
sS'layer'
p4
S'/home/simran/web2py/applications/IIIT_calendars/controllers/default.py'
p5
sS'code'
p6
S'# -*- coding: utf-8 -*-\n# this file is released under public domain and you can use without limitations\n\n#########################################################################\n## This is a samples controller\n## - index is the default action of any application\n## - user is required for authentication and authorization\n## - download is for downloading files uploaded in the db (does streaming)\n## - call exposes all registered services (none by default)\n#########################################################################\nimport os\nimport datetime\nimport fileinput\n@auth.requires_login()\ndef index():\n   \'auth\' in globals() \n   c=auth.user.id\n   if c==18:\n       redirect(URL(\'admin_op\'))\n   return locals()\n   \ndef calendar():\n    \'auth\' in globals()\n    c=request.args(0)\n    return locals()\n    \ndef user():\n    """\n    exposes:\n    http://..../[app]/default/user/login\n    http://..../[app]/default/user/logout\n    http://..../[app]/default/user/register\n    http://..../[app]/default/user/profile\n    http://..../[app]/default/user/retrieve_password\n    http://..../[app]/default/user/change_password\n    use @auth.requires_login()\n        @auth.requires_membership(\'group name\')\n        @auth.requires_permission(\'read\',\'table name\',record_id)\n    to decorate functions that need access control\n    """\n    return dict(form=auth())\n\n\ndef download():\n    """\n    allows downloading of uploaded files\n    http://..../[app]/default/download/[filename]\n    """\n    return response.download(request, db)\n\n\ndef call():\n    """\n    exposes services. for example:\n    http://..../[app]/default/call/jsonrpc\n    decorate with @services.jsonrpc the functions to expose\n    supports xml, json, xmlrpc, jsonrpc, amfrpc, rss, csv\n    """\n    return service()\n\n\n@auth.requires_signature()\ndef data():\n    """\n    http://..../[app]/default/data/tables\n    http://..../[app]/default/data/create/[table]\n    http://..../[app]/default/data/read/[table]/[id]\n    http://..../[app]/default/data/update/[table]/[id]\n    http://..../[app]/default/data/delete/[table]/[id]\n    http://..../[app]/default/data/select/[table]\n    http://..../[app]/default/data/search/[table]\n    but URLs must be signed, i.e. linked with\n      A(\'table\',_href=URL(\'data/tables\',user_signature=True))\n    or with the signed load operator\n      LOAD(\'default\',\'data.load\',args=\'tables\',ajax=True,user_signature=True)\n    """\n    return dict(form=crud())\n    \ndef add_events():\n    db.events.Nameofuser.default=auth.user.first_name\n    form=SQLFORM(db.events).process(next=URL(\'default\',\'index\'))\n    return locals()\n    \ndef add_tasks():\n    form=SQLFORM(db.tasks)\n    if form.process().accepted:\n        response.flash="Done"\n    return locals()\n    \ndef editeventdetails():\n    return locals()\n    \ndef edittaskdetails():\n    return locals()\n    \ndef edit_events2():\n    form = SQLFORM(db.events, request.vars.event)\n    if form.accepts(request.vars, session):\n        redirect("index")\n    elif form.errors:\n        response.flash = "temp"\n    return dict(form=form)\n\ndef delete_eventdetails():\n    return locals()\n\ndef delete_event():\n    c=request.vars.event\n    db(db.events.Title==c).delete()\n    return\ndef admin_op():\n    c=auth.user.first_name\n    p=db(db.auth_user.id!=18).select(db.auth_user.first_name,db.auth_user.id)\n    return locals()\n\n#def edit_events():\n #  c=request.post_vars\n  #  print"c: ", c\n   # p=db(db.events.Title==request.post_vars.event).select().first()\n    #    form = SQLFORM(db.events, i.id)\n     #   if form.accepts(request.vars,session):\n      #      redirect(URL(\'index\'))\n       # elif form.errors:\n        #    response.flash=\'Errors in form\'\n    #return dict(form=form)\n\ndef add_adminevents():\n    form=SQLFORM(db.admin_events).process(next=URL(\'default\',\'admin_op\'))\n    return locals()\n    \ndef editadmineventdetails():\n    return locals()\n    \ndef admin_calendar():\n    c=request.post_vars\n    q=db(db.auth_user.id==int(c)).select(db.auth_user.first_name)[0]\n    return locals()\n    \ndef printn():\n\treturn locals()\n\nresponse._vars=response._caller(admin_calendar)\n'
p7
sS'snapshot'
p8
(dp9
S'exception'
p10
(dp11
S'__hash__'
p12
S"<method-wrapper '__hash__' of exceptions.TypeError object>"
p13
sS'__setattr__'
p14
S"<method-wrapper '__setattr__' of exceptions.TypeError object>"
p15
sS'__reduce_ex__'
p16
S'<built-in method __reduce_ex__ of exceptions.TypeError object>'
p17
sS'__getslice__'
p18
S"<method-wrapper '__getslice__' of exceptions.TypeError object>"
p19
sS'__getitem__'
p20
S"<method-wrapper '__getitem__' of exceptions.TypeError object>"
p21
sS'__setstate__'
p22
S'<built-in method __setstate__ of exceptions.TypeError object>'
p23
sS'args'
p24
S'("\'NoneType\' object is not callable",)'
p25
sS'__reduce__'
p26
S'<built-in method __reduce__ of exceptions.TypeError object>'
p27
sS'__str__'
p28
S"<method-wrapper '__str__' of exceptions.TypeError object>"
p29
sS'__format__'
p30
S'<built-in method __format__ of exceptions.TypeError object>'
p31
sS'__getattribute__'
p32
S"<method-wrapper '__getattribute__' of exceptions.TypeError object>"
p33
sS'__class__'
p34
S"<type 'exceptions.TypeError'>"
p35
sS'__unicode__'
p36
S'<built-in method __unicode__ of exceptions.TypeError object>'
p37
sS'__delattr__'
p38
S"<method-wrapper '__delattr__' of exceptions.TypeError object>"
p39
sS'__subclasshook__'
p40
S'<built-in method __subclasshook__ of type object>'
p41
sS'__repr__'
p42
S"<method-wrapper '__repr__' of exceptions.TypeError object>"
p43
sS'__dict__'
p44
S'{}'
p45
sS'__sizeof__'
p46
S'<built-in method __sizeof__ of exceptions.TypeError object>'
p47
sS'__doc__'
p48
S"'Inappropriate argument type.'"
p49
sS'__init__'
p50
S"<method-wrapper '__init__' of exceptions.TypeError object>"
p51
sS'__new__'
p52
S'<built-in method __new__ of type object>'
p53
ssS'evalue'
p54
S"'NoneType' object is not callable"
p55
sS'request'
p56
ccopy_reg
_reconstructor
p57
(cgluon.html
BEAUTIFY
p58
c__builtin__
object
p59
NtRp60
(dp61
S'attributes'
p62
(dp63
sS'components'
p64
(lp65
g57
(cgluon.html
TABLE
p66
g59
NtRp67
(dp68
g62
(dp69
S'level'
p70
I5
ssS'parent'
p71
Nsg64
(lp72
g57
(cgluon.html
TR
p73
g59
NtRp74
(dp75
g62
(dp76
sg71
g67
sg64
(lp77
g57
(cgluon.html
TD
p78
g59
NtRp79
(dp80
g62
(dp81
S'_style'
p82
S'font-weight:bold;vertical-align:top'
p83
ssg71
g74
sg64
(lp84
S'ajax'
p85
asbag57
(g78
g59
NtRp86
(dp87
g62
(dp88
S'_valign'
p89
S'top'
p90
ssg71
g74
sg64
(lp91
S':'
asbag57
(g78
g59
NtRp92
(dp93
g62
(dp94
sg71
g74
sg64
(lp95
g57
(g58
g59
NtRp96
(dp97
g62
(dp98
g70
I5
ssg71
g92
sg64
(lp99
S'False'
p100
asbasbasbag57
(g73
g59
NtRp101
(dp102
g62
(dp103
sg71
g67
sg64
(lp104
g57
(g78
g59
NtRp105
(dp106
g62
(dp107
g82
g83
ssg71
g101
sg64
(lp108
S'application'
p109
asbag57
(g78
g59
NtRp110
(dp111
g62
(dp112
g89
g90
ssg71
g101
sg64
(lp113
S':'
asbag57
(g78
g59
NtRp114
(dp115
g62
(dp116
sg71
g101
sg64
(lp117
g57
(g58
g59
NtRp118
(dp119
g62
(dp120
g70
I5
ssg71
g114
sg64
(lp121
S'IIIT_calendars'
p122
asbasbasbag57
(g73
g59
NtRp123
(dp124
g62
(dp125
sg71
g67
sg64
(lp126
g57
(g78
g59
NtRp127
(dp128
g62
(dp129
g82
g83
ssg71
g123
sg64
(lp130
g24
asbag57
(g78
g59
NtRp131
(dp132
g62
(dp133
g89
g90
ssg71
g123
sg64
(lp134
S':'
asbag57
(g78
g59
NtRp135
(dp136
g62
(dp137
sg71
g123
sg64
(lp138
g57
(g58
g59
NtRp139
(dp140
g62
(dp141
g70
I5
ssg71
g135
sg64
(lp142
g57
(g66
g59
NtRp143
(dp144
g62
(dp145
g70
I4
ssg71
Nsg64
(lp146
sbasbasbasbag57
(g73
g59
NtRp147
(dp148
g62
(dp149
sg71
g67
sg64
(lp150
g57
(g78
g59
NtRp151
(dp152
g62
(dp153
g82
g83
ssg71
g147
sg64
(lp154
S'body'
p155
asbag57
(g78
g59
NtRp156
(dp157
g62
(dp158
g89
g90
ssg71
g147
sg64
(lp159
S':'
asbag57
(g78
g59
NtRp160
(dp161
g62
(dp162
sg71
g147
sg64
(lp163
g57
(g58
g59
NtRp164
(dp165
g62
(dp166
g70
I5
ssg71
g160
sg64
(lp167
S"<open file '<fdopen>', mode 'w+b' at 0x7fd6ac33cb70>"
p168
asbasbasbag57
(g73
g59
NtRp169
(dp170
g62
(dp171
sg71
g67
sg64
(lp172
g57
(g78
g59
NtRp173
(dp174
g62
(dp175
g82
g83
ssg71
g169
sg64
(lp176
S'cid'
p177
asbag57
(g78
g59
NtRp178
(dp179
g62
(dp180
g89
g90
ssg71
g169
sg64
(lp181
S':'
asbag57
(g78
g59
NtRp182
(dp183
g62
(dp184
sg71
g169
sg64
(lp185
g57
(g58
g59
NtRp186
(dp187
g62
(dp188
g70
I5
ssg71
g182
sg64
(lp189
S'None'
p190
asbasbasbag57
(g73
g59
NtRp191
(dp192
g62
(dp193
sg71
g67
sg64
(lp194
g57
(g78
g59
NtRp195
(dp196
g62
(dp197
g82
g83
ssg71
g191
sg64
(lp198
S'client'
p199
asbag57
(g78
g59
NtRp200
(dp201
g62
(dp202
g89
g90
ssg71
g191
sg64
(lp203
S':'
asbag57
(g78
g59
NtRp204
(dp205
g62
(dp206
sg71
g191
sg64
(lp207
g57
(g58
g59
NtRp208
(dp209
g62
(dp210
g70
I5
ssg71
g204
sg64
(lp211
S'127.0.0.1'
p212
asbasbasbag57
(g73
g59
NtRp213
(dp214
g62
(dp215
sg71
g67
sg64
(lp216
g57
(g78
g59
NtRp217
(dp218
g62
(dp219
g82
g83
ssg71
g213
sg64
(lp220
S'controller'
p221
asbag57
(g78
g59
NtRp222
(dp223
g62
(dp224
g89
g90
ssg71
g213
sg64
(lp225
S':'
asbag57
(g78
g59
NtRp226
(dp227
g62
(dp228
sg71
g213
sg64
(lp229
g57
(g58
g59
NtRp230
(dp231
g62
(dp232
g70
I5
ssg71
g226
sg64
(lp233
S'default'
p234
asbasbasbag57
(g73
g59
NtRp235
(dp236
g62
(dp237
sg71
g67
sg64
(lp238
g57
(g78
g59
NtRp239
(dp240
g62
(dp241
g82
g83
ssg71
g235
sg64
(lp242
S'cookies'
p243
asbag57
(g78
g59
NtRp244
(dp245
g62
(dp246
g89
g90
ssg71
g235
sg64
(lp247
S':'
asbag57
(g78
g59
NtRp248
(dp249
g62
(dp250
sg71
g235
sg64
(lp251
g57
(g58
g59
NtRp252
(dp253
g62
(dp254
g70
I5
ssg71
g248
sg64
(lp255
g57
(g66
g59
NtRp256
(dp257
g62
(dp258
g70
I4
ssg71
Nsg64
(lp259
g57
(g73
g59
NtRp260
(dp261
g62
(dp262
sg71
g256
sg64
(lp263
g57
(g78
g59
NtRp264
(dp265
g62
(dp266
g82
g83
ssg71
g260
sg64
(lp267
S'session_id_admin'
p268
asbag57
(g78
g59
NtRp269
(dp270
g62
(dp271
g89
g90
ssg71
g260
sg64
(lp272
S':'
asbag57
(g78
g59
NtRp273
(dp274
g62
(dp275
sg71
g260
sg64
(lp276
g57
(g58
g59
NtRp277
(dp278
g62
(dp279
g70
I4
ssg71
g273
sg64
(lp280
S'127.0.0.1-bcfe86f7-6b2e-4746-8640-c56f94d5ddd1'
p281
ag57
(g66
g59
NtRp282
(dp283
g62
(dp284
g70
I3
ssg71
Nsg64
(lp285
g57
(g73
g59
NtRp286
(dp287
g62
(dp288
sg71
g282
sg64
(lp289
g57
(g78
g59
NtRp290
(dp291
g62
(dp292
g82
g83
ssg71
g286
sg64
(lp293
S'comment'
p294
asbag57
(g78
g59
NtRp295
(dp296
g62
(dp297
g89
g90
ssg71
g286
sg64
(lp298
S':'
asbag57
(g78
g59
NtRp299
(dp300
g62
(dp301
sg71
g286
sg64
(lp302
g57
(g58
g59
NtRp303
(dp304
g62
(dp305
g70
I3
ssg71
g299
sg64
(lp306
S''
asbasbasbag57
(g73
g59
NtRp307
(dp308
g62
(dp309
sg71
g282
sg64
(lp310
g57
(g78
g59
NtRp311
(dp312
g62
(dp313
g82
g83
ssg71
g307
sg64
(lp314
S'domain'
p315
asbag57
(g78
g59
NtRp316
(dp317
g62
(dp318
g89
g90
ssg71
g307
sg64
(lp319
S':'
asbag57
(g78
g59
NtRp320
(dp321
g62
(dp322
sg71
g307
sg64
(lp323
g57
(g58
g59
NtRp324
(dp325
g62
(dp326
g70
I3
ssg71
g320
sg64
(lp327
S''
asbasbasbag57
(g73
g59
NtRp328
(dp329
g62
(dp330
sg71
g282
sg64
(lp331
g57
(g78
g59
NtRp332
(dp333
g62
(dp334
g82
g83
ssg71
g328
sg64
(lp335
S'expires'
p336
asbag57
(g78
g59
NtRp337
(dp338
g62
(dp339
g89
g90
ssg71
g328
sg64
(lp340
S':'
asbag57
(g78
g59
NtRp341
(dp342
g62
(dp343
sg71
g328
sg64
(lp344
g57
(g58
g59
NtRp345
(dp346
g62
(dp347
g70
I3
ssg71
g341
sg64
(lp348
S''
asbasbasbag57
(g73
g59
NtRp349
(dp350
g62
(dp351
sg71
g282
sg64
(lp352
g57
(g78
g59
NtRp353
(dp354
g62
(dp355
g82
g83
ssg71
g349
sg64
(lp356
S'httponly'
p357
asbag57
(g78
g59
NtRp358
(dp359
g62
(dp360
g89
g90
ssg71
g349
sg64
(lp361
S':'
asbag57
(g78
g59
NtRp362
(dp363
g62
(dp364
sg71
g349
sg64
(lp365
g57
(g58
g59
NtRp366
(dp367
g62
(dp368
g70
I3
ssg71
g362
sg64
(lp369
S''
asbasbasbag57
(g73
g59
NtRp370
(dp371
g62
(dp372
sg71
g282
sg64
(lp373
g57
(g78
g59
NtRp374
(dp375
g62
(dp376
g82
g83
ssg71
g370
sg64
(lp377
S'max-age'
p378
asbag57
(g78
g59
NtRp379
(dp380
g62
(dp381
g89
g90
ssg71
g370
sg64
(lp382
S':'
asbag57
(g78
g59
NtRp383
(dp384
g62
(dp385
sg71
g370
sg64
(lp386
g57
(g58
g59
NtRp387
(dp388
g62
(dp389
g70
I3
ssg71
g383
sg64
(lp390
S''
asbasbasbag57
(g73
g59
NtRp391
(dp392
g62
(dp393
sg71
g282
sg64
(lp394
g57
(g78
g59
NtRp395
(dp396
g62
(dp397
g82
g83
ssg71
g391
sg64
(lp398
S'path'
p399
asbag57
(g78
g59
NtRp400
(dp401
g62
(dp402
g89
g90
ssg71
g391
sg64
(lp403
S':'
asbag57
(g78
g59
NtRp404
(dp405
g62
(dp406
sg71
g391
sg64
(lp407
g57
(g58
g59
NtRp408
(dp409
g62
(dp410
g70
I3
ssg71
g404
sg64
(lp411
S''
asbasbasbag57
(g73
g59
NtRp412
(dp413
g62
(dp414
sg71
g282
sg64
(lp415
g57
(g78
g59
NtRp416
(dp417
g62
(dp418
g82
g83
ssg71
g412
sg64
(lp419
S'secure'
p420
asbag57
(g78
g59
NtRp421
(dp422
g62
(dp423
g89
g90
ssg71
g412
sg64
(lp424
S':'
asbag57
(g78
g59
NtRp425
(dp426
g62
(dp427
sg71
g412
sg64
(lp428
g57
(g58
g59
NtRp429
(dp430
g62
(dp431
g70
I3
ssg71
g425
sg64
(lp432
S''
asbasbasbag57
(g73
g59
NtRp433
(dp434
g62
(dp435
sg71
g282
sg64
(lp436
g57
(g78
g59
NtRp437
(dp438
g62
(dp439
g82
g83
ssg71
g433
sg64
(lp440
S'version'
p441
asbag57
(g78
g59
NtRp442
(dp443
g62
(dp444
g89
g90
ssg71
g433
sg64
(lp445
S':'
asbag57
(g78
g59
NtRp446
(dp447
g62
(dp448
sg71
g433
sg64
(lp449
g57
(g58
g59
NtRp450
(dp451
g62
(dp452
g70
I3
ssg71
g446
sg64
(lp453
S''
asbasbasbasbasbasbasbag57
(g73
g59
NtRp454
(dp455
g62
(dp456
sg71
g256
sg64
(lp457
g57
(g78
g59
NtRp458
(dp459
g62
(dp460
g82
g83
ssg71
g454
sg64
(lp461
S'session_id_calendar'
p462
asbag57
(g78
g59
NtRp463
(dp464
g62
(dp465
g89
g90
ssg71
g454
sg64
(lp466
S':'
asbag57
(g78
g59
NtRp467
(dp468
g62
(dp469
sg71
g454
sg64
(lp470
g57
(g58
g59
NtRp471
(dp472
g62
(dp473
g70
I4
ssg71
g467
sg64
(lp474
S'127.0.0.1-bb2e05ae-a2de-4759-8bb0-f43d3ba7303f'
p475
ag57
(g66
g59
NtRp476
(dp477
g62
(dp478
g70
I3
ssg71
Nsg64
(lp479
g57
(g73
g59
NtRp480
(dp481
g62
(dp482
sg71
g476
sg64
(lp483
g57
(g78
g59
NtRp484
(dp485
g62
(dp486
g82
g83
ssg71
g480
sg64
(lp487
g294
asbag57
(g78
g59
NtRp488
(dp489
g62
(dp490
g89
g90
ssg71
g480
sg64
(lp491
S':'
asbag57
(g78
g59
NtRp492
(dp493
g62
(dp494
sg71
g480
sg64
(lp495
g57
(g58
g59
NtRp496
(dp497
g62
(dp498
g70
I3
ssg71
g492
sg64
(lp499
S''
asbasbasbag57
(g73
g59
NtRp500
(dp501
g62
(dp502
sg71
g476
sg64
(lp503
g57
(g78
g59
NtRp504
(dp505
g62
(dp506
g82
g83
ssg71
g500
sg64
(lp507
g315
asbag57
(g78
g59
NtRp508
(dp509
g62
(dp510
g89
g90
ssg71
g500
sg64
(lp511
S':'
asbag57
(g78
g59
NtRp512
(dp513
g62
(dp514
sg71
g500
sg64
(lp515
g57
(g58
g59
NtRp516
(dp517
g62
(dp518
g70
I3
ssg71
g512
sg64
(lp519
S''
asbasbasbag57
(g73
g59
NtRp520
(dp521
g62
(dp522
sg71
g476
sg64
(lp523
g57
(g78
g59
NtRp524
(dp525
g62
(dp526
g82
g83
ssg71
g520
sg64
(lp527
g336
asbag57
(g78
g59
NtRp528
(dp529
g62
(dp530
g89
g90
ssg71
g520
sg64
(lp531
S':'
asbag57
(g78
g59
NtRp532
(dp533
g62
(dp534
sg71
g520
sg64
(lp535
g57
(g58
g59
NtRp536
(dp537
g62
(dp538
g70
I3
ssg71
g532
sg64
(lp539
S''
asbasbasbag57
(g73
g59
NtRp540
(dp541
g62
(dp542
sg71
g476
sg64
(lp543
g57
(g78
g59
NtRp544
(dp545
g62
(dp546
g82
g83
ssg71
g540
sg64
(lp547
g357
asbag57
(g78
g59
NtRp548
(dp549
g62
(dp550
g89
g90
ssg71
g540
sg64
(lp551
S':'
asbag57
(g78
g59
NtRp552
(dp553
g62
(dp554
sg71
g540
sg64
(lp555
g57
(g58
g59
NtRp556
(dp557
g62
(dp558
g70
I3
ssg71
g552
sg64
(lp559
S''
asbasbasbag57
(g73
g59
NtRp560
(dp561
g62
(dp562
sg71
g476
sg64
(lp563
g57
(g78
g59
NtRp564
(dp565
g62
(dp566
g82
g83
ssg71
g560
sg64
(lp567
g378
asbag57
(g78
g59
NtRp568
(dp569
g62
(dp570
g89
g90
ssg71
g560
sg64
(lp571
S':'
asbag57
(g78
g59
NtRp572
(dp573
g62
(dp574
sg71
g560
sg64
(lp575
g57
(g58
g59
NtRp576
(dp577
g62
(dp578
g70
I3
ssg71
g572
sg64
(lp579
S''
asbasbasbag57
(g73
g59
NtRp580
(dp581
g62
(dp582
sg71
g476
sg64
(lp583
g57
(g78
g59
NtRp584
(dp585
g62
(dp586
g82
g83
ssg71
g580
sg64
(lp587
g399
asbag57
(g78
g59
NtRp588
(dp589
g62
(dp590
g89
g90
ssg71
g580
sg64
(lp591
S':'
asbag57
(g78
g59
NtRp592
(dp593
g62
(dp594
sg71
g580
sg64
(lp595
g57
(g58
g59
NtRp596
(dp597
g62
(dp598
g70
I3
ssg71
g592
sg64
(lp599
S''
asbasbasbag57
(g73
g59
NtRp600
(dp601
g62
(dp602
sg71
g476
sg64
(lp603
g57
(g78
g59
NtRp604
(dp605
g62
(dp606
g82
g83
ssg71
g600
sg64
(lp607
g420
asbag57
(g78
g59
NtRp608
(dp609
g62
(dp610
g89
g90
ssg71
g600
sg64
(lp611
S':'
asbag57
(g78
g59
NtRp612
(dp613
g62
(dp614
sg71
g600
sg64
(lp615
g57
(g58
g59
NtRp616
(dp617
g62
(dp618
g70
I3
ssg71
g612
sg64
(lp619
S''
asbasbasbag57
(g73
g59
NtRp620
(dp621
g62
(dp622
sg71
g476
sg64
(lp623
g57
(g78
g59
NtRp624
(dp625
g62
(dp626
g82
g83
ssg71
g620
sg64
(lp627
g441
asbag57
(g78
g59
NtRp628
(dp629
g62
(dp630
g89
g90
ssg71
g620
sg64
(lp631
S':'
asbag57
(g78
g59
NtRp632
(dp633
g62
(dp634
sg71
g620
sg64
(lp635
g57
(g58
g59
NtRp636
(dp637
g62
(dp638
g70
I3
ssg71
g632
sg64
(lp639
S''
asbasbasbasbasbasbasbag57
(g73
g59
NtRp640
(dp641
g62
(dp642
sg71
g256
sg64
(lp643
g57
(g78
g59
NtRp644
(dp645
g62
(dp646
g82
g83
ssg71
g640
sg64
(lp647
S'session_id_iiit_calendars'
p648
asbag57
(g78
g59
NtRp649
(dp650
g62
(dp651
g89
g90
ssg71
g640
sg64
(lp652
S':'
asbag57
(g78
g59
NtRp653
(dp654
g62
(dp655
sg71
g640
sg64
(lp656
g57
(g58
g59
NtRp657
(dp658
g62
(dp659
g70
I4
ssg71
g653
sg64
(lp660
S'127.0.0.1-a1d9d8aa-d618-411c-bf72-1b1bcb1390e8'
p661
ag57
(g66
g59
NtRp662
(dp663
g62
(dp664
g70
I3
ssg71
Nsg64
(lp665
g57
(g73
g59
NtRp666
(dp667
g62
(dp668
sg71
g662
sg64
(lp669
g57
(g78
g59
NtRp670
(dp671
g62
(dp672
g82
g83
ssg71
g666
sg64
(lp673
g294
asbag57
(g78
g59
NtRp674
(dp675
g62
(dp676
g89
g90
ssg71
g666
sg64
(lp677
S':'
asbag57
(g78
g59
NtRp678
(dp679
g62
(dp680
sg71
g666
sg64
(lp681
g57
(g58
g59
NtRp682
(dp683
g62
(dp684
g70
I3
ssg71
g678
sg64
(lp685
S''
asbasbasbag57
(g73
g59
NtRp686
(dp687
g62
(dp688
sg71
g662
sg64
(lp689
g57
(g78
g59
NtRp690
(dp691
g62
(dp692
g82
g83
ssg71
g686
sg64
(lp693
g315
asbag57
(g78
g59
NtRp694
(dp695
g62
(dp696
g89
g90
ssg71
g686
sg64
(lp697
S':'
asbag57
(g78
g59
NtRp698
(dp699
g62
(dp700
sg71
g686
sg64
(lp701
g57
(g58
g59
NtRp702
(dp703
g62
(dp704
g70
I3
ssg71
g698
sg64
(lp705
S''
asbasbasbag57
(g73
g59
NtRp706
(dp707
g62
(dp708
sg71
g662
sg64
(lp709
g57
(g78
g59
NtRp710
(dp711
g62
(dp712
g82
g83
ssg71
g706
sg64
(lp713
g336
asbag57
(g78
g59
NtRp714
(dp715
g62
(dp716
g89
g90
ssg71
g706
sg64
(lp717
S':'
asbag57
(g78
g59
NtRp718
(dp719
g62
(dp720
sg71
g706
sg64
(lp721
g57
(g58
g59
NtRp722
(dp723
g62
(dp724
g70
I3
ssg71
g718
sg64
(lp725
S''
asbasbasbag57
(g73
g59
NtRp726
(dp727
g62
(dp728
sg71
g662
sg64
(lp729
g57
(g78
g59
NtRp730
(dp731
g62
(dp732
g82
g83
ssg71
g726
sg64
(lp733
g357
asbag57
(g78
g59
NtRp734
(dp735
g62
(dp736
g89
g90
ssg71
g726
sg64
(lp737
S':'
asbag57
(g78
g59
NtRp738
(dp739
g62
(dp740
sg71
g726
sg64
(lp741
g57
(g58
g59
NtRp742
(dp743
g62
(dp744
g70
I3
ssg71
g738
sg64
(lp745
S''
asbasbasbag57
(g73
g59
NtRp746
(dp747
g62
(dp748
sg71
g662
sg64
(lp749
g57
(g78
g59
NtRp750
(dp751
g62
(dp752
g82
g83
ssg71
g746
sg64
(lp753
g378
asbag57
(g78
g59
NtRp754
(dp755
g62
(dp756
g89
g90
ssg71
g746
sg64
(lp757
S':'
asbag57
(g78
g59
NtRp758
(dp759
g62
(dp760
sg71
g746
sg64
(lp761
g57
(g58
g59
NtRp762
(dp763
g62
(dp764
g70
I3
ssg71
g758
sg64
(lp765
S''
asbasbasbag57
(g73
g59
NtRp766
(dp767
g62
(dp768
sg71
g662
sg64
(lp769
g57
(g78
g59
NtRp770
(dp771
g62
(dp772
g82
g83
ssg71
g766
sg64
(lp773
g399
asbag57
(g78
g59
NtRp774
(dp775
g62
(dp776
g89
g90
ssg71
g766
sg64
(lp777
S':'
asbag57
(g78
g59
NtRp778
(dp779
g62
(dp780
sg71
g766
sg64
(lp781
g57
(g58
g59
NtRp782
(dp783
g62
(dp784
g70
I3
ssg71
g778
sg64
(lp785
S''
asbasbasbag57
(g73
g59
NtRp786
(dp787
g62
(dp788
sg71
g662
sg64
(lp789
g57
(g78
g59
NtRp790
(dp791
g62
(dp792
g82
g83
ssg71
g786
sg64
(lp793
g420
asbag57
(g78
g59
NtRp794
(dp795
g62
(dp796
g89
g90
ssg71
g786
sg64
(lp797
S':'
asbag57
(g78
g59
NtRp798
(dp799
g62
(dp800
sg71
g786
sg64
(lp801
g57
(g58
g59
NtRp802
(dp803
g62
(dp804
g70
I3
ssg71
g798
sg64
(lp805
S''
asbasbasbag57
(g73
g59
NtRp806
(dp807
g62
(dp808
sg71
g662
sg64
(lp809
g57
(g78
g59
NtRp810
(dp811
g62
(dp812
g82
g83
ssg71
g806
sg64
(lp813
g441
asbag57
(g78
g59
NtRp814
(dp815
g62
(dp816
g89
g90
ssg71
g806
sg64
(lp817
S':'
asbag57
(g78
g59
NtRp818
(dp819
g62
(dp820
sg71
g806
sg64
(lp821
g57
(g58
g59
NtRp822
(dp823
g62
(dp824
g70
I3
ssg71
g818
sg64
(lp825
S''
asbasbasbasbasbasbasbag57
(g73
g59
NtRp826
(dp827
g62
(dp828
sg71
g256
sg64
(lp829
g57
(g78
g59
NtRp830
(dp831
g62
(dp832
g82
g83
ssg71
g826
sg64
(lp833
S'session_id_welcome'
p834
asbag57
(g78
g59
NtRp835
(dp836
g62
(dp837
g89
g90
ssg71
g826
sg64
(lp838
S':'
asbag57
(g78
g59
NtRp839
(dp840
g62
(dp841
sg71
g826
sg64
(lp842
g57
(g58
g59
NtRp843
(dp844
g62
(dp845
g70
I4
ssg71
g839
sg64
(lp846
S'127.0.0.1-fd25f810-6ea5-4bd0-a8b7-3287ff2821a6'
p847
ag57
(g66
g59
NtRp848
(dp849
g62
(dp850
g70
I3
ssg71
Nsg64
(lp851
g57
(g73
g59
NtRp852
(dp853
g62
(dp854
sg71
g848
sg64
(lp855
g57
(g78
g59
NtRp856
(dp857
g62
(dp858
g82
g83
ssg71
g852
sg64
(lp859
g294
asbag57
(g78
g59
NtRp860
(dp861
g62
(dp862
g89
g90
ssg71
g852
sg64
(lp863
S':'
asbag57
(g78
g59
NtRp864
(dp865
g62
(dp866
sg71
g852
sg64
(lp867
g57
(g58
g59
NtRp868
(dp869
g62
(dp870
g70
I3
ssg71
g864
sg64
(lp871
S''
asbasbasbag57
(g73
g59
NtRp872
(dp873
g62
(dp874
sg71
g848
sg64
(lp875
g57
(g78
g59
NtRp876
(dp877
g62
(dp878
g82
g83
ssg71
g872
sg64
(lp879
g315
asbag57
(g78
g59
NtRp880
(dp881
g62
(dp882
g89
g90
ssg71
g872
sg64
(lp883
S':'
asbag57
(g78
g59
NtRp884
(dp885
g62
(dp886
sg71
g872
sg64
(lp887
g57
(g58
g59
NtRp888
(dp889
g62
(dp890
g70
I3
ssg71
g884
sg64
(lp891
S''
asbasbasbag57
(g73
g59
NtRp892
(dp893
g62
(dp894
sg71
g848
sg64
(lp895
g57
(g78
g59
NtRp896
(dp897
g62
(dp898
g82
g83
ssg71
g892
sg64
(lp899
g336
asbag57
(g78
g59
NtRp900
(dp901
g62
(dp902
g89
g90
ssg71
g892
sg64
(lp903
S':'
asbag57
(g78
g59
NtRp904
(dp905
g62
(dp906
sg71
g892
sg64
(lp907
g57
(g58
g59
NtRp908
(dp909
g62
(dp910
g70
I3
ssg71
g904
sg64
(lp911
S''
asbasbasbag57
(g73
g59
NtRp912
(dp913
g62
(dp914
sg71
g848
sg64
(lp915
g57
(g78
g59
NtRp916
(dp917
g62
(dp918
g82
g83
ssg71
g912
sg64
(lp919
g357
asbag57
(g78
g59
NtRp920
(dp921
g62
(dp922
g89
g90
ssg71
g912
sg64
(lp923
S':'
asbag57
(g78
g59
NtRp924
(dp925
g62
(dp926
sg71
g912
sg64
(lp927
g57
(g58
g59
NtRp928
(dp929
g62
(dp930
g70
I3
ssg71
g924
sg64
(lp931
S''
asbasbasbag57
(g73
g59
NtRp932
(dp933
g62
(dp934
sg71
g848
sg64
(lp935
g57
(g78
g59
NtRp936
(dp937
g62
(dp938
g82
g83
ssg71
g932
sg64
(lp939
g378
asbag57
(g78
g59
NtRp940
(dp941
g62
(dp942
g89
g90
ssg71
g932
sg64
(lp943
S':'
asbag57
(g78
g59
NtRp944
(dp945
g62
(dp946
sg71
g932
sg64
(lp947
g57
(g58
g59
NtRp948
(dp949
g62
(dp950
g70
I3
ssg71
g944
sg64
(lp951
S''
asbasbasbag57
(g73
g59
NtRp952
(dp953
g62
(dp954
sg71
g848
sg64
(lp955
g57
(g78
g59
NtRp956
(dp957
g62
(dp958
g82
g83
ssg71
g952
sg64
(lp959
g399
asbag57
(g78
g59
NtRp960
(dp961
g62
(dp962
g89
g90
ssg71
g952
sg64
(lp963
S':'
asbag57
(g78
g59
NtRp964
(dp965
g62
(dp966
sg71
g952
sg64
(lp967
g57
(g58
g59
NtRp968
(dp969
g62
(dp970
g70
I3
ssg71
g964
sg64
(lp971
S''
asbasbasbag57
(g73
g59
NtRp972
(dp973
g62
(dp974
sg71
g848
sg64
(lp975
g57
(g78
g59
NtRp976
(dp977
g62
(dp978
g82
g83
ssg71
g972
sg64
(lp979
g420
asbag57
(g78
g59
NtRp980
(dp981
g62
(dp982
g89
g90
ssg71
g972
sg64
(lp983
S':'
asbag57
(g78
g59
NtRp984
(dp985
g62
(dp986
sg71
g972
sg64
(lp987
g57
(g58
g59
NtRp988
(dp989
g62
(dp990
g70
I3
ssg71
g984
sg64
(lp991
S''
asbasbasbag57
(g73
g59
NtRp992
(dp993
g62
(dp994
sg71
g848
sg64
(lp995
g57
(g78
g59
NtRp996
(dp997
g62
(dp998
g82
g83
ssg71
g992
sg64
(lp999
g441
asbag57
(g78
g59
NtRp1000
(dp1001
g62
(dp1002
g89
g90
ssg71
g992
sg64
(lp1003
S':'
asbag57
(g78
g59
NtRp1004
(dp1005
g62
(dp1006
sg71
g992
sg64
(lp1007
g57
(g58
g59
NtRp1008
(dp1009
g62
(dp1010
g70
I3
ssg71
g1004
sg64
(lp1011
S''
asbasbasbasbasbasbasbasbasbasbasbag57
(g73
g59
NtRp1012
(dp1013
g62
(dp1014
sg71
g67
sg64
(lp1015
g57
(g78
g59
NtRp1016
(dp1017
g62
(dp1018
g82
g83
ssg71
g1012
sg64
(lp1019
S'env'
p1020
asbag57
(g78
g59
NtRp1021
(dp1022
g62
(dp1023
g89
g90
ssg71
g1012
sg64
(lp1024
S':'
asbag57
(g78
g59
NtRp1025
(dp1026
g62
(dp1027
sg71
g1012
sg64
(lp1028
g57
(g58
g59
NtRp1029
(dp1030
g62
(dp1031
g70
I5
ssg71
g1025
sg64
(lp1032
g57
(g66
g59
NtRp1033
(dp1034
g62
(dp1035
g70
I4
ssg71
Nsg64
(lp1036
g57
(g73
g59
NtRp1037
(dp1038
g62
(dp1039
sg71
g1033
sg64
(lp1040
g57
(g78
g59
NtRp1041
(dp1042
g62
(dp1043
g82
g83
ssg71
g1037
sg64
(lp1044
S'app_folders'
p1045
asbag57
(g78
g59
NtRp1046
(dp1047
g62
(dp1048
g89
g90
ssg71
g1037
sg64
(lp1049
S':'
asbag57
(g78
g59
NtRp1050
(dp1051
g62
(dp1052
sg71
g1037
sg64
(lp1053
g57
(g58
g59
NtRp1054
(dp1055
g62
(dp1056
g70
I4
ssg71
g1050
sg64
(lp1057
S"set(['/home/simran/web2py/applications/welcome/', '/home/simran/web2py/applications/calendar/', '/home/simran/web2py/applications/IIIT_calendars/', '/home/simran/web2py/applications/admin/'])"
p1058
asbasbasbag57
(g73
g59
NtRp1059
(dp1060
g62
(dp1061
sg71
g1033
sg64
(lp1062
g57
(g78
g59
NtRp1063
(dp1064
g62
(dp1065
g82
g83
ssg71
g1059
sg64
(lp1066
S'applications_parent'
p1067
asbag57
(g78
g59
NtRp1068
(dp1069
g62
(dp1070
g89
g90
ssg71
g1059
sg64
(lp1071
S':'
asbag57
(g78
g59
NtRp1072
(dp1073
g62
(dp1074
sg71
g1059
sg64
(lp1075
g57
(g58
g59
NtRp1076
(dp1077
g62
(dp1078
g70
I4
ssg71
g1072
sg64
(lp1079
S'/home/simran/web2py'
p1080
asbasbasbag57
(g73
g59
NtRp1081
(dp1082
g62
(dp1083
sg71
g1033
sg64
(lp1084
g57
(g78
g59
NtRp1085
(dp1086
g62
(dp1087
g82
g83
ssg71
g1081
sg64
(lp1088
S'cmd_args'
p1089
asbag57
(g78
g59
NtRp1090
(dp1091
g62
(dp1092
g89
g90
ssg71
g1081
sg64
(lp1093
S':'
asbag57
(g78
g59
NtRp1094
(dp1095
g62
(dp1096
sg71
g1081
sg64
(lp1097
g57
(g58
g59
NtRp1098
(dp1099
g62
(dp1100
g70
I4
ssg71
g1094
sg64
(lp1101
g57
(g66
g59
NtRp1102
(dp1103
g62
(dp1104
g70
I3
ssg71
Nsg64
(lp1105
sbasbasbasbag57
(g73
g59
NtRp1106
(dp1107
g62
(dp1108
sg71
g1033
sg64
(lp1109
g57
(g78
g59
NtRp1110
(dp1111
g62
(dp1112
g82
g83
ssg71
g1106
sg64
(lp1113
S'cmd_options'
p1114
asbag57
(g78
g59
NtRp1115
(dp1116
g62
(dp1117
g89
g90
ssg71
g1106
sg64
(lp1118
S':'
asbag57
(g78
g59
NtRp1119
(dp1120
g62
(dp1121
sg71
g1106
sg64
(lp1122
g57
(g58
g59
NtRp1123
(dp1124
g62
(dp1125
g70
I4
ssg71
g1119
sg64
(lp1126
S"<Values at 0x249a7e8: {'verbose': False, 'ip': '127.0.0.1', 'with_scheduler': False, 'ips': [], 'shutdown_timeout': 5, 'taskbar': False, 'port': 8000, 'maxthreads': None, 'softcron': False, 'server_name': 'ubuntu', 'bpython': False, 'nogui': False, 'pid_filename': 'httpserver.pid', 'extcron': False, 'runcron': False, 'run_system_tests': False, 'test': None, 'folder': '/home/simran/web2py', 'config': '', 'minthreads': None, 'winservice': '', 'shell': None, 'run': '', 'log_filename': 'httpserver.log', 'debuglevel': 30, 'args': [''], 'socket_timeout': 5, 'ssl_ca_certificate': None, 'scheduler': None, 'profiler_filename': None, 'ssl_private_key': '', 'scheduler_groups': None, 'password': '<ask>', 'request_queue_size': 5, 'ssl_certificate': '', 'cronjob': False, 'numthreads': None, 'quiet': False, 'interfaces': None, 'import_models': False, 'timeout': 10, 'plain': False, 'nobanner': False}>"
p1127
asbasbasbag57
(g73
g59
NtRp1128
(dp1129
g62
(dp1130
sg71
g1033
sg64
(lp1131
g57
(g78
g59
NtRp1132
(dp1133
g62
(dp1134
g82
g83
ssg71
g1128
sg64
(lp1135
S'content_length'
p1136
asbag57
(g78
g59
NtRp1137
(dp1138
g62
(dp1139
g89
g90
ssg71
g1128
sg64
(lp1140
S':'
asbag57
(g78
g59
NtRp1141
(dp1142
g62
(dp1143
sg71
g1128
sg64
(lp1144
g57
(g58
g59
NtRp1145
(dp1146
g62
(dp1147
g70
I4
ssg71
g1141
sg64
(lp1148
S'32'
p1149
asbasbasbag57
(g73
g59
NtRp1150
(dp1151
g62
(dp1152
sg71
g1033
sg64
(lp1153
g57
(g78
g59
NtRp1154
(dp1155
g62
(dp1156
g82
g83
ssg71
g1150
sg64
(lp1157
S'content_type'
p1158
asbag57
(g78
g59
NtRp1159
(dp1160
g62
(dp1161
g89
g90
ssg71
g1150
sg64
(lp1162
S':'
asbag57
(g78
g59
NtRp1163
(dp1164
g62
(dp1165
sg71
g1150
sg64
(lp1166
g57
(g58
g59
NtRp1167
(dp1168
g62
(dp1169
g70
I4
ssg71
g1163
sg64
(lp1170
S'application/x-www-form-urlencoded'
p1171
asbasbasbag57
(g73
g59
NtRp1172
(dp1173
g62
(dp1174
sg71
g1033
sg64
(lp1175
g57
(g78
g59
NtRp1176
(dp1177
g62
(dp1178
g82
g83
ssg71
g1172
sg64
(lp1179
S'db_sessions'
p1180
asbag57
(g78
g59
NtRp1181
(dp1182
g62
(dp1183
g89
g90
ssg71
g1172
sg64
(lp1184
S':'
asbag57
(g78
g59
NtRp1185
(dp1186
g62
(dp1187
sg71
g1172
sg64
(lp1188
g57
(g58
g59
NtRp1189
(dp1190
g62
(dp1191
g70
I4
ssg71
g1185
sg64
(lp1192
S'set([])'
p1193
asbasbasbag57
(g73
g59
NtRp1194
(dp1195
g62
(dp1196
sg71
g1033
sg64
(lp1197
g57
(g78
g59
NtRp1198
(dp1199
g62
(dp1200
g82
g83
ssg71
g1194
sg64
(lp1201
S'debugging'
p1202
asbag57
(g78
g59
NtRp1203
(dp1204
g62
(dp1205
g89
g90
ssg71
g1194
sg64
(lp1206
S':'
asbag57
(g78
g59
NtRp1207
(dp1208
g62
(dp1209
sg71
g1194
sg64
(lp1210
g57
(g58
g59
NtRp1211
(dp1212
g62
(dp1213
g70
I4
ssg71
g1207
sg64
(lp1214
g100
asbasbasbag57
(g73
g59
NtRp1215
(dp1216
g62
(dp1217
sg71
g1033
sg64
(lp1218
g57
(g78
g59
NtRp1219
(dp1220
g62
(dp1221
g82
g83
ssg71
g1215
sg64
(lp1222
S'gluon_parent'
p1223
asbag57
(g78
g59
NtRp1224
(dp1225
g62
(dp1226
g89
g90
ssg71
g1215
sg64
(lp1227
S':'
asbag57
(g78
g59
NtRp1228
(dp1229
g62
(dp1230
sg71
g1215
sg64
(lp1231
g57
(g58
g59
NtRp1232
(dp1233
g62
(dp1234
g70
I4
ssg71
g1228
sg64
(lp1235
S'/home/simran/web2py'
p1236
asbasbasbag57
(g73
g59
NtRp1237
(dp1238
g62
(dp1239
sg71
g1033
sg64
(lp1240
g57
(g78
g59
NtRp1241
(dp1242
g62
(dp1243
g82
g83
ssg71
g1237
sg64
(lp1244
S'http_accept'
p1245
asbag57
(g78
g59
NtRp1246
(dp1247
g62
(dp1248
g89
g90
ssg71
g1237
sg64
(lp1249
S':'
asbag57
(g78
g59
NtRp1250
(dp1251
g62
(dp1252
sg71
g1237
sg64
(lp1253
g57
(g58
g59
NtRp1254
(dp1255
g62
(dp1256
g70
I4
ssg71
g1250
sg64
(lp1257
S'text/html,application/xhtml+xml,application/xml;q=0.9,*/*;q=0.8'
p1258
asbasbasbag57
(g73
g59
NtRp1259
(dp1260
g62
(dp1261
sg71
g1033
sg64
(lp1262
g57
(g78
g59
NtRp1263
(dp1264
g62
(dp1265
g82
g83
ssg71
g1259
sg64
(lp1266
S'http_accept_encoding'
p1267
asbag57
(g78
g59
NtRp1268
(dp1269
g62
(dp1270
g89
g90
ssg71
g1259
sg64
(lp1271
S':'
asbag57
(g78
g59
NtRp1272
(dp1273
g62
(dp1274
sg71
g1259
sg64
(lp1275
g57
(g58
g59
NtRp1276
(dp1277
g62
(dp1278
g70
I4
ssg71
g1272
sg64
(lp1279
S'gzip, deflate'
p1280
asbasbasbag57
(g73
g59
NtRp1281
(dp1282
g62
(dp1283
sg71
g1033
sg64
(lp1284
g57
(g78
g59
NtRp1285
(dp1286
g62
(dp1287
g82
g83
ssg71
g1281
sg64
(lp1288
S'http_accept_language'
p1289
asbag57
(g78
g59
NtRp1290
(dp1291
g62
(dp1292
g89
g90
ssg71
g1281
sg64
(lp1293
S':'
asbag57
(g78
g59
NtRp1294
(dp1295
g62
(dp1296
sg71
g1281
sg64
(lp1297
g57
(g58
g59
NtRp1298
(dp1299
g62
(dp1300
g70
I4
ssg71
g1294
sg64
(lp1301
S'en-US,en;q=0.5'
p1302
asbasbasbag57
(g73
g59
NtRp1303
(dp1304
g62
(dp1305
sg71
g1033
sg64
(lp1306
g57
(g78
g59
NtRp1307
(dp1308
g62
(dp1309
g82
g83
ssg71
g1303
sg64
(lp1310
S'http_connection'
p1311
asbag57
(g78
g59
NtRp1312
(dp1313
g62
(dp1314
g89
g90
ssg71
g1303
sg64
(lp1315
S':'
asbag57
(g78
g59
NtRp1316
(dp1317
g62
(dp1318
sg71
g1303
sg64
(lp1319
g57
(g58
g59
NtRp1320
(dp1321
g62
(dp1322
g70
I4
ssg71
g1316
sg64
(lp1323
S'keep-alive'
p1324
asbasbasbag57
(g73
g59
NtRp1325
(dp1326
g62
(dp1327
sg71
g1033
sg64
(lp1328
g57
(g78
g59
NtRp1329
(dp1330
g62
(dp1331
g82
g83
ssg71
g1325
sg64
(lp1332
S'http_content_length'
p1333
asbag57
(g78
g59
NtRp1334
(dp1335
g62
(dp1336
g89
g90
ssg71
g1325
sg64
(lp1337
S':'
asbag57
(g78
g59
NtRp1338
(dp1339
g62
(dp1340
sg71
g1325
sg64
(lp1341
g57
(g58
g59
NtRp1342
(dp1343
g62
(dp1344
g70
I4
ssg71
g1338
sg64
(lp1345
g1149
asbasbasbag57
(g73
g59
NtRp1346
(dp1347
g62
(dp1348
sg71
g1033
sg64
(lp1349
g57
(g78
g59
NtRp1350
(dp1351
g62
(dp1352
g82
g83
ssg71
g1346
sg64
(lp1353
S'http_content_type'
p1354
asbag57
(g78
g59
NtRp1355
(dp1356
g62
(dp1357
g89
g90
ssg71
g1346
sg64
(lp1358
S':'
asbag57
(g78
g59
NtRp1359
(dp1360
g62
(dp1361
sg71
g1346
sg64
(lp1362
g57
(g58
g59
NtRp1363
(dp1364
g62
(dp1365
g70
I4
ssg71
g1359
sg64
(lp1366
g1171
asbasbasbag57
(g73
g59
NtRp1367
(dp1368
g62
(dp1369
sg71
g1033
sg64
(lp1370
g57
(g78
g59
NtRp1371
(dp1372
g62
(dp1373
g82
g83
ssg71
g1367
sg64
(lp1374
S'http_cookie'
p1375
asbag57
(g78
g59
NtRp1376
(dp1377
g62
(dp1378
g89
g90
ssg71
g1367
sg64
(lp1379
S':'
asbag57
(g78
g59
NtRp1380
(dp1381
g62
(dp1382
sg71
g1367
sg64
(lp1383
g57
(g58
g59
NtRp1384
(dp1385
g62
(dp1386
g70
I4
ssg71
g1380
sg64
(lp1387
S'session_id_welcome=127.0.0.1-fd25f810-6ea5-4bd0-a8b7-3287ff2821a6; session_id_admin=127.0.0.1-bcfe86f7-6b2e-4746-8640-c56f94d5ddd1; session_id_iiit_calendars=127.0.0.1-a1d9d8aa-d618-411c-bf72-1b1bcb1390e8; session_id_calendar=127.0.0.1-bb2e05ae-a2de-4759-8bb0-f43d3ba7303f'
p1388
asbasbasbag57
(g73
g59
NtRp1389
(dp1390
g62
(dp1391
sg71
g1033
sg64
(lp1392
g57
(g78
g59
NtRp1393
(dp1394
g62
(dp1395
g82
g83
ssg71
g1389
sg64
(lp1396
S'http_host'
p1397
asbag57
(g78
g59
NtRp1398
(dp1399
g62
(dp1400
g89
g90
ssg71
g1389
sg64
(lp1401
S':'
asbag57
(g78
g59
NtRp1402
(dp1403
g62
(dp1404
sg71
g1389
sg64
(lp1405
g57
(g58
g59
NtRp1406
(dp1407
g62
(dp1408
g70
I4
ssg71
g1402
sg64
(lp1409
S'127.0.0.1:8000'
p1410
asbasbasbag57
(g73
g59
NtRp1411
(dp1412
g62
(dp1413
sg71
g1033
sg64
(lp1414
g57
(g78
g59
NtRp1415
(dp1416
g62
(dp1417
g82
g83
ssg71
g1411
sg64
(lp1418
S'http_referer'
p1419
asbag57
(g78
g59
NtRp1420
(dp1421
g62
(dp1422
g89
g90
ssg71
g1411
sg64
(lp1423
S':'
asbag57
(g78
g59
NtRp1424
(dp1425
g62
(dp1426
sg71
g1411
sg64
(lp1427
g57
(g58
g59
NtRp1428
(dp1429
g62
(dp1430
g70
I4
ssg71
g1424
sg64
(lp1431
S'http://127.0.0.1:8000/IIIT_calendars/default/admin_op'
p1432
asbasbasbag57
(g73
g59
NtRp1433
(dp1434
g62
(dp1435
sg71
g1033
sg64
(lp1436
g57
(g78
g59
NtRp1437
(dp1438
g62
(dp1439
g82
g83
ssg71
g1433
sg64
(lp1440
S'http_user_agent'
p1441
asbag57
(g78
g59
NtRp1442
(dp1443
g62
(dp1444
g89
g90
ssg71
g1433
sg64
(lp1445
S':'
asbag57
(g78
g59
NtRp1446
(dp1447
g62
(dp1448
sg71
g1433
sg64
(lp1449
g57
(g58
g59
NtRp1450
(dp1451
g62
(dp1452
g70
I4
ssg71
g1446
sg64
(lp1453
S'Mozilla/5.0 (X11; Ubuntu; Linux x86_64; rv:20.0) Gecko/20100101 Firefox/20.0'
p1454
asbasbasbag57
(g73
g59
NtRp1455
(dp1456
g62
(dp1457
sg71
g1033
sg64
(lp1458
g57
(g78
g59
NtRp1459
(dp1460
g62
(dp1461
g82
g83
ssg71
g1455
sg64
(lp1462
S'is_jython'
p1463
asbag57
(g78
g59
NtRp1464
(dp1465
g62
(dp1466
g89
g90
ssg71
g1455
sg64
(lp1467
S':'
asbag57
(g78
g59
NtRp1468
(dp1469
g62
(dp1470
sg71
g1455
sg64
(lp1471
g57
(g58
g59
NtRp1472
(dp1473
g62
(dp1474
g70
I4
ssg71
g1468
sg64
(lp1475
g100
asbasbasbag57
(g73
g59
NtRp1476
(dp1477
g62
(dp1478
sg71
g1033
sg64
(lp1479
g57
(g78
g59
NtRp1480
(dp1481
g62
(dp1482
g82
g83
ssg71
g1476
sg64
(lp1483
S'is_pypy'
p1484
asbag57
(g78
g59
NtRp1485
(dp1486
g62
(dp1487
g89
g90
ssg71
g1476
sg64
(lp1488
S':'
asbag57
(g78
g59
NtRp1489
(dp1490
g62
(dp1491
sg71
g1476
sg64
(lp1492
g57
(g58
g59
NtRp1493
(dp1494
g62
(dp1495
g70
I4
ssg71
g1489
sg64
(lp1496
g100
asbasbasbag57
(g73
g59
NtRp1497
(dp1498
g62
(dp1499
sg71
g1033
sg64
(lp1500
g57
(g78
g59
NtRp1501
(dp1502
g62
(dp1503
g82
g83
ssg71
g1497
sg64
(lp1504
S'local_hosts'
p1505
asbag57
(g78
g59
NtRp1506
(dp1507
g62
(dp1508
g89
g90
ssg71
g1497
sg64
(lp1509
S':'
asbag57
(g78
g59
NtRp1510
(dp1511
g62
(dp1512
sg71
g1497
sg64
(lp1513
g57
(g58
g59
NtRp1514
(dp1515
g62
(dp1516
g70
I4
ssg71
g1510
sg64
(lp1517
g57
(g66
g59
NtRp1518
(dp1519
g62
(dp1520
g70
I3
ssg71
Nsg64
(lp1521
g57
(g73
g59
NtRp1522
(dp1523
g62
(dp1524
sg71
g1518
sg64
(lp1525
g57
(g78
g59
NtRp1526
(dp1527
g62
(dp1528
sg71
g1522
sg64
(lp1529
g57
(g58
g59
NtRp1530
(dp1531
g62
(dp1532
g70
I3
ssg71
g1526
sg64
(lp1533
S'::1'
p1534
asbasbasbag57
(g73
g59
NtRp1535
(dp1536
g62
(dp1537
sg71
g1518
sg64
(lp1538
g57
(g78
g59
NtRp1539
(dp1540
g62
(dp1541
sg71
g1535
sg64
(lp1542
g57
(g58
g59
NtRp1543
(dp1544
g62
(dp1545
g70
I3
ssg71
g1539
sg64
(lp1546
S'127.0.1.1'
p1547
asbasbasbag57
(g73
g59
NtRp1548
(dp1549
g62
(dp1550
sg71
g1518
sg64
(lp1551
g57
(g78
g59
NtRp1552
(dp1553
g62
(dp1554
sg71
g1548
sg64
(lp1555
g57
(g58
g59
NtRp1556
(dp1557
g62
(dp1558
g70
I3
ssg71
g1552
sg64
(lp1559
S'::ffff:127.0.0.1'
p1560
asbasbasbag57
(g73
g59
NtRp1561
(dp1562
g62
(dp1563
sg71
g1518
sg64
(lp1564
g57
(g78
g59
NtRp1565
(dp1566
g62
(dp1567
sg71
g1561
sg64
(lp1568
g57
(g58
g59
NtRp1569
(dp1570
g62
(dp1571
g70
I3
ssg71
g1565
sg64
(lp1572
S'127.0.0.1'
p1573
asbasbasbag57
(g73
g59
NtRp1574
(dp1575
g62
(dp1576
sg71
g1518
sg64
(lp1577
g57
(g78
g59
NtRp1578
(dp1579
g62
(dp1580
sg71
g1574
sg64
(lp1581
g57
(g58
g59
NtRp1582
(dp1583
g62
(dp1584
g70
I3
ssg71
g1578
sg64
(lp1585
S'ubuntu'
p1586
asbasbasbasbasbasbasbag57
(g73
g59
NtRp1587
(dp1588
g62
(dp1589
sg71
g1033
sg64
(lp1590
g57
(g78
g59
NtRp1591
(dp1592
g62
(dp1593
g82
g83
ssg71
g1587
sg64
(lp1594
S'path_info'
p1595
asbag57
(g78
g59
NtRp1596
(dp1597
g62
(dp1598
g89
g90
ssg71
g1587
sg64
(lp1599
S':'
asbag57
(g78
g59
NtRp1600
(dp1601
g62
(dp1602
sg71
g1587
sg64
(lp1603
g57
(g58
g59
NtRp1604
(dp1605
g62
(dp1606
g70
I4
ssg71
g1600
sg64
(lp1607
S'/IIIT_calendars/default/admin_calendar'
p1608
asbasbasbag57
(g73
g59
NtRp1609
(dp1610
g62
(dp1611
sg71
g1033
sg64
(lp1612
g57
(g78
g59
NtRp1613
(dp1614
g62
(dp1615
g82
g83
ssg71
g1609
sg64
(lp1616
S'query_string'
p1617
asbag57
(g78
g59
NtRp1618
(dp1619
g62
(dp1620
g89
g90
ssg71
g1609
sg64
(lp1621
S':'
asbag57
(g78
g59
NtRp1622
(dp1623
g62
(dp1624
sg71
g1609
sg64
(lp1625
g57
(g58
g59
NtRp1626
(dp1627
g62
(dp1628
g70
I4
ssg71
g1622
sg64
(lp1629
S''
asbasbasbag57
(g73
g59
NtRp1630
(dp1631
g62
(dp1632
sg71
g1033
sg64
(lp1633
g57
(g78
g59
NtRp1634
(dp1635
g62
(dp1636
g82
g83
ssg71
g1630
sg64
(lp1637
S'remote_addr'
p1638
asbag57
(g78
g59
NtRp1639
(dp1640
g62
(dp1641
g89
g90
ssg71
g1630
sg64
(lp1642
S':'
asbag57
(g78
g59
NtRp1643
(dp1644
g62
(dp1645
sg71
g1630
sg64
(lp1646
g57
(g58
g59
NtRp1647
(dp1648
g62
(dp1649
g70
I4
ssg71
g1643
sg64
(lp1650
g212
asbasbasbag57
(g73
g59
NtRp1651
(dp1652
g62
(dp1653
sg71
g1033
sg64
(lp1654
g57
(g78
g59
NtRp1655
(dp1656
g62
(dp1657
g82
g83
ssg71
g1651
sg64
(lp1658
S'remote_port'
p1659
asbag57
(g78
g59
NtRp1660
(dp1661
g62
(dp1662
g89
g90
ssg71
g1651
sg64
(lp1663
S':'
asbag57
(g78
g59
NtRp1664
(dp1665
g62
(dp1666
sg71
g1651
sg64
(lp1667
g57
(g58
g59
NtRp1668
(dp1669
g62
(dp1670
g70
I4
ssg71
g1664
sg64
(lp1671
S'54749'
p1672
asbasbasbag57
(g73
g59
NtRp1673
(dp1674
g62
(dp1675
sg71
g1033
sg64
(lp1676
g57
(g78
g59
NtRp1677
(dp1678
g62
(dp1679
g82
g83
ssg71
g1673
sg64
(lp1680
S'request_method'
p1681
asbag57
(g78
g59
NtRp1682
(dp1683
g62
(dp1684
g89
g90
ssg71
g1673
sg64
(lp1685
S':'
asbag57
(g78
g59
NtRp1686
(dp1687
g62
(dp1688
sg71
g1673
sg64
(lp1689
g57
(g58
g59
NtRp1690
(dp1691
g62
(dp1692
g70
I4
ssg71
g1686
sg64
(lp1693
S'POST'
p1694
asbasbasbag57
(g73
g59
NtRp1695
(dp1696
g62
(dp1697
sg71
g1033
sg64
(lp1698
g57
(g78
g59
NtRp1699
(dp1700
g62
(dp1701
g82
g83
ssg71
g1695
sg64
(lp1702
S'request_uri'
p1703
asbag57
(g78
g59
NtRp1704
(dp1705
g62
(dp1706
g89
g90
ssg71
g1695
sg64
(lp1707
S':'
asbag57
(g78
g59
NtRp1708
(dp1709
g62
(dp1710
sg71
g1695
sg64
(lp1711
g57
(g58
g59
NtRp1712
(dp1713
g62
(dp1714
g70
I4
ssg71
g1708
sg64
(lp1715
g1608
asbasbasbag57
(g73
g59
NtRp1716
(dp1717
g62
(dp1718
sg71
g1033
sg64
(lp1719
g57
(g78
g59
NtRp1720
(dp1721
g62
(dp1722
g82
g83
ssg71
g1716
sg64
(lp1723
S'script_name'
p1724
asbag57
(g78
g59
NtRp1725
(dp1726
g62
(dp1727
g89
g90
ssg71
g1716
sg64
(lp1728
S':'
asbag57
(g78
g59
NtRp1729
(dp1730
g62
(dp1731
sg71
g1716
sg64
(lp1732
g57
(g58
g59
NtRp1733
(dp1734
g62
(dp1735
g70
I4
ssg71
g1729
sg64
(lp1736
S''
asbasbasbag57
(g73
g59
NtRp1737
(dp1738
g62
(dp1739
sg71
g1033
sg64
(lp1740
g57
(g78
g59
NtRp1741
(dp1742
g62
(dp1743
g82
g83
ssg71
g1737
sg64
(lp1744
S'server_name'
p1745
asbag57
(g78
g59
NtRp1746
(dp1747
g62
(dp1748
g89
g90
ssg71
g1737
sg64
(lp1749
S':'
asbag57
(g78
g59
NtRp1750
(dp1751
g62
(dp1752
sg71
g1737
sg64
(lp1753
g57
(g58
g59
NtRp1754
(dp1755
g62
(dp1756
g70
I4
ssg71
g1750
sg64
(lp1757
S'ubuntu'
p1758
asbasbasbag57
(g73
g59
NtRp1759
(dp1760
g62
(dp1761
sg71
g1033
sg64
(lp1762
g57
(g78
g59
NtRp1763
(dp1764
g62
(dp1765
g82
g83
ssg71
g1759
sg64
(lp1766
S'server_port'
p1767
asbag57
(g78
g59
NtRp1768
(dp1769
g62
(dp1770
g89
g90
ssg71
g1759
sg64
(lp1771
S':'
asbag57
(g78
g59
NtRp1772
(dp1773
g62
(dp1774
sg71
g1759
sg64
(lp1775
g57
(g58
g59
NtRp1776
(dp1777
g62
(dp1778
g70
I4
ssg71
g1772
sg64
(lp1779
S'8000'
p1780
asbasbasbag57
(g73
g59
NtRp1781
(dp1782
g62
(dp1783
sg71
g1033
sg64
(lp1784
g57
(g78
g59
NtRp1785
(dp1786
g62
(dp1787
g82
g83
ssg71
g1781
sg64
(lp1788
S'server_protocol'
p1789
asbag57
(g78
g59
NtRp1790
(dp1791
g62
(dp1792
g89
g90
ssg71
g1781
sg64
(lp1793
S':'
asbag57
(g78
g59
NtRp1794
(dp1795
g62
(dp1796
sg71
g1781
sg64
(lp1797
g57
(g58
g59
NtRp1798
(dp1799
g62
(dp1800
g70
I4
ssg71
g1794
sg64
(lp1801
S'HTTP/1.1'
p1802
asbasbasbag57
(g73
g59
NtRp1803
(dp1804
g62
(dp1805
sg71
g1033
sg64
(lp1806
g57
(g78
g59
NtRp1807
(dp1808
g62
(dp1809
g82
g83
ssg71
g1803
sg64
(lp1810
S'server_software'
p1811
asbag57
(g78
g59
NtRp1812
(dp1813
g62
(dp1814
g89
g90
ssg71
g1803
sg64
(lp1815
S':'
asbag57
(g78
g59
NtRp1816
(dp1817
g62
(dp1818
sg71
g1803
sg64
(lp1819
g57
(g58
g59
NtRp1820
(dp1821
g62
(dp1822
g70
I4
ssg71
g1816
sg64
(lp1823
S'Rocket 1.2.6'
p1824
asbasbasbag57
(g73
g59
NtRp1825
(dp1826
g62
(dp1827
sg71
g1033
sg64
(lp1828
g57
(g78
g59
NtRp1829
(dp1830
g62
(dp1831
g82
g83
ssg71
g1825
sg64
(lp1832
S'web2py_path'
p1833
asbag57
(g78
g59
NtRp1834
(dp1835
g62
(dp1836
g89
g90
ssg71
g1825
sg64
(lp1837
S':'
asbag57
(g78
g59
NtRp1838
(dp1839
g62
(dp1840
sg71
g1825
sg64
(lp1841
g57
(g58
g59
NtRp1842
(dp1843
g62
(dp1844
g70
I4
ssg71
g1838
sg64
(lp1845
g1080
asbasbasbag57
(g73
g59
NtRp1846
(dp1847
g62
(dp1848
sg71
g1033
sg64
(lp1849
g57
(g78
g59
NtRp1850
(dp1851
g62
(dp1852
g82
g83
ssg71
g1846
sg64
(lp1853
S'web2py_version'
p1854
asbag57
(g78
g59
NtRp1855
(dp1856
g62
(dp1857
g89
g90
ssg71
g1846
sg64
(lp1858
S':'
asbag57
(g78
g59
NtRp1859
(dp1860
g62
(dp1861
sg71
g1846
sg64
(lp1862
g57
(g58
g59
NtRp1863
(dp1864
g62
(dp1865
g70
I4
ssg71
g1859
sg64
(lp1866
g57
(g66
g59
NtRp1867
(dp1868
g62
(dp1869
g70
I3
ssg71
Nsg64
(lp1870
g57
(g73
g59
NtRp1871
(dp1872
g62
(dp1873
sg71
g1867
sg64
(lp1874
g57
(g78
g59
NtRp1875
(dp1876
g62
(dp1877
sg71
g1871
sg64
(lp1878
g57
(g58
g59
NtRp1879
(dp1880
g62
(dp1881
g70
I3
ssg71
g1875
sg64
(lp1882
S'2'
asbasbasbag57
(g73
g59
NtRp1883
(dp1884
g62
(dp1885
sg71
g1867
sg64
(lp1886
g57
(g78
g59
NtRp1887
(dp1888
g62
(dp1889
sg71
g1883
sg64
(lp1890
g57
(g58
g59
NtRp1891
(dp1892
g62
(dp1893
g70
I3
ssg71
g1887
sg64
(lp1894
S'3'
asbasbasbag57
(g73
g59
NtRp1895
(dp1896
g62
(dp1897
sg71
g1867
sg64
(lp1898
g57
(g78
g59
NtRp1899
(dp1900
g62
(dp1901
sg71
g1895
sg64
(lp1902
g57
(g58
g59
NtRp1903
(dp1904
g62
(dp1905
g70
I3
ssg71
g1899
sg64
(lp1906
S'2'
asbasbasbag57
(g73
g59
NtRp1907
(dp1908
g62
(dp1909
sg71
g1867
sg64
(lp1910
g57
(g78
g59
NtRp1911
(dp1912
g62
(dp1913
sg71
g1907
sg64
(lp1914
g57
(g58
g59
NtRp1915
(dp1916
g62
(dp1917
g70
I3
ssg71
g1911
sg64
(lp1918
S'datetime.datetime(2012, 12, 17, 15, 3, 30)'
p1919
asbasbasbag57
(g73
g59
NtRp1920
(dp1921
g62
(dp1922
sg71
g1867
sg64
(lp1923
g57
(g78
g59
NtRp1924
(dp1925
g62
(dp1926
sg71
g1920
sg64
(lp1927
g57
(g58
g59
NtRp1928
(dp1929
g62
(dp1930
g70
I3
ssg71
g1924
sg64
(lp1931
S'stable'
p1932
asbasbasbasbasbasbasbag57
(g73
g59
NtRp1933
(dp1934
g62
(dp1935
sg71
g1033
sg64
(lp1936
g57
(g78
g59
NtRp1937
(dp1938
g62
(dp1939
g82
g83
ssg71
g1933
sg64
(lp1940
S'wsgi_errors'
p1941
asbag57
(g78
g59
NtRp1942
(dp1943
g62
(dp1944
g89
g90
ssg71
g1933
sg64
(lp1945
S':'
asbag57
(g78
g59
NtRp1946
(dp1947
g62
(dp1948
sg71
g1933
sg64
(lp1949
g57
(g58
g59
NtRp1950
(dp1951
g62
(dp1952
g70
I4
ssg71
g1946
sg64
(lp1953
S"<open file '<stderr>', mode 'w' at 0x7fd6de5a5270>"
p1954
asbasbasbag57
(g73
g59
NtRp1955
(dp1956
g62
(dp1957
sg71
g1033
sg64
(lp1958
g57
(g78
g59
NtRp1959
(dp1960
g62
(dp1961
g82
g83
ssg71
g1955
sg64
(lp1962
S'wsgi_file_wrapper'
p1963
asbag57
(g78
g59
NtRp1964
(dp1965
g62
(dp1966
g89
g90
ssg71
g1955
sg64
(lp1967
S':'
asbag57
(g78
g59
NtRp1968
(dp1969
g62
(dp1970
sg71
g1955
sg64
(lp1971
g57
(g58
g59
NtRp1972
(dp1973
g62
(dp1974
g70
I4
ssg71
g1968
sg64
(lp1975
S'<class wsgiref.util.FileWrapper at 0x2404c18>'
p1976
asbasbasbag57
(g73
g59
NtRp1977
(dp1978
g62
(dp1979
sg71
g1033
sg64
(lp1980
g57
(g78
g59
NtRp1981
(dp1982
g62
(dp1983
g82
g83
ssg71
g1977
sg64
(lp1984
S'wsgi_input'
p1985
asbag57
(g78
g59
NtRp1986
(dp1987
g62
(dp1988
g89
g90
ssg71
g1977
sg64
(lp1989
S':'
asbag57
(g78
g59
NtRp1990
(dp1991
g62
(dp1992
sg71
g1977
sg64
(lp1993
g57
(g58
g59
NtRp1994
(dp1995
g62
(dp1996
g70
I4
ssg71
g1990
sg64
(lp1997
S'<socket._fileobject object at 0x7fd6ac20e6d0>'
p1998
asbasbasbag57
(g73
g59
NtRp1999
(dp2000
g62
(dp2001
sg71
g1033
sg64
(lp2002
g57
(g78
g59
NtRp2003
(dp2004
g62
(dp2005
g82
g83
ssg71
g1999
sg64
(lp2006
S'wsgi_multiprocess'
p2007
asbag57
(g78
g59
NtRp2008
(dp2009
g62
(dp2010
g89
g90
ssg71
g1999
sg64
(lp2011
S':'
asbag57
(g78
g59
NtRp2012
(dp2013
g62
(dp2014
sg71
g1999
sg64
(lp2015
g57
(g58
g59
NtRp2016
(dp2017
g62
(dp2018
g70
I4
ssg71
g2012
sg64
(lp2019
g100
asbasbasbag57
(g73
g59
NtRp2020
(dp2021
g62
(dp2022
sg71
g1033
sg64
(lp2023
g57
(g78
g59
NtRp2024
(dp2025
g62
(dp2026
g82
g83
ssg71
g2020
sg64
(lp2027
S'wsgi_multithread'
p2028
asbag57
(g78
g59
NtRp2029
(dp2030
g62
(dp2031
g89
g90
ssg71
g2020
sg64
(lp2032
S':'
asbag57
(g78
g59
NtRp2033
(dp2034
g62
(dp2035
sg71
g2020
sg64
(lp2036
g57
(g58
g59
NtRp2037
(dp2038
g62
(dp2039
g70
I4
ssg71
g2033
sg64
(lp2040
S'True'
p2041
asbasbasbag57
(g73
g59
NtRp2042
(dp2043
g62
(dp2044
sg71
g1033
sg64
(lp2045
g57
(g78
g59
NtRp2046
(dp2047
g62
(dp2048
g82
g83
ssg71
g2042
sg64
(lp2049
S'wsgi_run_once'
p2050
asbag57
(g78
g59
NtRp2051
(dp2052
g62
(dp2053
g89
g90
ssg71
g2042
sg64
(lp2054
S':'
asbag57
(g78
g59
NtRp2055
(dp2056
g62
(dp2057
sg71
g2042
sg64
(lp2058
g57
(g58
g59
NtRp2059
(dp2060
g62
(dp2061
g70
I4
ssg71
g2055
sg64
(lp2062
g100
asbasbasbag57
(g73
g59
NtRp2063
(dp2064
g62
(dp2065
sg71
g1033
sg64
(lp2066
g57
(g78
g59
NtRp2067
(dp2068
g62
(dp2069
g82
g83
ssg71
g2063
sg64
(lp2070
S'wsgi_url_scheme'
p2071
asbag57
(g78
g59
NtRp2072
(dp2073
g62
(dp2074
g89
g90
ssg71
g2063
sg64
(lp2075
S':'
asbag57
(g78
g59
NtRp2076
(dp2077
g62
(dp2078
sg71
g2063
sg64
(lp2079
g57
(g58
g59
NtRp2080
(dp2081
g62
(dp2082
g70
I4
ssg71
g2076
sg64
(lp2083
S'http'
p2084
asbasbasbag57
(g73
g59
NtRp2085
(dp2086
g62
(dp2087
sg71
g1033
sg64
(lp2088
g57
(g78
g59
NtRp2089
(dp2090
g62
(dp2091
g82
g83
ssg71
g2085
sg64
(lp2092
S'wsgi_version'
p2093
asbag57
(g78
g59
NtRp2094
(dp2095
g62
(dp2096
g89
g90
ssg71
g2085
sg64
(lp2097
S':'
asbag57
(g78
g59
NtRp2098
(dp2099
g62
(dp2100
sg71
g2085
sg64
(lp2101
g57
(g58
g59
NtRp2102
(dp2103
g62
(dp2104
g70
I4
ssg71
g2098
sg64
(lp2105
g57
(g66
g59
NtRp2106
(dp2107
g62
(dp2108
g70
I3
ssg71
Nsg64
(lp2109
g57
(g73
g59
NtRp2110
(dp2111
g62
(dp2112
sg71
g2106
sg64
(lp2113
g57
(g78
g59
NtRp2114
(dp2115
g62
(dp2116
sg71
g2110
sg64
(lp2117
g57
(g58
g59
NtRp2118
(dp2119
g62
(dp2120
g70
I3
ssg71
g2114
sg64
(lp2121
S'1'
asbasbasbag57
(g73
g59
NtRp2122
(dp2123
g62
(dp2124
sg71
g2106
sg64
(lp2125
g57
(g78
g59
NtRp2126
(dp2127
g62
(dp2128
sg71
g2122
sg64
(lp2129
g57
(g58
g59
NtRp2130
(dp2131
g62
(dp2132
g70
I3
ssg71
g2126
sg64
(lp2133
S'0'
asbasbasbasbasbasbasbasbasbasbasbag57
(g73
g59
NtRp2134
(dp2135
g62
(dp2136
sg71
g67
sg64
(lp2137
g57
(g78
g59
NtRp2138
(dp2139
g62
(dp2140
g82
g83
ssg71
g2134
sg64
(lp2141
S'extension'
p2142
asbag57
(g78
g59
NtRp2143
(dp2144
g62
(dp2145
g89
g90
ssg71
g2134
sg64
(lp2146
S':'
asbag57
(g78
g59
NtRp2147
(dp2148
g62
(dp2149
sg71
g2134
sg64
(lp2150
g57
(g58
g59
NtRp2151
(dp2152
g62
(dp2153
g70
I5
ssg71
g2147
sg64
(lp2154
S'html'
p2155
asbasbasbag57
(g73
g59
NtRp2156
(dp2157
g62
(dp2158
sg71
g67
sg64
(lp2159
g57
(g78
g59
NtRp2160
(dp2161
g62
(dp2162
g82
g83
ssg71
g2156
sg64
(lp2163
S'folder'
p2164
asbag57
(g78
g59
NtRp2165
(dp2166
g62
(dp2167
g89
g90
ssg71
g2156
sg64
(lp2168
S':'
asbag57
(g78
g59
NtRp2169
(dp2170
g62
(dp2171
sg71
g2156
sg64
(lp2172
g57
(g58
g59
NtRp2173
(dp2174
g62
(dp2175
g70
I5
ssg71
g2169
sg64
(lp2176
S'/home/simran/web2py/applications/IIIT_calendars/'
p2177
asbasbasbag57
(g73
g59
NtRp2178
(dp2179
g62
(dp2180
sg71
g67
sg64
(lp2181
g57
(g78
g59
NtRp2182
(dp2183
g62
(dp2184
g82
g83
ssg71
g2178
sg64
(lp2185
S'function'
p2186
asbag57
(g78
g59
NtRp2187
(dp2188
g62
(dp2189
g89
g90
ssg71
g2178
sg64
(lp2190
S':'
asbag57
(g78
g59
NtRp2191
(dp2192
g62
(dp2193
sg71
g2178
sg64
(lp2194
g57
(g58
g59
NtRp2195
(dp2196
g62
(dp2197
g70
I5
ssg71
g2191
sg64
(lp2198
S'admin_calendar'
p2199
asbasbasbag57
(g73
g59
NtRp2200
(dp2201
g62
(dp2202
sg71
g67
sg64
(lp2203
g57
(g78
g59
NtRp2204
(dp2205
g62
(dp2206
g82
g83
ssg71
g2200
sg64
(lp2207
S'get_vars'
p2208
asbag57
(g78
g59
NtRp2209
(dp2210
g62
(dp2211
g89
g90
ssg71
g2200
sg64
(lp2212
S':'
asbag57
(g78
g59
NtRp2213
(dp2214
g62
(dp2215
sg71
g2200
sg64
(lp2216
g57
(g58
g59
NtRp2217
(dp2218
g62
(dp2219
g70
I5
ssg71
g2213
sg64
(lp2220
g57
(g66
g59
NtRp2221
(dp2222
g62
(dp2223
g70
I4
ssg71
Nsg64
(lp2224
sbasbasbasbag57
(g73
g59
NtRp2225
(dp2226
g62
(dp2227
sg71
g67
sg64
(lp2228
g57
(g78
g59
NtRp2229
(dp2230
g62
(dp2231
g82
g83
ssg71
g2225
sg64
(lp2232
S'global_settings'
p2233
asbag57
(g78
g59
NtRp2234
(dp2235
g62
(dp2236
g89
g90
ssg71
g2225
sg64
(lp2237
S':'
asbag57
(g78
g59
NtRp2238
(dp2239
g62
(dp2240
sg71
g2225
sg64
(lp2241
g57
(g58
g59
NtRp2242
(dp2243
g62
(dp2244
g70
I5
ssg71
g2238
sg64
(lp2245
g57
(g66
g59
NtRp2246
(dp2247
g62
(dp2248
g70
I4
ssg71
Nsg64
(lp2249
g57
(g73
g59
NtRp2250
(dp2251
g62
(dp2252
sg71
g2246
sg64
(lp2253
g57
(g78
g59
NtRp2254
(dp2255
g62
(dp2256
g82
g83
ssg71
g2250
sg64
(lp2257
g1045
asbag57
(g78
g59
NtRp2258
(dp2259
g62
(dp2260
g89
g90
ssg71
g2250
sg64
(lp2261
S':'
asbag57
(g78
g59
NtRp2262
(dp2263
g62
(dp2264
sg71
g2250
sg64
(lp2265
g57
(g58
g59
NtRp2266
(dp2267
g62
(dp2268
g70
I4
ssg71
g2262
sg64
(lp2269
S"set(['/home/simran/web2py/applications/welcome/', '/home/simran/web2py/applications/calendar/', '/home/simran/web2py/applications/IIIT_calendars/', '/home/simran/web2py/applications/admin/'])"
p2270
asbasbasbag57
(g73
g59
NtRp2271
(dp2272
g62
(dp2273
sg71
g2246
sg64
(lp2274
g57
(g78
g59
NtRp2275
(dp2276
g62
(dp2277
g82
g83
ssg71
g2271
sg64
(lp2278
g1067
asbag57
(g78
g59
NtRp2279
(dp2280
g62
(dp2281
g89
g90
ssg71
g2271
sg64
(lp2282
S':'
asbag57
(g78
g59
NtRp2283
(dp2284
g62
(dp2285
sg71
g2271
sg64
(lp2286
g57
(g58
g59
NtRp2287
(dp2288
g62
(dp2289
g70
I4
ssg71
g2283
sg64
(lp2290
g1080
asbasbasbag57
(g73
g59
NtRp2291
(dp2292
g62
(dp2293
sg71
g2246
sg64
(lp2294
g57
(g78
g59
NtRp2295
(dp2296
g62
(dp2297
g82
g83
ssg71
g2291
sg64
(lp2298
g1089
asbag57
(g78
g59
NtRp2299
(dp2300
g62
(dp2301
g89
g90
ssg71
g2291
sg64
(lp2302
S':'
asbag57
(g78
g59
NtRp2303
(dp2304
g62
(dp2305
sg71
g2291
sg64
(lp2306
g57
(g58
g59
NtRp2307
(dp2308
g62
(dp2309
g70
I4
ssg71
g2303
sg64
(lp2310
g57
(g66
g59
NtRp2311
(dp2312
g62
(dp2313
g70
I3
ssg71
Nsg64
(lp2314
sbasbasbasbag57
(g73
g59
NtRp2315
(dp2316
g62
(dp2317
sg71
g2246
sg64
(lp2318
g57
(g78
g59
NtRp2319
(dp2320
g62
(dp2321
g82
g83
ssg71
g2315
sg64
(lp2322
g1114
asbag57
(g78
g59
NtRp2323
(dp2324
g62
(dp2325
g89
g90
ssg71
g2315
sg64
(lp2326
S':'
asbag57
(g78
g59
NtRp2327
(dp2328
g62
(dp2329
sg71
g2315
sg64
(lp2330
g57
(g58
g59
NtRp2331
(dp2332
g62
(dp2333
g70
I4
ssg71
g2327
sg64
(lp2334
S"<Values at 0x249a7e8: {'verbose': False, 'ip': '127.0.0.1', 'with_scheduler': False, 'ips': [], 'shutdown_timeout': 5, 'taskbar': False, 'port': 8000, 'maxthreads': None, 'softcron': False, 'server_name': 'ubuntu', 'bpython': False, 'nogui': False, 'pid_filename': 'httpserver.pid', 'extcron': False, 'runcron': False, 'run_system_tests': False, 'test': None, 'folder': '/home/simran/web2py', 'config': '', 'minthreads': None, 'winservice': '', 'shell': None, 'run': '', 'log_filename': 'httpserver.log', 'debuglevel': 30, 'args': [''], 'socket_timeout': 5, 'ssl_ca_certificate': None, 'scheduler': None, 'profiler_filename': None, 'ssl_private_key': '', 'scheduler_groups': None, 'password': '<ask>', 'request_queue_size': 5, 'ssl_certificate': '', 'cronjob': False, 'numthreads': None, 'quiet': False, 'interfaces': None, 'import_models': False, 'timeout': 10, 'plain': False, 'nobanner': False}>"
p2335
asbasbasbag57
(g73
g59
NtRp2336
(dp2337
g62
(dp2338
sg71
g2246
sg64
(lp2339
g57
(g78
g59
NtRp2340
(dp2341
g62
(dp2342
g82
g83
ssg71
g2336
sg64
(lp2343
g1180
asbag57
(g78
g59
NtRp2344
(dp2345
g62
(dp2346
g89
g90
ssg71
g2336
sg64
(lp2347
S':'
asbag57
(g78
g59
NtRp2348
(dp2349
g62
(dp2350
sg71
g2336
sg64
(lp2351
g57
(g58
g59
NtRp2352
(dp2353
g62
(dp2354
g70
I4
ssg71
g2348
sg64
(lp2355
S'set([])'
p2356
asbasbasbag57
(g73
g59
NtRp2357
(dp2358
g62
(dp2359
sg71
g2246
sg64
(lp2360
g57
(g78
g59
NtRp2361
(dp2362
g62
(dp2363
g82
g83
ssg71
g2357
sg64
(lp2364
g1202
asbag57
(g78
g59
NtRp2365
(dp2366
g62
(dp2367
g89
g90
ssg71
g2357
sg64
(lp2368
S':'
asbag57
(g78
g59
NtRp2369
(dp2370
g62
(dp2371
sg71
g2357
sg64
(lp2372
g57
(g58
g59
NtRp2373
(dp2374
g62
(dp2375
g70
I4
ssg71
g2369
sg64
(lp2376
g100
asbasbasbag57
(g73
g59
NtRp2377
(dp2378
g62
(dp2379
sg71
g2246
sg64
(lp2380
g57
(g78
g59
NtRp2381
(dp2382
g62
(dp2383
g82
g83
ssg71
g2377
sg64
(lp2384
g1223
asbag57
(g78
g59
NtRp2385
(dp2386
g62
(dp2387
g89
g90
ssg71
g2377
sg64
(lp2388
S':'
asbag57
(g78
g59
NtRp2389
(dp2390
g62
(dp2391
sg71
g2377
sg64
(lp2392
g57
(g58
g59
NtRp2393
(dp2394
g62
(dp2395
g70
I4
ssg71
g2389
sg64
(lp2396
g1236
asbasbasbag57
(g73
g59
NtRp2397
(dp2398
g62
(dp2399
sg71
g2246
sg64
(lp2400
g57
(g78
g59
NtRp2401
(dp2402
g62
(dp2403
g82
g83
ssg71
g2397
sg64
(lp2404
g1463
asbag57
(g78
g59
NtRp2405
(dp2406
g62
(dp2407
g89
g90
ssg71
g2397
sg64
(lp2408
S':'
asbag57
(g78
g59
NtRp2409
(dp2410
g62
(dp2411
sg71
g2397
sg64
(lp2412
g57
(g58
g59
NtRp2413
(dp2414
g62
(dp2415
g70
I4
ssg71
g2409
sg64
(lp2416
g100
asbasbasbag57
(g73
g59
NtRp2417
(dp2418
g62
(dp2419
sg71
g2246
sg64
(lp2420
g57
(g78
g59
NtRp2421
(dp2422
g62
(dp2423
g82
g83
ssg71
g2417
sg64
(lp2424
g1484
asbag57
(g78
g59
NtRp2425
(dp2426
g62
(dp2427
g89
g90
ssg71
g2417
sg64
(lp2428
S':'
asbag57
(g78
g59
NtRp2429
(dp2430
g62
(dp2431
sg71
g2417
sg64
(lp2432
g57
(g58
g59
NtRp2433
(dp2434
g62
(dp2435
g70
I4
ssg71
g2429
sg64
(lp2436
g100
asbasbasbag57
(g73
g59
NtRp2437
(dp2438
g62
(dp2439
sg71
g2246
sg64
(lp2440
g57
(g78
g59
NtRp2441
(dp2442
g62
(dp2443
g82
g83
ssg71
g2437
sg64
(lp2444
g1505
asbag57
(g78
g59
NtRp2445
(dp2446
g62
(dp2447
g89
g90
ssg71
g2437
sg64
(lp2448
S':'
asbag57
(g78
g59
NtRp2449
(dp2450
g62
(dp2451
sg71
g2437
sg64
(lp2452
g57
(g58
g59
NtRp2453
(dp2454
g62
(dp2455
g70
I4
ssg71
g2449
sg64
(lp2456
g57
(g66
g59
NtRp2457
(dp2458
g62
(dp2459
g70
I3
ssg71
Nsg64
(lp2460
g57
(g73
g59
NtRp2461
(dp2462
g62
(dp2463
sg71
g2457
sg64
(lp2464
g57
(g78
g59
NtRp2465
(dp2466
g62
(dp2467
sg71
g2461
sg64
(lp2468
g57
(g58
g59
NtRp2469
(dp2470
g62
(dp2471
g70
I3
ssg71
g2465
sg64
(lp2472
g1534
asbasbasbag57
(g73
g59
NtRp2473
(dp2474
g62
(dp2475
sg71
g2457
sg64
(lp2476
g57
(g78
g59
NtRp2477
(dp2478
g62
(dp2479
sg71
g2473
sg64
(lp2480
g57
(g58
g59
NtRp2481
(dp2482
g62
(dp2483
g70
I3
ssg71
g2477
sg64
(lp2484
g1547
asbasbasbag57
(g73
g59
NtRp2485
(dp2486
g62
(dp2487
sg71
g2457
sg64
(lp2488
g57
(g78
g59
NtRp2489
(dp2490
g62
(dp2491
sg71
g2485
sg64
(lp2492
g57
(g58
g59
NtRp2493
(dp2494
g62
(dp2495
g70
I3
ssg71
g2489
sg64
(lp2496
g1560
asbasbasbag57
(g73
g59
NtRp2497
(dp2498
g62
(dp2499
sg71
g2457
sg64
(lp2500
g57
(g78
g59
NtRp2501
(dp2502
g62
(dp2503
sg71
g2497
sg64
(lp2504
g57
(g58
g59
NtRp2505
(dp2506
g62
(dp2507
g70
I3
ssg71
g2501
sg64
(lp2508
g1573
asbasbasbag57
(g73
g59
NtRp2509
(dp2510
g62
(dp2511
sg71
g2457
sg64
(lp2512
g57
(g78
g59
NtRp2513
(dp2514
g62
(dp2515
sg71
g2509
sg64
(lp2516
g57
(g58
g59
NtRp2517
(dp2518
g62
(dp2519
g70
I3
ssg71
g2513
sg64
(lp2520
g1586
asbasbasbasbasbasbasbag57
(g73
g59
NtRp2521
(dp2522
g62
(dp2523
sg71
g2246
sg64
(lp2524
g57
(g78
g59
NtRp2525
(dp2526
g62
(dp2527
g82
g83
ssg71
g2521
sg64
(lp2528
g1854
asbag57
(g78
g59
NtRp2529
(dp2530
g62
(dp2531
g89
g90
ssg71
g2521
sg64
(lp2532
S':'
asbag57
(g78
g59
NtRp2533
(dp2534
g62
(dp2535
sg71
g2521
sg64
(lp2536
g57
(g58
g59
NtRp2537
(dp2538
g62
(dp2539
g70
I4
ssg71
g2533
sg64
(lp2540
g57
(g66
g59
NtRp2541
(dp2542
g62
(dp2543
g70
I3
ssg71
Nsg64
(lp2544
g57
(g73
g59
NtRp2545
(dp2546
g62
(dp2547
sg71
g2541
sg64
(lp2548
g57
(g78
g59
NtRp2549
(dp2550
g62
(dp2551
sg71
g2545
sg64
(lp2552
g57
(g58
g59
NtRp2553
(dp2554
g62
(dp2555
g70
I3
ssg71
g2549
sg64
(lp2556
S'2'
asbasbasbag57
(g73
g59
NtRp2557
(dp2558
g62
(dp2559
sg71
g2541
sg64
(lp2560
g57
(g78
g59
NtRp2561
(dp2562
g62
(dp2563
sg71
g2557
sg64
(lp2564
g57
(g58
g59
NtRp2565
(dp2566
g62
(dp2567
g70
I3
ssg71
g2561
sg64
(lp2568
S'3'
asbasbasbag57
(g73
g59
NtRp2569
(dp2570
g62
(dp2571
sg71
g2541
sg64
(lp2572
g57
(g78
g59
NtRp2573
(dp2574
g62
(dp2575
sg71
g2569
sg64
(lp2576
g57
(g58
g59
NtRp2577
(dp2578
g62
(dp2579
g70
I3
ssg71
g2573
sg64
(lp2580
S'2'
asbasbasbag57
(g73
g59
NtRp2581
(dp2582
g62
(dp2583
sg71
g2541
sg64
(lp2584
g57
(g78
g59
NtRp2585
(dp2586
g62
(dp2587
sg71
g2581
sg64
(lp2588
g57
(g58
g59
NtRp2589
(dp2590
g62
(dp2591
g70
I3
ssg71
g2585
sg64
(lp2592
S'datetime.datetime(2012, 12, 17, 15, 3, 30)'
p2593
asbasbasbag57
(g73
g59
NtRp2594
(dp2595
g62
(dp2596
sg71
g2541
sg64
(lp2597
g57
(g78
g59
NtRp2598
(dp2599
g62
(dp2600
sg71
g2594
sg64
(lp2601
g57
(g58
g59
NtRp2602
(dp2603
g62
(dp2604
g70
I3
ssg71
g2598
sg64
(lp2605
g1932
asbasbasbasbasbasbasbasbasbasbasbag57
(g73
g59
NtRp2606
(dp2607
g62
(dp2608
sg71
g67
sg64
(lp2609
g57
(g78
g59
NtRp2610
(dp2611
g62
(dp2612
g82
g83
ssg71
g2606
sg64
(lp2613
S'is_https'
p2614
asbag57
(g78
g59
NtRp2615
(dp2616
g62
(dp2617
g89
g90
ssg71
g2606
sg64
(lp2618
S':'
asbag57
(g78
g59
NtRp2619
(dp2620
g62
(dp2621
sg71
g2606
sg64
(lp2622
g57
(g58
g59
NtRp2623
(dp2624
g62
(dp2625
g70
I5
ssg71
g2619
sg64
(lp2626
g100
asbasbasbag57
(g73
g59
NtRp2627
(dp2628
g62
(dp2629
sg71
g67
sg64
(lp2630
g57
(g78
g59
NtRp2631
(dp2632
g62
(dp2633
g82
g83
ssg71
g2627
sg64
(lp2634
S'is_local'
p2635
asbag57
(g78
g59
NtRp2636
(dp2637
g62
(dp2638
g89
g90
ssg71
g2627
sg64
(lp2639
S':'
asbag57
(g78
g59
NtRp2640
(dp2641
g62
(dp2642
sg71
g2627
sg64
(lp2643
g57
(g58
g59
NtRp2644
(dp2645
g62
(dp2646
g70
I5
ssg71
g2640
sg64
(lp2647
g2041
asbasbasbag57
(g73
g59
NtRp2648
(dp2649
g62
(dp2650
sg71
g67
sg64
(lp2651
g57
(g78
g59
NtRp2652
(dp2653
g62
(dp2654
g82
g83
ssg71
g2648
sg64
(lp2655
S'is_restful'
p2656
asbag57
(g78
g59
NtRp2657
(dp2658
g62
(dp2659
g89
g90
ssg71
g2648
sg64
(lp2660
S':'
asbag57
(g78
g59
NtRp2661
(dp2662
g62
(dp2663
sg71
g2648
sg64
(lp2664
g57
(g58
g59
NtRp2665
(dp2666
g62
(dp2667
g70
I5
ssg71
g2661
sg64
(lp2668
g100
asbasbasbag57
(g73
g59
NtRp2669
(dp2670
g62
(dp2671
sg71
g67
sg64
(lp2672
g57
(g78
g59
NtRp2673
(dp2674
g62
(dp2675
g82
g83
ssg71
g2669
sg64
(lp2676
S'now'
p2677
asbag57
(g78
g59
NtRp2678
(dp2679
g62
(dp2680
g89
g90
ssg71
g2669
sg64
(lp2681
S':'
asbag57
(g78
g59
NtRp2682
(dp2683
g62
(dp2684
sg71
g2669
sg64
(lp2685
g57
(g58
g59
NtRp2686
(dp2687
g62
(dp2688
g70
I5
ssg71
g2682
sg64
(lp2689
S'datetime.datetime(2013, 4, 13, 17, 0, 37, 309712)'
p2690
asbasbasbag57
(g73
g59
NtRp2691
(dp2692
g62
(dp2693
sg71
g67
sg64
(lp2694
g57
(g78
g59
NtRp2695
(dp2696
g62
(dp2697
g82
g83
ssg71
g2691
sg64
(lp2698
S'post_vars'
p2699
asbag57
(g78
g59
NtRp2700
(dp2701
g62
(dp2702
g89
g90
ssg71
g2691
sg64
(lp2703
S':'
asbag57
(g78
g59
NtRp2704
(dp2705
g62
(dp2706
sg71
g2691
sg64
(lp2707
g57
(g58
g59
NtRp2708
(dp2709
g62
(dp2710
g70
I5
ssg71
g2704
sg64
(lp2711
g57
(g66
g59
NtRp2712
(dp2713
g62
(dp2714
g70
I4
ssg71
Nsg64
(lp2715
g57
(g73
g59
NtRp2716
(dp2717
g62
(dp2718
sg71
g2712
sg64
(lp2719
g57
(g78
g59
NtRp2720
(dp2721
g62
(dp2722
g82
g83
ssg71
g2716
sg64
(lp2723
S'submit'
p2724
asbag57
(g78
g59
NtRp2725
(dp2726
g62
(dp2727
g89
g90
ssg71
g2716
sg64
(lp2728
S':'
asbag57
(g78
g59
NtRp2729
(dp2730
g62
(dp2731
sg71
g2716
sg64
(lp2732
g57
(g58
g59
NtRp2733
(dp2734
g62
(dp2735
g70
I4
ssg71
g2729
sg64
(lp2736
S'Show Calendar'
p2737
asbasbasbag57
(g73
g59
NtRp2738
(dp2739
g62
(dp2740
sg71
g2712
sg64
(lp2741
g57
(g78
g59
NtRp2742
(dp2743
g62
(dp2744
g82
g83
ssg71
g2738
sg64
(lp2745
S'username'
p2746
asbag57
(g78
g59
NtRp2747
(dp2748
g62
(dp2749
g89
g90
ssg71
g2738
sg64
(lp2750
S':'
asbag57
(g78
g59
NtRp2751
(dp2752
g62
(dp2753
sg71
g2738
sg64
(lp2754
g57
(g58
g59
NtRp2755
(dp2756
g62
(dp2757
g70
I4
ssg71
g2751
sg64
(lp2758
S'17'
p2759
asbasbasbasbasbasbasbag57
(g73
g59
NtRp2760
(dp2761
g62
(dp2762
sg71
g67
sg64
(lp2763
g57
(g78
g59
NtRp2764
(dp2765
g62
(dp2766
g82
g83
ssg71
g2760
sg64
(lp2767
S'raw_args'
p2768
asbag57
(g78
g59
NtRp2769
(dp2770
g62
(dp2771
g89
g90
ssg71
g2760
sg64
(lp2772
S':'
asbag57
(g78
g59
NtRp2773
(dp2774
g62
(dp2775
sg71
g2760
sg64
(lp2776
g57
(g58
g59
NtRp2777
(dp2778
g62
(dp2779
g70
I5
ssg71
g2773
sg64
(lp2780
S''
asbasbasbag57
(g73
g59
NtRp2781
(dp2782
g62
(dp2783
sg71
g67
sg64
(lp2784
g57
(g78
g59
NtRp2785
(dp2786
g62
(dp2787
g82
g83
ssg71
g2781
sg64
(lp2788
S'raw_extension'
p2789
asbag57
(g78
g59
NtRp2790
(dp2791
g62
(dp2792
g89
g90
ssg71
g2781
sg64
(lp2793
S':'
asbag57
(g78
g59
NtRp2794
(dp2795
g62
(dp2796
sg71
g2781
sg64
(lp2797
g57
(g58
g59
NtRp2798
(dp2799
g62
(dp2800
g70
I5
ssg71
g2794
sg64
(lp2801
S'None'
p2802
asbasbasbag57
(g73
g59
NtRp2803
(dp2804
g62
(dp2805
sg71
g67
sg64
(lp2806
g57
(g78
g59
NtRp2807
(dp2808
g62
(dp2809
g82
g83
ssg71
g2803
sg64
(lp2810
S'url'
p2811
asbag57
(g78
g59
NtRp2812
(dp2813
g62
(dp2814
g89
g90
ssg71
g2803
sg64
(lp2815
S':'
asbag57
(g78
g59
NtRp2816
(dp2817
g62
(dp2818
sg71
g2803
sg64
(lp2819
g57
(g58
g59
NtRp2820
(dp2821
g62
(dp2822
g70
I5
ssg71
g2816
sg64
(lp2823
g1608
asbasbasbag57
(g73
g59
NtRp2824
(dp2825
g62
(dp2826
sg71
g67
sg64
(lp2827
g57
(g78
g59
NtRp2828
(dp2829
g62
(dp2830
g82
g83
ssg71
g2824
sg64
(lp2831
S'utcnow'
p2832
asbag57
(g78
g59
NtRp2833
(dp2834
g62
(dp2835
g89
g90
ssg71
g2824
sg64
(lp2836
S':'
asbag57
(g78
g59
NtRp2837
(dp2838
g62
(dp2839
sg71
g2824
sg64
(lp2840
g57
(g58
g59
NtRp2841
(dp2842
g62
(dp2843
g70
I5
ssg71
g2837
sg64
(lp2844
S'datetime.datetime(2013, 4, 13, 11, 30, 37, 309756)'
p2845
asbasbasbag57
(g73
g59
NtRp2846
(dp2847
g62
(dp2848
sg71
g67
sg64
(lp2849
g57
(g78
g59
NtRp2850
(dp2851
g62
(dp2852
g82
g83
ssg71
g2846
sg64
(lp2853
S'uuid'
p2854
asbag57
(g78
g59
NtRp2855
(dp2856
g62
(dp2857
g89
g90
ssg71
g2846
sg64
(lp2858
S':'
asbag57
(g78
g59
NtRp2859
(dp2860
g62
(dp2861
sg71
g2846
sg64
(lp2862
g57
(g58
g59
NtRp2863
(dp2864
g62
(dp2865
g70
I5
ssg71
g2859
sg64
(lp2866
S'IIIT_calendars/127.0.0.1.2013-04-13.17-00-37.36d6d8c0-81b8-4fcf-8609-ece3fb28a5b0'
p2867
asbasbasbag57
(g73
g59
NtRp2868
(dp2869
g62
(dp2870
sg71
g67
sg64
(lp2871
g57
(g78
g59
NtRp2872
(dp2873
g62
(dp2874
g82
g83
ssg71
g2868
sg64
(lp2875
S'vars'
p2876
asbag57
(g78
g59
NtRp2877
(dp2878
g62
(dp2879
g89
g90
ssg71
g2868
sg64
(lp2880
S':'
asbag57
(g78
g59
NtRp2881
(dp2882
g62
(dp2883
sg71
g2868
sg64
(lp2884
g57
(g58
g59
NtRp2885
(dp2886
g62
(dp2887
g70
I5
ssg71
g2881
sg64
(lp2888
g57
(g66
g59
NtRp2889
(dp2890
g62
(dp2891
g70
I4
ssg71
Nsg64
(lp2892
g57
(g73
g59
NtRp2893
(dp2894
g62
(dp2895
sg71
g2889
sg64
(lp2896
g57
(g78
g59
NtRp2897
(dp2898
g62
(dp2899
g82
g83
ssg71
g2893
sg64
(lp2900
g2724
asbag57
(g78
g59
NtRp2901
(dp2902
g62
(dp2903
g89
g90
ssg71
g2893
sg64
(lp2904
S':'
asbag57
(g78
g59
NtRp2905
(dp2906
g62
(dp2907
sg71
g2893
sg64
(lp2908
g57
(g58
g59
NtRp2909
(dp2910
g62
(dp2911
g70
I4
ssg71
g2905
sg64
(lp2912
g2737
asbasbasbag57
(g73
g59
NtRp2913
(dp2914
g62
(dp2915
sg71
g2889
sg64
(lp2916
g57
(g78
g59
NtRp2917
(dp2918
g62
(dp2919
g82
g83
ssg71
g2913
sg64
(lp2920
g2746
asbag57
(g78
g59
NtRp2921
(dp2922
g62
(dp2923
g89
g90
ssg71
g2913
sg64
(lp2924
S':'
asbag57
(g78
g59
NtRp2925
(dp2926
g62
(dp2927
sg71
g2913
sg64
(lp2928
g57
(g58
g59
NtRp2929
(dp2930
g62
(dp2931
g70
I4
ssg71
g2925
sg64
(lp2932
g2759
asbasbasbasbasbasbasbag57
(g73
g59
NtRp2933
(dp2934
g62
(dp2935
sg71
g67
sg64
(lp2936
g57
(g78
g59
NtRp2937
(dp2938
g62
(dp2939
g82
g83
ssg71
g2933
sg64
(lp2940
S'wsgi'
p2941
asbag57
(g78
g59
NtRp2942
(dp2943
g62
(dp2944
g89
g90
ssg71
g2933
sg64
(lp2945
S':'
asbag57
(g78
g59
NtRp2946
(dp2947
g62
(dp2948
sg71
g2933
sg64
(lp2949
g57
(g58
g59
NtRp2950
(dp2951
g62
(dp2952
g70
I5
ssg71
g2946
sg64
(lp2953
g57
(g66
g59
NtRp2954
(dp2955
g62
(dp2956
g70
I4
ssg71
Nsg64
(lp2957
g57
(g73
g59
NtRp2958
(dp2959
g62
(dp2960
sg71
g2954
sg64
(lp2961
g57
(g78
g59
NtRp2962
(dp2963
g62
(dp2964
g82
g83
ssg71
g2958
sg64
(lp2965
S'environ'
p2966
asbag57
(g78
g59
NtRp2967
(dp2968
g62
(dp2969
g89
g90
ssg71
g2958
sg64
(lp2970
S':'
asbag57
(g78
g59
NtRp2971
(dp2972
g62
(dp2973
sg71
g2958
sg64
(lp2974
g57
(g58
g59
NtRp2975
(dp2976
g62
(dp2977
g70
I4
ssg71
g2971
sg64
(lp2978
g57
(g66
g59
NtRp2979
(dp2980
g62
(dp2981
g70
I3
ssg71
Nsg64
(lp2982
g57
(g73
g59
NtRp2983
(dp2984
g62
(dp2985
sg71
g2979
sg64
(lp2986
g57
(g78
g59
NtRp2987
(dp2988
g62
(dp2989
g82
g83
ssg71
g2983
sg64
(lp2990
S'CONTENT_LENGTH'
p2991
asbag57
(g78
g59
NtRp2992
(dp2993
g62
(dp2994
g89
g90
ssg71
g2983
sg64
(lp2995
S':'
asbag57
(g78
g59
NtRp2996
(dp2997
g62
(dp2998
sg71
g2983
sg64
(lp2999
g57
(g58
g59
NtRp3000
(dp3001
g62
(dp3002
g70
I3
ssg71
g2996
sg64
(lp3003
g1149
asbasbasbag57
(g73
g59
NtRp3004
(dp3005
g62
(dp3006
sg71
g2979
sg64
(lp3007
g57
(g78
g59
NtRp3008
(dp3009
g62
(dp3010
g82
g83
ssg71
g3004
sg64
(lp3011
S'CONTENT_TYPE'
p3012
asbag57
(g78
g59
NtRp3013
(dp3014
g62
(dp3015
g89
g90
ssg71
g3004
sg64
(lp3016
S':'
asbag57
(g78
g59
NtRp3017
(dp3018
g62
(dp3019
sg71
g3004
sg64
(lp3020
g57
(g58
g59
NtRp3021
(dp3022
g62
(dp3023
g70
I3
ssg71
g3017
sg64
(lp3024
g1171
asbasbasbag57
(g73
g59
NtRp3025
(dp3026
g62
(dp3027
sg71
g2979
sg64
(lp3028
g57
(g78
g59
NtRp3029
(dp3030
g62
(dp3031
g82
g83
ssg71
g3025
sg64
(lp3032
S'HTTP_ACCEPT'
p3033
asbag57
(g78
g59
NtRp3034
(dp3035
g62
(dp3036
g89
g90
ssg71
g3025
sg64
(lp3037
S':'
asbag57
(g78
g59
NtRp3038
(dp3039
g62
(dp3040
sg71
g3025
sg64
(lp3041
g57
(g58
g59
NtRp3042
(dp3043
g62
(dp3044
g70
I3
ssg71
g3038
sg64
(lp3045
g1258
asbasbasbag57
(g73
g59
NtRp3046
(dp3047
g62
(dp3048
sg71
g2979
sg64
(lp3049
g57
(g78
g59
NtRp3050
(dp3051
g62
(dp3052
g82
g83
ssg71
g3046
sg64
(lp3053
S'HTTP_ACCEPT_ENCODING'
p3054
asbag57
(g78
g59
NtRp3055
(dp3056
g62
(dp3057
g89
g90
ssg71
g3046
sg64
(lp3058
S':'
asbag57
(g78
g59
NtRp3059
(dp3060
g62
(dp3061
sg71
g3046
sg64
(lp3062
g57
(g58
g59
NtRp3063
(dp3064
g62
(dp3065
g70
I3
ssg71
g3059
sg64
(lp3066
g1280
asbasbasbag57
(g73
g59
NtRp3067
(dp3068
g62
(dp3069
sg71
g2979
sg64
(lp3070
g57
(g78
g59
NtRp3071
(dp3072
g62
(dp3073
g82
g83
ssg71
g3067
sg64
(lp3074
S'HTTP_ACCEPT_LANGUAGE'
p3075
asbag57
(g78
g59
NtRp3076
(dp3077
g62
(dp3078
g89
g90
ssg71
g3067
sg64
(lp3079
S':'
asbag57
(g78
g59
NtRp3080
(dp3081
g62
(dp3082
sg71
g3067
sg64
(lp3083
g57
(g58
g59
NtRp3084
(dp3085
g62
(dp3086
g70
I3
ssg71
g3080
sg64
(lp3087
g1302
asbasbasbag57
(g73
g59
NtRp3088
(dp3089
g62
(dp3090
sg71
g2979
sg64
(lp3091
g57
(g78
g59
NtRp3092
(dp3093
g62
(dp3094
g82
g83
ssg71
g3088
sg64
(lp3095
S'HTTP_CONNECTION'
p3096
asbag57
(g78
g59
NtRp3097
(dp3098
g62
(dp3099
g89
g90
ssg71
g3088
sg64
(lp3100
S':'
asbag57
(g78
g59
NtRp3101
(dp3102
g62
(dp3103
sg71
g3088
sg64
(lp3104
g57
(g58
g59
NtRp3105
(dp3106
g62
(dp3107
g70
I3
ssg71
g3101
sg64
(lp3108
g1324
asbasbasbag57
(g73
g59
NtRp3109
(dp3110
g62
(dp3111
sg71
g2979
sg64
(lp3112
g57
(g78
g59
NtRp3113
(dp3114
g62
(dp3115
g82
g83
ssg71
g3109
sg64
(lp3116
S'HTTP_CONTENT_LENGTH'
p3117
asbag57
(g78
g59
NtRp3118
(dp3119
g62
(dp3120
g89
g90
ssg71
g3109
sg64
(lp3121
S':'
asbag57
(g78
g59
NtRp3122
(dp3123
g62
(dp3124
sg71
g3109
sg64
(lp3125
g57
(g58
g59
NtRp3126
(dp3127
g62
(dp3128
g70
I3
ssg71
g3122
sg64
(lp3129
g1149
asbasbasbag57
(g73
g59
NtRp3130
(dp3131
g62
(dp3132
sg71
g2979
sg64
(lp3133
g57
(g78
g59
NtRp3134
(dp3135
g62
(dp3136
g82
g83
ssg71
g3130
sg64
(lp3137
S'HTTP_CONTENT_TYPE'
p3138
asbag57
(g78
g59
NtRp3139
(dp3140
g62
(dp3141
g89
g90
ssg71
g3130
sg64
(lp3142
S':'
asbag57
(g78
g59
NtRp3143
(dp3144
g62
(dp3145
sg71
g3130
sg64
(lp3146
g57
(g58
g59
NtRp3147
(dp3148
g62
(dp3149
g70
I3
ssg71
g3143
sg64
(lp3150
g1171
asbasbasbag57
(g73
g59
NtRp3151
(dp3152
g62
(dp3153
sg71
g2979
sg64
(lp3154
g57
(g78
g59
NtRp3155
(dp3156
g62
(dp3157
g82
g83
ssg71
g3151
sg64
(lp3158
S'HTTP_COOKIE'
p3159
asbag57
(g78
g59
NtRp3160
(dp3161
g62
(dp3162
g89
g90
ssg71
g3151
sg64
(lp3163
S':'
asbag57
(g78
g59
NtRp3164
(dp3165
g62
(dp3166
sg71
g3151
sg64
(lp3167
g57
(g58
g59
NtRp3168
(dp3169
g62
(dp3170
g70
I3
ssg71
g3164
sg64
(lp3171
g1388
asbasbasbag57
(g73
g59
NtRp3172
(dp3173
g62
(dp3174
sg71
g2979
sg64
(lp3175
g57
(g78
g59
NtRp3176
(dp3177
g62
(dp3178
g82
g83
ssg71
g3172
sg64
(lp3179
S'HTTP_HOST'
p3180
asbag57
(g78
g59
NtRp3181
(dp3182
g62
(dp3183
g89
g90
ssg71
g3172
sg64
(lp3184
S':'
asbag57
(g78
g59
NtRp3185
(dp3186
g62
(dp3187
sg71
g3172
sg64
(lp3188
g57
(g58
g59
NtRp3189
(dp3190
g62
(dp3191
g70
I3
ssg71
g3185
sg64
(lp3192
g1410
asbasbasbag57
(g73
g59
NtRp3193
(dp3194
g62
(dp3195
sg71
g2979
sg64
(lp3196
g57
(g78
g59
NtRp3197
(dp3198
g62
(dp3199
g82
g83
ssg71
g3193
sg64
(lp3200
S'HTTP_REFERER'
p3201
asbag57
(g78
g59
NtRp3202
(dp3203
g62
(dp3204
g89
g90
ssg71
g3193
sg64
(lp3205
S':'
asbag57
(g78
g59
NtRp3206
(dp3207
g62
(dp3208
sg71
g3193
sg64
(lp3209
g57
(g58
g59
NtRp3210
(dp3211
g62
(dp3212
g70
I3
ssg71
g3206
sg64
(lp3213
g1432
asbasbasbag57
(g73
g59
NtRp3214
(dp3215
g62
(dp3216
sg71
g2979
sg64
(lp3217
g57
(g78
g59
NtRp3218
(dp3219
g62
(dp3220
g82
g83
ssg71
g3214
sg64
(lp3221
S'HTTP_USER_AGENT'
p3222
asbag57
(g78
g59
NtRp3223
(dp3224
g62
(dp3225
g89
g90
ssg71
g3214
sg64
(lp3226
S':'
asbag57
(g78
g59
NtRp3227
(dp3228
g62
(dp3229
sg71
g3214
sg64
(lp3230
g57
(g58
g59
NtRp3231
(dp3232
g62
(dp3233
g70
I3
ssg71
g3227
sg64
(lp3234
g1454
asbasbasbag57
(g73
g59
NtRp3235
(dp3236
g62
(dp3237
sg71
g2979
sg64
(lp3238
g57
(g78
g59
NtRp3239
(dp3240
g62
(dp3241
g82
g83
ssg71
g3235
sg64
(lp3242
S'PATH_INFO'
p3243
asbag57
(g78
g59
NtRp3244
(dp3245
g62
(dp3246
g89
g90
ssg71
g3235
sg64
(lp3247
S':'
asbag57
(g78
g59
NtRp3248
(dp3249
g62
(dp3250
sg71
g3235
sg64
(lp3251
g57
(g58
g59
NtRp3252
(dp3253
g62
(dp3254
g70
I3
ssg71
g3248
sg64
(lp3255
g1608
asbasbasbag57
(g73
g59
NtRp3256
(dp3257
g62
(dp3258
sg71
g2979
sg64
(lp3259
g57
(g78
g59
NtRp3260
(dp3261
g62
(dp3262
g82
g83
ssg71
g3256
sg64
(lp3263
S'QUERY_STRING'
p3264
asbag57
(g78
g59
NtRp3265
(dp3266
g62
(dp3267
g89
g90
ssg71
g3256
sg64
(lp3268
S':'
asbag57
(g78
g59
NtRp3269
(dp3270
g62
(dp3271
sg71
g3256
sg64
(lp3272
g57
(g58
g59
NtRp3273
(dp3274
g62
(dp3275
g70
I3
ssg71
g3269
sg64
(lp3276
S''
asbasbasbag57
(g73
g59
NtRp3277
(dp3278
g62
(dp3279
sg71
g2979
sg64
(lp3280
g57
(g78
g59
NtRp3281
(dp3282
g62
(dp3283
g82
g83
ssg71
g3277
sg64
(lp3284
S'REMOTE_ADDR'
p3285
asbag57
(g78
g59
NtRp3286
(dp3287
g62
(dp3288
g89
g90
ssg71
g3277
sg64
(lp3289
S':'
asbag57
(g78
g59
NtRp3290
(dp3291
g62
(dp3292
sg71
g3277
sg64
(lp3293
g57
(g58
g59
NtRp3294
(dp3295
g62
(dp3296
g70
I3
ssg71
g3290
sg64
(lp3297
g212
asbasbasbag57
(g73
g59
NtRp3298
(dp3299
g62
(dp3300
sg71
g2979
sg64
(lp3301
g57
(g78
g59
NtRp3302
(dp3303
g62
(dp3304
g82
g83
ssg71
g3298
sg64
(lp3305
S'REMOTE_PORT'
p3306
asbag57
(g78
g59
NtRp3307
(dp3308
g62
(dp3309
g89
g90
ssg71
g3298
sg64
(lp3310
S':'
asbag57
(g78
g59
NtRp3311
(dp3312
g62
(dp3313
sg71
g3298
sg64
(lp3314
g57
(g58
g59
NtRp3315
(dp3316
g62
(dp3317
g70
I3
ssg71
g3311
sg64
(lp3318
g1672
asbasbasbag57
(g73
g59
NtRp3319
(dp3320
g62
(dp3321
sg71
g2979
sg64
(lp3322
g57
(g78
g59
NtRp3323
(dp3324
g62
(dp3325
g82
g83
ssg71
g3319
sg64
(lp3326
S'REQUEST_METHOD'
p3327
asbag57
(g78
g59
NtRp3328
(dp3329
g62
(dp3330
g89
g90
ssg71
g3319
sg64
(lp3331
S':'
asbag57
(g78
g59
NtRp3332
(dp3333
g62
(dp3334
sg71
g3319
sg64
(lp3335
g57
(g58
g59
NtRp3336
(dp3337
g62
(dp3338
g70
I3
ssg71
g3332
sg64
(lp3339
g1694
asbasbasbag57
(g73
g59
NtRp3340
(dp3341
g62
(dp3342
sg71
g2979
sg64
(lp3343
g57
(g78
g59
NtRp3344
(dp3345
g62
(dp3346
g82
g83
ssg71
g3340
sg64
(lp3347
S'REQUEST_URI'
p3348
asbag57
(g78
g59
NtRp3349
(dp3350
g62
(dp3351
g89
g90
ssg71
g3340
sg64
(lp3352
S':'
asbag57
(g78
g59
NtRp3353
(dp3354
g62
(dp3355
sg71
g3340
sg64
(lp3356
g57
(g58
g59
NtRp3357
(dp3358
g62
(dp3359
g70
I3
ssg71
g3353
sg64
(lp3360
g1608
asbasbasbag57
(g73
g59
NtRp3361
(dp3362
g62
(dp3363
sg71
g2979
sg64
(lp3364
g57
(g78
g59
NtRp3365
(dp3366
g62
(dp3367
g82
g83
ssg71
g3361
sg64
(lp3368
S'SCRIPT_NAME'
p3369
asbag57
(g78
g59
NtRp3370
(dp3371
g62
(dp3372
g89
g90
ssg71
g3361
sg64
(lp3373
S':'
asbag57
(g78
g59
NtRp3374
(dp3375
g62
(dp3376
sg71
g3361
sg64
(lp3377
g57
(g58
g59
NtRp3378
(dp3379
g62
(dp3380
g70
I3
ssg71
g3374
sg64
(lp3381
S''
asbasbasbag57
(g73
g59
NtRp3382
(dp3383
g62
(dp3384
sg71
g2979
sg64
(lp3385
g57
(g78
g59
NtRp3386
(dp3387
g62
(dp3388
g82
g83
ssg71
g3382
sg64
(lp3389
S'SERVER_NAME'
p3390
asbag57
(g78
g59
NtRp3391
(dp3392
g62
(dp3393
g89
g90
ssg71
g3382
sg64
(lp3394
S':'
asbag57
(g78
g59
NtRp3395
(dp3396
g62
(dp3397
sg71
g3382
sg64
(lp3398
g57
(g58
g59
NtRp3399
(dp3400
g62
(dp3401
g70
I3
ssg71
g3395
sg64
(lp3402
g1758
asbasbasbag57
(g73
g59
NtRp3403
(dp3404
g62
(dp3405
sg71
g2979
sg64
(lp3406
g57
(g78
g59
NtRp3407
(dp3408
g62
(dp3409
g82
g83
ssg71
g3403
sg64
(lp3410
S'SERVER_PORT'
p3411
asbag57
(g78
g59
NtRp3412
(dp3413
g62
(dp3414
g89
g90
ssg71
g3403
sg64
(lp3415
S':'
asbag57
(g78
g59
NtRp3416
(dp3417
g62
(dp3418
sg71
g3403
sg64
(lp3419
g57
(g58
g59
NtRp3420
(dp3421
g62
(dp3422
g70
I3
ssg71
g3416
sg64
(lp3423
g1780
asbasbasbag57
(g73
g59
NtRp3424
(dp3425
g62
(dp3426
sg71
g2979
sg64
(lp3427
g57
(g78
g59
NtRp3428
(dp3429
g62
(dp3430
g82
g83
ssg71
g3424
sg64
(lp3431
S'SERVER_PROTOCOL'
p3432
asbag57
(g78
g59
NtRp3433
(dp3434
g62
(dp3435
g89
g90
ssg71
g3424
sg64
(lp3436
S':'
asbag57
(g78
g59
NtRp3437
(dp3438
g62
(dp3439
sg71
g3424
sg64
(lp3440
g57
(g58
g59
NtRp3441
(dp3442
g62
(dp3443
g70
I3
ssg71
g3437
sg64
(lp3444
g1802
asbasbasbag57
(g73
g59
NtRp3445
(dp3446
g62
(dp3447
sg71
g2979
sg64
(lp3448
g57
(g78
g59
NtRp3449
(dp3450
g62
(dp3451
g82
g83
ssg71
g3445
sg64
(lp3452
S'SERVER_SOFTWARE'
p3453
asbag57
(g78
g59
NtRp3454
(dp3455
g62
(dp3456
g89
g90
ssg71
g3445
sg64
(lp3457
S':'
asbag57
(g78
g59
NtRp3458
(dp3459
g62
(dp3460
sg71
g3445
sg64
(lp3461
g57
(g58
g59
NtRp3462
(dp3463
g62
(dp3464
g70
I3
ssg71
g3458
sg64
(lp3465
g1824
asbasbasbag57
(g73
g59
NtRp3466
(dp3467
g62
(dp3468
sg71
g2979
sg64
(lp3469
g57
(g78
g59
NtRp3470
(dp3471
g62
(dp3472
g82
g83
ssg71
g3466
sg64
(lp3473
S'wsgi.errors'
p3474
asbag57
(g78
g59
NtRp3475
(dp3476
g62
(dp3477
g89
g90
ssg71
g3466
sg64
(lp3478
S':'
asbag57
(g78
g59
NtRp3479
(dp3480
g62
(dp3481
sg71
g3466
sg64
(lp3482
g57
(g58
g59
NtRp3483
(dp3484
g62
(dp3485
g70
I3
ssg71
g3479
sg64
(lp3486
S"<open file '<stderr>', mode 'w' at 0x7fd6de5a5270>"
p3487
asbasbasbag57
(g73
g59
NtRp3488
(dp3489
g62
(dp3490
sg71
g2979
sg64
(lp3491
g57
(g78
g59
NtRp3492
(dp3493
g62
(dp3494
g82
g83
ssg71
g3488
sg64
(lp3495
S'wsgi.file_wrapper'
p3496
asbag57
(g78
g59
NtRp3497
(dp3498
g62
(dp3499
g89
g90
ssg71
g3488
sg64
(lp3500
S':'
asbag57
(g78
g59
NtRp3501
(dp3502
g62
(dp3503
sg71
g3488
sg64
(lp3504
g57
(g58
g59
NtRp3505
(dp3506
g62
(dp3507
g70
I3
ssg71
g3501
sg64
(lp3508
S'<class wsgiref.util.FileWrapper at 0x2404c18>'
p3509
asbasbasbag57
(g73
g59
NtRp3510
(dp3511
g62
(dp3512
sg71
g2979
sg64
(lp3513
g57
(g78
g59
NtRp3514
(dp3515
g62
(dp3516
g82
g83
ssg71
g3510
sg64
(lp3517
S'wsgi.input'
p3518
asbag57
(g78
g59
NtRp3519
(dp3520
g62
(dp3521
g89
g90
ssg71
g3510
sg64
(lp3522
S':'
asbag57
(g78
g59
NtRp3523
(dp3524
g62
(dp3525
sg71
g3510
sg64
(lp3526
g57
(g58
g59
NtRp3527
(dp3528
g62
(dp3529
g70
I3
ssg71
g3523
sg64
(lp3530
S"<open file '<fdopen>', mode 'w+b' at 0x7fd6ac33cb70>"
p3531
asbasbasbag57
(g73
g59
NtRp3532
(dp3533
g62
(dp3534
sg71
g2979
sg64
(lp3535
g57
(g78
g59
NtRp3536
(dp3537
g62
(dp3538
g82
g83
ssg71
g3532
sg64
(lp3539
S'wsgi.multiprocess'
p3540
asbag57
(g78
g59
NtRp3541
(dp3542
g62
(dp3543
g89
g90
ssg71
g3532
sg64
(lp3544
S':'
asbag57
(g78
g59
NtRp3545
(dp3546
g62
(dp3547
sg71
g3532
sg64
(lp3548
g57
(g58
g59
NtRp3549
(dp3550
g62
(dp3551
g70
I3
ssg71
g3545
sg64
(lp3552
g100
asbasbasbag57
(g73
g59
NtRp3553
(dp3554
g62
(dp3555
sg71
g2979
sg64
(lp3556
g57
(g78
g59
NtRp3557
(dp3558
g62
(dp3559
g82
g83
ssg71
g3553
sg64
(lp3560
S'wsgi.multithread'
p3561
asbag57
(g78
g59
NtRp3562
(dp3563
g62
(dp3564
g89
g90
ssg71
g3553
sg64
(lp3565
S':'
asbag57
(g78
g59
NtRp3566
(dp3567
g62
(dp3568
sg71
g3553
sg64
(lp3569
g57
(g58
g59
NtRp3570
(dp3571
g62
(dp3572
g70
I3
ssg71
g3566
sg64
(lp3573
g2041
asbasbasbag57
(g73
g59
NtRp3574
(dp3575
g62
(dp3576
sg71
g2979
sg64
(lp3577
g57
(g78
g59
NtRp3578
(dp3579
g62
(dp3580
g82
g83
ssg71
g3574
sg64
(lp3581
S'wsgi.run_once'
p3582
asbag57
(g78
g59
NtRp3583
(dp3584
g62
(dp3585
g89
g90
ssg71
g3574
sg64
(lp3586
S':'
asbag57
(g78
g59
NtRp3587
(dp3588
g62
(dp3589
sg71
g3574
sg64
(lp3590
g57
(g58
g59
NtRp3591
(dp3592
g62
(dp3593
g70
I3
ssg71
g3587
sg64
(lp3594
g100
asbasbasbag57
(g73
g59
NtRp3595
(dp3596
g62
(dp3597
sg71
g2979
sg64
(lp3598
g57
(g78
g59
NtRp3599
(dp3600
g62
(dp3601
g82
g83
ssg71
g3595
sg64
(lp3602
S'wsgi.url_scheme'
p3603
asbag57
(g78
g59
NtRp3604
(dp3605
g62
(dp3606
g89
g90
ssg71
g3595
sg64
(lp3607
S':'
asbag57
(g78
g59
NtRp3608
(dp3609
g62
(dp3610
sg71
g3595
sg64
(lp3611
g57
(g58
g59
NtRp3612
(dp3613
g62
(dp3614
g70
I3
ssg71
g3608
sg64
(lp3615
g2084
asbasbasbag57
(g73
g59
NtRp3616
(dp3617
g62
(dp3618
sg71
g2979
sg64
(lp3619
g57
(g78
g59
NtRp3620
(dp3621
g62
(dp3622
g82
g83
ssg71
g3616
sg64
(lp3623
S'wsgi.version'
p3624
asbag57
(g78
g59
NtRp3625
(dp3626
g62
(dp3627
g89
g90
ssg71
g3616
sg64
(lp3628
S':'
asbag57
(g78
g59
NtRp3629
(dp3630
g62
(dp3631
sg71
g3616
sg64
(lp3632
g57
(g58
g59
NtRp3633
(dp3634
g62
(dp3635
g70
I3
ssg71
g3629
sg64
(lp3636
S'1'
asbasbasbasbasbasbasbasbasbasbasbasbasbsS'frames'
p3637
(lp3638
(dp3639
S'file'
p3640
S'/home/simran/web2py/gluon/restricted.py'
p3641
sS'dump'
p3642
(dp3643
S'environment'
p3644
S"{'A': <class 'gluon.html.A'>, 'Auth': <class 'gluon.tools.Auth'>, 'B': <class 'gluon.html.B'>, 'BEAUTIFY': <class 'gluon.html.BEAUTIFY'>, 'BODY': <class 'gluon.html.BODY'>, 'BR': <class 'gluon.html.BR'>, 'BUTTON': <class 'gluon.html.BUTTON'>, 'CAT': <class 'gluon.html.CAT'>, 'CENTER': <class 'gluon.html.CENTER'>, 'CLEANUP': <class 'gluon.validators.CLEANUP'>, ...}"
p3645
sS'ccode'
p3646
S'<code object <module> at 0x7fd6a845da30, file "/.../IIIT_calendars/controllers/default.py", line 11>'
p3647
ssS'lnum'
p3648
I212
sS'lines'
p3649
(dp3650
I207
S'    try:'
p3651
sI208
S'        if isinstance(code, types.CodeType):'
p3652
sI209
S'            ccode = code'
p3653
sI210
S'        else:'
p3654
sI211
S'            ccode = compile2(code, layer)'
p3655
sI212
S'        exec ccode in environment'
p3656
sI213
S'    except HTTP:'
p3657
sI214
S'        raise'
p3658
sI215
S'    except RestrictedError:'
p3659
sI216
S'        # do not encapsulate (obfuscate) the original RestrictedError'
p3660
ssS'call'
p3661
S"(code='# -*- coding: utf-8 -*-\\n# this file is released ...\\nresponse._vars=response._caller(admin_calendar)\\n', environment={'A': <class 'gluon.html.A'>, 'Auth': <class 'gluon.tools.Auth'>, 'B': <class 'gluon.html.B'>, 'BEAUTIFY': <class 'gluon.html.BEAUTIFY'>, 'BODY': <class 'gluon.html.BODY'>, 'BR': <class 'gluon.html.BR'>, 'BUTTON': <class 'gluon.html.BUTTON'>, 'CAT': <class 'gluon.html.CAT'>, 'CENTER': <class 'gluon.html.CENTER'>, 'CLEANUP': <class 'gluon.validators.CLEANUP'>, ...}, layer='/home/simran/web2py/applications/IIIT_calendars/controllers/default.py')"
p3662
sS'func'
p3663
S'restricted'
p3664
sa(dp3665
g3640
S'/home/simran/web2py/applications/IIIT_calendars/controllers/default.py'
p3666
sg3642
(dp3667
sg3648
I142
sg3649
(dp3668
I131
S'def editadmineventdetails():'
p3669
sI132
S'    return locals()'
p3670
sI133
S''
sI134
S'def admin_calendar():'
p3671
sI135
S'    c=request.post_vars'
p3672
sI136
S'    q=db(db.auth_user.id==int(c)).select(db.auth_user.first_name)[0]'
p3673
sI137
S'    return locals()'
p3674
sI138
S''
sI139
S'def printn():'
p3675
sI140
S'\treturn locals()'
p3676
ssg3661
S'()'
p3677
sg3663
S'<module>'
p3678
sa(dp3679
g3640
S'/home/simran/web2py/gluon/globals.py'
p3680
sg3642
(dp3681
S'self'
p3682
S'undefined'
p3683
sS'f'
S'<function admin_calendar>'
p3684
ssg3648
I193
sg3649
(dp3685
I192
S'        self._vars = None'
p3686
sI193
S'        self._caller = lambda f: f()'
p3687
sI194
S'        self._view_environment = None'
p3688
sI195
S'        self._custom_commit = None'
p3689
sI196
S'        self._custom_rollback = None'
p3690
sI197
S''
sI188
S'        self.menu = []             # used by the default view layout'
p3691
sI189
S'        self.files = []            # used by web2py_ajax.html'
p3692
sI190
S'        self.generic_patterns = []  # patterns to allow generic views'
p3693
sI191
S"        self.delimiters = ('{{', '}}')"
p3694
ssg3661
S'(f=<function admin_calendar>)'
p3695
sg3663
S'<lambda>'
p3696
sa(dp3697
g3640
S'/home/simran/web2py/applications/IIIT_calendars/controllers/default.py'
p3698
sg3642
(dp3699
S'c'
S"<Storage {'username': '17', 'submit': 'Show Calendar'}>"
p3700
sS'db.auth_user.first_name'
p3701
S'<gluon.dal.Field object>'
p3702
sS').select'
p3703
S'None'
p3704
sS'q'
g3683
sS'db.auth_user'
p3705
S'<Table auth_user (id,first_name,last_name,email,...stration_key,reset_password_key,registration_id)>'
p3706
sS'db.auth_user.id'
p3707
S'<gluon.dal.Field object>'
p3708
sS'global db'
p3709
S'<DAL uri="sqlite://storage.sqlite">'
p3710
sS'builtinint'
p3711
S"<type 'int'>"
p3712
ssg3648
I136
sg3649
(dp3713
I131
S'def editadmineventdetails():'
p3714
sI132
S'    return locals()'
p3715
sI133
S''
sI134
S'def admin_calendar():'
p3716
sI135
S'    c=request.post_vars'
p3717
sI136
S'    q=db(db.auth_user.id==int(c)).select(db.auth_user.first_name)[0]'
p3718
sI137
S'    return locals()'
p3719
sI138
S''
sI139
S'def printn():'
p3720
sI140
S'\treturn locals()'
p3721
ssg3661
S'()'
p3722
sg3663
S'admin_calendar'
p3723
sasS'pyver'
p3724
S'Python 2.7.3: /usr/bin/python'
p3725
sS'session'
p3726
g57
(g58
g59
NtRp3727
(dp3728
g62
(dp3729
sg64
(lp3730
g57
(g66
g59
NtRp3731
(dp3732
g62
(dp3733
g70
I5
ssg71
Nsg64
(lp3734
g57
(g73
g59
NtRp3735
(dp3736
g62
(dp3737
sg71
g3731
sg64
(lp3738
g57
(g78
g59
NtRp3739
(dp3740
g62
(dp3741
g82
g83
ssg71
g3735
sg64
(lp3742
S'auth'
p3743
asbag57
(g78
g59
NtRp3744
(dp3745
g62
(dp3746
g89
g90
ssg71
g3735
sg64
(lp3747
S':'
asbag57
(g78
g59
NtRp3748
(dp3749
g62
(dp3750
sg71
g3735
sg64
(lp3751
g57
(g58
g59
NtRp3752
(dp3753
g62
(dp3754
g70
I5
ssg71
g3748
sg64
(lp3755
g57
(g66
g59
NtRp3756
(dp3757
g62
(dp3758
g70
I4
ssg71
Nsg64
(lp3759
g57
(g73
g59
NtRp3760
(dp3761
g62
(dp3762
sg71
g3756
sg64
(lp3763
g57
(g78
g59
NtRp3764
(dp3765
g62
(dp3766
g82
g83
ssg71
g3760
sg64
(lp3767
S'expiration'
p3768
asbag57
(g78
g59
NtRp3769
(dp3770
g62
(dp3771
g89
g90
ssg71
g3760
sg64
(lp3772
S':'
asbag57
(g78
g59
NtRp3773
(dp3774
g62
(dp3775
sg71
g3760
sg64
(lp3776
g57
(g58
g59
NtRp3777
(dp3778
g62
(dp3779
g70
I4
ssg71
g3773
sg64
(lp3780
S'3600'
p3781
asbasbasbag57
(g73
g59
NtRp3782
(dp3783
g62
(dp3784
sg71
g3756
sg64
(lp3785
g57
(g78
g59
NtRp3786
(dp3787
g62
(dp3788
g82
g83
ssg71
g3782
sg64
(lp3789
S'hmac_key'
p3790
asbag57
(g78
g59
NtRp3791
(dp3792
g62
(dp3793
g89
g90
ssg71
g3782
sg64
(lp3794
S':'
asbag57
(g78
g59
NtRp3795
(dp3796
g62
(dp3797
sg71
g3782
sg64
(lp3798
g57
(g58
g59
NtRp3799
(dp3800
g62
(dp3801
g70
I4
ssg71
g3795
sg64
(lp3802
S'cad361bd-e089-4fff-9f81-a8575a341130'
p3803
asbasbasbag57
(g73
g59
NtRp3804
(dp3805
g62
(dp3806
sg71
g3756
sg64
(lp3807
g57
(g78
g59
NtRp3808
(dp3809
g62
(dp3810
g82
g83
ssg71
g3804
sg64
(lp3811
S'last_visit'
p3812
asbag57
(g78
g59
NtRp3813
(dp3814
g62
(dp3815
g89
g90
ssg71
g3804
sg64
(lp3816
S':'
asbag57
(g78
g59
NtRp3817
(dp3818
g62
(dp3819
sg71
g3804
sg64
(lp3820
g57
(g58
g59
NtRp3821
(dp3822
g62
(dp3823
g70
I4
ssg71
g3817
sg64
(lp3824
S'datetime.datetime(2013, 4, 13, 17, 0, 32, 398424)'
p3825
asbasbasbag57
(g73
g59
NtRp3826
(dp3827
g62
(dp3828
sg71
g3756
sg64
(lp3829
g57
(g78
g59
NtRp3830
(dp3831
g62
(dp3832
g82
g83
ssg71
g3826
sg64
(lp3833
S'remember'
p3834
asbag57
(g78
g59
NtRp3835
(dp3836
g62
(dp3837
g89
g90
ssg71
g3826
sg64
(lp3838
S':'
asbag57
(g78
g59
NtRp3839
(dp3840
g62
(dp3841
sg71
g3826
sg64
(lp3842
g57
(g58
g59
NtRp3843
(dp3844
g62
(dp3845
g70
I4
ssg71
g3839
sg64
(lp3846
g100
asbasbasbag57
(g73
g59
NtRp3847
(dp3848
g62
(dp3849
sg71
g3756
sg64
(lp3850
g57
(g78
g59
NtRp3851
(dp3852
g62
(dp3853
g82
g83
ssg71
g3847
sg64
(lp3854
S'user'
p3855
asbag57
(g78
g59
NtRp3856
(dp3857
g62
(dp3858
g89
g90
ssg71
g3847
sg64
(lp3859
S':'
asbag57
(g78
g59
NtRp3860
(dp3861
g62
(dp3862
sg71
g3847
sg64
(lp3863
g57
(g58
g59
NtRp3864
(dp3865
g62
(dp3866
g70
I4
ssg71
g3860
sg64
(lp3867
g57
(g66
g59
NtRp3868
(dp3869
g62
(dp3870
g70
I3
ssg71
Nsg64
(lp3871
g57
(g73
g59
NtRp3872
(dp3873
g62
(dp3874
sg71
g3868
sg64
(lp3875
g57
(g78
g59
NtRp3876
(dp3877
g62
(dp3878
g82
g83
ssg71
g3872
sg64
(lp3879
S'email'
p3880
asbag57
(g78
g59
NtRp3881
(dp3882
g62
(dp3883
g89
g90
ssg71
g3872
sg64
(lp3884
S':'
asbag57
(g78
g59
NtRp3885
(dp3886
g62
(dp3887
sg71
g3872
sg64
(lp3888
g57
(g58
g59
NtRp3889
(dp3890
g62
(dp3891
g70
I3
ssg71
g3885
sg64
(lp3892
S'gk@gmail.com'
p3893
asbasbasbag57
(g73
g59
NtRp3894
(dp3895
g62
(dp3896
sg71
g3868
sg64
(lp3897
g57
(g78
g59
NtRp3898
(dp3899
g62
(dp3900
g82
g83
ssg71
g3894
sg64
(lp3901
S'first_name'
p3902
asbag57
(g78
g59
NtRp3903
(dp3904
g62
(dp3905
g89
g90
ssg71
g3894
sg64
(lp3906
S':'
asbag57
(g78
g59
NtRp3907
(dp3908
g62
(dp3909
sg71
g3894
sg64
(lp3910
g57
(g58
g59
NtRp3911
(dp3912
g62
(dp3913
g70
I3
ssg71
g3907
sg64
(lp3914
S'Gurniamat'
p3915
asbasbasbag57
(g73
g59
NtRp3916
(dp3917
g62
(dp3918
sg71
g3868
sg64
(lp3919
g57
(g78
g59
NtRp3920
(dp3921
g62
(dp3922
g82
g83
ssg71
g3916
sg64
(lp3923
S'id'
p3924
asbag57
(g78
g59
NtRp3925
(dp3926
g62
(dp3927
g89
g90
ssg71
g3916
sg64
(lp3928
S':'
asbag57
(g78
g59
NtRp3929
(dp3930
g62
(dp3931
sg71
g3916
sg64
(lp3932
g57
(g58
g59
NtRp3933
(dp3934
g62
(dp3935
g70
I3
ssg71
g3929
sg64
(lp3936
S'18'
p3937
asbasbasbag57
(g73
g59
NtRp3938
(dp3939
g62
(dp3940
sg71
g3868
sg64
(lp3941
g57
(g78
g59
NtRp3942
(dp3943
g62
(dp3944
g82
g83
ssg71
g3938
sg64
(lp3945
S'last_name'
p3946
asbag57
(g78
g59
NtRp3947
(dp3948
g62
(dp3949
g89
g90
ssg71
g3938
sg64
(lp3950
S':'
asbag57
(g78
g59
NtRp3951
(dp3952
g62
(dp3953
sg71
g3938
sg64
(lp3954
g57
(g58
g59
NtRp3955
(dp3956
g62
(dp3957
g70
I3
ssg71
g3951
sg64
(lp3958
S'Kaur'
p3959
asbasbasbag57
(g73
g59
NtRp3960
(dp3961
g62
(dp3962
sg71
g3868
sg64
(lp3963
g57
(g78
g59
NtRp3964
(dp3965
g62
(dp3966
g82
g83
ssg71
g3960
sg64
(lp3967
S'registration_id'
p3968
asbag57
(g78
g59
NtRp3969
(dp3970
g62
(dp3971
g89
g90
ssg71
g3960
sg64
(lp3972
S':'
asbag57
(g78
g59
NtRp3973
(dp3974
g62
(dp3975
sg71
g3960
sg64
(lp3976
g57
(g58
g59
NtRp3977
(dp3978
g62
(dp3979
g70
I3
ssg71
g3973
sg64
(lp3980
S''
asbasbasbag57
(g73
g59
NtRp3981
(dp3982
g62
(dp3983
sg71
g3868
sg64
(lp3984
g57
(g78
g59
NtRp3985
(dp3986
g62
(dp3987
g82
g83
ssg71
g3981
sg64
(lp3988
S'registration_key'
p3989
asbag57
(g78
g59
NtRp3990
(dp3991
g62
(dp3992
g89
g90
ssg71
g3981
sg64
(lp3993
S':'
asbag57
(g78
g59
NtRp3994
(dp3995
g62
(dp3996
sg71
g3981
sg64
(lp3997
g57
(g58
g59
NtRp3998
(dp3999
g62
(dp4000
g70
I3
ssg71
g3994
sg64
(lp4001
S''
asbasbasbag57
(g73
g59
NtRp4002
(dp4003
g62
(dp4004
sg71
g3868
sg64
(lp4005
g57
(g78
g59
NtRp4006
(dp4007
g62
(dp4008
g82
g83
ssg71
g4002
sg64
(lp4009
S'reset_password_key'
p4010
asbag57
(g78
g59
NtRp4011
(dp4012
g62
(dp4013
g89
g90
ssg71
g4002
sg64
(lp4014
S':'
asbag57
(g78
g59
NtRp4015
(dp4016
g62
(dp4017
sg71
g4002
sg64
(lp4018
g57
(g58
g59
NtRp4019
(dp4020
g62
(dp4021
g70
I3
ssg71
g4015
sg64
(lp4022
S''
asbasbasbasbasbasbasbag57
(g73
g59
NtRp4023
(dp4024
g62
(dp4025
sg71
g3756
sg64
(lp4026
g57
(g78
g59
NtRp4027
(dp4028
g62
(dp4029
g82
g83
ssg71
g4023
sg64
(lp4030
S'user_groups'
p4031
asbag57
(g78
g59
NtRp4032
(dp4033
g62
(dp4034
g89
g90
ssg71
g4023
sg64
(lp4035
S':'
asbag57
(g78
g59
NtRp4036
(dp4037
g62
(dp4038
sg71
g4023
sg64
(lp4039
g57
(g58
g59
NtRp4040
(dp4041
g62
(dp4042
g70
I4
ssg71
g4036
sg64
(lp4043
g57
(g66
g59
NtRp4044
(dp4045
g62
(dp4046
g70
I3
ssg71
Nsg64
(lp4047
sbasbasbasbasbasbasbasbag57
(g73
g59
NtRp4048
(dp4049
g62
(dp4050
sg71
g3731
sg64
(lp4051
g57
(g78
g59
NtRp4052
(dp4053
g62
(dp4054
g82
g83
ssg71
g4048
sg64
(lp4055
S'flash'
p4056
asbag57
(g78
g59
NtRp4057
(dp4058
g62
(dp4059
g89
g90
ssg71
g4048
sg64
(lp4060
S':'
asbag57
(g78
g59
NtRp4061
(dp4062
g62
(dp4063
sg71
g4048
sg64
(lp4064
g57
(g58
g59
NtRp4065
(dp4066
g62
(dp4067
g70
I5
ssg71
g4061
sg64
(lp4068
S'None'
p4069
asbasbasbag57
(g73
g59
NtRp4070
(dp4071
g62
(dp4072
sg71
g3731
sg64
(lp4073
g57
(g78
g59
NtRp4074
(dp4075
g62
(dp4076
g82
g83
ssg71
g4070
sg64
(lp4077
S'last_orderby'
p4078
asbag57
(g78
g59
NtRp4079
(dp4080
g62
(dp4081
g89
g90
ssg71
g4070
sg64
(lp4082
S':'
asbag57
(g78
g59
NtRp4083
(dp4084
g62
(dp4085
sg71
g4070
sg64
(lp4086
g57
(g58
g59
NtRp4087
(dp4088
g62
(dp4089
g70
I5
ssg71
g4083
sg64
(lp4090
S'None'
p4091
asbasbasbag57
(g73
g59
NtRp4092
(dp4093
g62
(dp4094
sg71
g3731
sg64
(lp4095
g57
(g78
g59
NtRp4096
(dp4097
g62
(dp4098
g82
g83
ssg71
g4092
sg64
(lp4099
S'last_query'
p4100
asbag57
(g78
g59
NtRp4101
(dp4102
g62
(dp4103
g89
g90
ssg71
g4092
sg64
(lp4104
S':'
asbag57
(g78
g59
NtRp4105
(dp4106
g62
(dp4107
sg71
g4092
sg64
(lp4108
g57
(g58
g59
NtRp4109
(dp4110
g62
(dp4111
g70
I5
ssg71
g4105
sg64
(lp4112
S'db.auth_user.id>0'
p4113
asbasbasbasbasbsS'etype'
p4114
S"<type 'exceptions.TypeError'>"
p4115
sS'date'
p4116
S'Sat Apr 13 17:00:37 2013'
p4117
sS'response'
p4118
g57
(g58
g59
NtRp4119
(dp4120
g62
(dp4121
sg64
(lp4122
g57
(g66
g59
NtRp4123
(dp4124
g62
(dp4125
g70
I5
ssg71
Nsg64
(lp4126
g57
(g73
g59
NtRp4127
(dp4128
g62
(dp4129
sg71
g4123
sg64
(lp4130
g57
(g78
g59
NtRp4131
(dp4132
g62
(dp4133
g82
g83
ssg71
g4127
sg64
(lp4134
g155
asbag57
(g78
g59
NtRp4135
(dp4136
g62
(dp4137
g89
g90
ssg71
g4127
sg64
(lp4138
S':'
asbag57
(g78
g59
NtRp4139
(dp4140
g62
(dp4141
sg71
g4127
sg64
(lp4142
g57
(g58
g59
NtRp4143
(dp4144
g62
(dp4145
g70
I5
ssg71
g4139
sg64
(lp4146
S'<cStringIO.StringO object at 0x7fd6c42278f0>'
p4147
asbasbasbag57
(g73
g59
NtRp4148
(dp4149
g62
(dp4150
sg71
g4123
sg64
(lp4151
g57
(g78
g59
NtRp4152
(dp4153
g62
(dp4154
g82
g83
ssg71
g4148
sg64
(lp4155
g243
asbag57
(g78
g59
NtRp4156
(dp4157
g62
(dp4158
g89
g90
ssg71
g4148
sg64
(lp4159
S':'
asbag57
(g78
g59
NtRp4160
(dp4161
g62
(dp4162
sg71
g4148
sg64
(lp4163
g57
(g58
g59
NtRp4164
(dp4165
g62
(dp4166
g70
I5
ssg71
g4160
sg64
(lp4167
g57
(g66
g59
NtRp4168
(dp4169
g62
(dp4170
g70
I4
ssg71
Nsg64
(lp4171
g57
(g73
g59
NtRp4172
(dp4173
g62
(dp4174
sg71
g4168
sg64
(lp4175
g57
(g78
g59
NtRp4176
(dp4177
g62
(dp4178
g82
g83
ssg71
g4172
sg64
(lp4179
S'session_id_iiit_calendars'
p4180
asbag57
(g78
g59
NtRp4181
(dp4182
g62
(dp4183
g89
g90
ssg71
g4172
sg64
(lp4184
S':'
asbag57
(g78
g59
NtRp4185
(dp4186
g62
(dp4187
sg71
g4172
sg64
(lp4188
g57
(g58
g59
NtRp4189
(dp4190
g62
(dp4191
g70
I4
ssg71
g4185
sg64
(lp4192
g661
ag57
(g66
g59
NtRp4193
(dp4194
g62
(dp4195
g70
I3
ssg71
Nsg64
(lp4196
g57
(g73
g59
NtRp4197
(dp4198
g62
(dp4199
sg71
g4193
sg64
(lp4200
g57
(g78
g59
NtRp4201
(dp4202
g62
(dp4203
g82
g83
ssg71
g4197
sg64
(lp4204
g294
asbag57
(g78
g59
NtRp4205
(dp4206
g62
(dp4207
g89
g90
ssg71
g4197
sg64
(lp4208
S':'
asbag57
(g78
g59
NtRp4209
(dp4210
g62
(dp4211
sg71
g4197
sg64
(lp4212
g57
(g58
g59
NtRp4213
(dp4214
g62
(dp4215
g70
I3
ssg71
g4209
sg64
(lp4216
S''
asbasbasbag57
(g73
g59
NtRp4217
(dp4218
g62
(dp4219
sg71
g4193
sg64
(lp4220
g57
(g78
g59
NtRp4221
(dp4222
g62
(dp4223
g82
g83
ssg71
g4217
sg64
(lp4224
g315
asbag57
(g78
g59
NtRp4225
(dp4226
g62
(dp4227
g89
g90
ssg71
g4217
sg64
(lp4228
S':'
asbag57
(g78
g59
NtRp4229
(dp4230
g62
(dp4231
sg71
g4217
sg64
(lp4232
g57
(g58
g59
NtRp4233
(dp4234
g62
(dp4235
g70
I3
ssg71
g4229
sg64
(lp4236
S''
asbasbasbag57
(g73
g59
NtRp4237
(dp4238
g62
(dp4239
sg71
g4193
sg64
(lp4240
g57
(g78
g59
NtRp4241
(dp4242
g62
(dp4243
g82
g83
ssg71
g4237
sg64
(lp4244
g336
asbag57
(g78
g59
NtRp4245
(dp4246
g62
(dp4247
g89
g90
ssg71
g4237
sg64
(lp4248
S':'
asbag57
(g78
g59
NtRp4249
(dp4250
g62
(dp4251
sg71
g4237
sg64
(lp4252
g57
(g58
g59
NtRp4253
(dp4254
g62
(dp4255
g70
I3
ssg71
g4249
sg64
(lp4256
S''
asbasbasbag57
(g73
g59
NtRp4257
(dp4258
g62
(dp4259
sg71
g4193
sg64
(lp4260
g57
(g78
g59
NtRp4261
(dp4262
g62
(dp4263
g82
g83
ssg71
g4257
sg64
(lp4264
g357
asbag57
(g78
g59
NtRp4265
(dp4266
g62
(dp4267
g89
g90
ssg71
g4257
sg64
(lp4268
S':'
asbag57
(g78
g59
NtRp4269
(dp4270
g62
(dp4271
sg71
g4257
sg64
(lp4272
g57
(g58
g59
NtRp4273
(dp4274
g62
(dp4275
g70
I3
ssg71
g4269
sg64
(lp4276
S''
asbasbasbag57
(g73
g59
NtRp4277
(dp4278
g62
(dp4279
sg71
g4193
sg64
(lp4280
g57
(g78
g59
NtRp4281
(dp4282
g62
(dp4283
g82
g83
ssg71
g4277
sg64
(lp4284
g378
asbag57
(g78
g59
NtRp4285
(dp4286
g62
(dp4287
g89
g90
ssg71
g4277
sg64
(lp4288
S':'
asbag57
(g78
g59
NtRp4289
(dp4290
g62
(dp4291
sg71
g4277
sg64
(lp4292
g57
(g58
g59
NtRp4293
(dp4294
g62
(dp4295
g70
I3
ssg71
g4289
sg64
(lp4296
S''
asbasbasbag57
(g73
g59
NtRp4297
(dp4298
g62
(dp4299
sg71
g4193
sg64
(lp4300
g57
(g78
g59
NtRp4301
(dp4302
g62
(dp4303
g82
g83
ssg71
g4297
sg64
(lp4304
g399
asbag57
(g78
g59
NtRp4305
(dp4306
g62
(dp4307
g89
g90
ssg71
g4297
sg64
(lp4308
S':'
asbag57
(g78
g59
NtRp4309
(dp4310
g62
(dp4311
sg71
g4297
sg64
(lp4312
g57
(g58
g59
NtRp4313
(dp4314
g62
(dp4315
g70
I3
ssg71
g4309
sg64
(lp4316
S'/'
asbasbasbag57
(g73
g59
NtRp4317
(dp4318
g62
(dp4319
sg71
g4193
sg64
(lp4320
g57
(g78
g59
NtRp4321
(dp4322
g62
(dp4323
g82
g83
ssg71
g4317
sg64
(lp4324
g420
asbag57
(g78
g59
NtRp4325
(dp4326
g62
(dp4327
g89
g90
ssg71
g4317
sg64
(lp4328
S':'
asbag57
(g78
g59
NtRp4329
(dp4330
g62
(dp4331
sg71
g4317
sg64
(lp4332
g57
(g58
g59
NtRp4333
(dp4334
g62
(dp4335
g70
I3
ssg71
g4329
sg64
(lp4336
S''
asbasbasbag57
(g73
g59
NtRp4337
(dp4338
g62
(dp4339
sg71
g4193
sg64
(lp4340
g57
(g78
g59
NtRp4341
(dp4342
g62
(dp4343
g82
g83
ssg71
g4337
sg64
(lp4344
g441
asbag57
(g78
g59
NtRp4345
(dp4346
g62
(dp4347
g89
g90
ssg71
g4337
sg64
(lp4348
S':'
asbag57
(g78
g59
NtRp4349
(dp4350
g62
(dp4351
sg71
g4337
sg64
(lp4352
g57
(g58
g59
NtRp4353
(dp4354
g62
(dp4355
g70
I3
ssg71
g4349
sg64
(lp4356
S''
asbasbasbasbasbasbasbasbasbasbasbag57
(g73
g59
NtRp4357
(dp4358
g62
(dp4359
sg71
g4123
sg64
(lp4360
g57
(g78
g59
NtRp4361
(dp4362
g62
(dp4363
g82
g83
ssg71
g4357
sg64
(lp4364
S'delimiters'
p4365
asbag57
(g78
g59
NtRp4366
(dp4367
g62
(dp4368
g89
g90
ssg71
g4357
sg64
(lp4369
S':'
asbag57
(g78
g59
NtRp4370
(dp4371
g62
(dp4372
sg71
g4357
sg64
(lp4373
g57
(g58
g59
NtRp4374
(dp4375
g62
(dp4376
g70
I5
ssg71
g4370
sg64
(lp4377
g57
(g66
g59
NtRp4378
(dp4379
g62
(dp4380
g70
I4
ssg71
Nsg64
(lp4381
g57
(g73
g59
NtRp4382
(dp4383
g62
(dp4384
sg71
g4378
sg64
(lp4385
g57
(g78
g59
NtRp4386
(dp4387
g62
(dp4388
sg71
g4382
sg64
(lp4389
g57
(g58
g59
NtRp4390
(dp4391
g62
(dp4392
g70
I4
ssg71
g4386
sg64
(lp4393
S'{{'
p4394
asbasbasbag57
(g73
g59
NtRp4395
(dp4396
g62
(dp4397
sg71
g4378
sg64
(lp4398
g57
(g78
g59
NtRp4399
(dp4400
g62
(dp4401
sg71
g4395
sg64
(lp4402
g57
(g58
g59
NtRp4403
(dp4404
g62
(dp4405
g70
I4
ssg71
g4399
sg64
(lp4406
S'}}'
p4407
asbasbasbasbasbasbasbag57
(g73
g59
NtRp4408
(dp4409
g62
(dp4410
sg71
g4123
sg64
(lp4411
g57
(g78
g59
NtRp4412
(dp4413
g62
(dp4414
g82
g83
ssg71
g4408
sg64
(lp4415
S'files'
p4416
asbag57
(g78
g59
NtRp4417
(dp4418
g62
(dp4419
g89
g90
ssg71
g4408
sg64
(lp4420
S':'
asbag57
(g78
g59
NtRp4421
(dp4422
g62
(dp4423
sg71
g4408
sg64
(lp4424
g57
(g58
g59
NtRp4425
(dp4426
g62
(dp4427
g70
I5
ssg71
g4421
sg64
(lp4428
g57
(g66
g59
NtRp4429
(dp4430
g62
(dp4431
g70
I4
ssg71
Nsg64
(lp4432
sbasbasbasbag57
(g73
g59
NtRp4433
(dp4434
g62
(dp4435
sg71
g4123
sg64
(lp4436
g57
(g78
g59
NtRp4437
(dp4438
g62
(dp4439
g82
g83
ssg71
g4433
sg64
(lp4440
S'flash'
p4441
asbag57
(g78
g59
NtRp4442
(dp4443
g62
(dp4444
g89
g90
ssg71
g4433
sg64
(lp4445
S':'
asbag57
(g78
g59
NtRp4446
(dp4447
g62
(dp4448
sg71
g4433
sg64
(lp4449
g57
(g58
g59
NtRp4450
(dp4451
g62
(dp4452
g70
I5
ssg71
g4446
sg64
(lp4453
S''
asbasbasbag57
(g73
g59
NtRp4454
(dp4455
g62
(dp4456
sg71
g4123
sg64
(lp4457
g57
(g78
g59
NtRp4458
(dp4459
g62
(dp4460
g82
g83
ssg71
g4454
sg64
(lp4461
S'generic_patterns'
p4462
asbag57
(g78
g59
NtRp4463
(dp4464
g62
(dp4465
g89
g90
ssg71
g4454
sg64
(lp4466
S':'
asbag57
(g78
g59
NtRp4467
(dp4468
g62
(dp4469
sg71
g4454
sg64
(lp4470
g57
(g58
g59
NtRp4471
(dp4472
g62
(dp4473
g70
I5
ssg71
g4467
sg64
(lp4474
g57
(g66
g59
NtRp4475
(dp4476
g62
(dp4477
g70
I4
ssg71
Nsg64
(lp4478
g57
(g73
g59
NtRp4479
(dp4480
g62
(dp4481
sg71
g4475
sg64
(lp4482
g57
(g78
g59
NtRp4483
(dp4484
g62
(dp4485
sg71
g4479
sg64
(lp4486
g57
(g58
g59
NtRp4487
(dp4488
g62
(dp4489
g70
I4
ssg71
g4483
sg64
(lp4490
S'*'
asbasbasbasbasbasbasbag57
(g73
g59
NtRp4491
(dp4492
g62
(dp4493
sg71
g4123
sg64
(lp4494
g57
(g78
g59
NtRp4495
(dp4496
g62
(dp4497
g82
g83
ssg71
g4491
sg64
(lp4498
S'google_analytics_id'
p4499
asbag57
(g78
g59
NtRp4500
(dp4501
g62
(dp4502
g89
g90
ssg71
g4491
sg64
(lp4503
S':'
asbag57
(g78
g59
NtRp4504
(dp4505
g62
(dp4506
sg71
g4491
sg64
(lp4507
g57
(g58
g59
NtRp4508
(dp4509
g62
(dp4510
g70
I5
ssg71
g4504
sg64
(lp4511
S'None'
p4512
asbasbasbag57
(g73
g59
NtRp4513
(dp4514
g62
(dp4515
sg71
g4123
sg64
(lp4516
g57
(g78
g59
NtRp4517
(dp4518
g62
(dp4519
g82
g83
ssg71
g4513
sg64
(lp4520
S'headers'
p4521
asbag57
(g78
g59
NtRp4522
(dp4523
g62
(dp4524
g89
g90
ssg71
g4513
sg64
(lp4525
S':'
asbag57
(g78
g59
NtRp4526
(dp4527
g62
(dp4528
sg71
g4513
sg64
(lp4529
g57
(g58
g59
NtRp4530
(dp4531
g62
(dp4532
g70
I5
ssg71
g4526
sg64
(lp4533
g57
(g66
g59
NtRp4534
(dp4535
g62
(dp4536
g70
I4
ssg71
Nsg64
(lp4537
g57
(g73
g59
NtRp4538
(dp4539
g62
(dp4540
sg71
g4534
sg64
(lp4541
g57
(g78
g59
NtRp4542
(dp4543
g62
(dp4544
g82
g83
ssg71
g4538
sg64
(lp4545
S'X-Powered-By'
p4546
asbag57
(g78
g59
NtRp4547
(dp4548
g62
(dp4549
g89
g90
ssg71
g4538
sg64
(lp4550
S':'
asbag57
(g78
g59
NtRp4551
(dp4552
g62
(dp4553
sg71
g4538
sg64
(lp4554
g57
(g58
g59
NtRp4555
(dp4556
g62
(dp4557
g70
I4
ssg71
g4551
sg64
(lp4558
S'web2py'
p4559
asbasbasbasbasbasbasbag57
(g73
g59
NtRp4560
(dp4561
g62
(dp4562
sg71
g4123
sg64
(lp4563
g57
(g78
g59
NtRp4564
(dp4565
g62
(dp4566
g82
g83
ssg71
g4560
sg64
(lp4567
S'logo'
p4568
asbag57
(g78
g59
NtRp4569
(dp4570
g62
(dp4571
g89
g90
ssg71
g4560
sg64
(lp4572
S':'
asbag57
(g78
g59
NtRp4573
(dp4574
g62
(dp4575
sg71
g4560
sg64
(lp4576
g57
(g58
g59
NtRp4577
(dp4578
g62
(dp4579
g70
I5
ssg71
g4573
sg64
(lp4580
g57
(cgluon.html
A
p4581
g59
NtRp4582
(dp4583
g62
(dp4584
S'_class'
p4585
S'brand'
p4586
sS'_href'
p4587
S'http://www.web2py.com/'
p4588
ssg71
Nsg64
(lp4589
g57
(cgluon.html
B
p4590
g59
NtRp4591
(dp4592
g62
(dp4593
sg71
g4582
sg64
(lp4594
S'web'
p4595
ag57
(cgluon.html
SPAN
p4596
g59
NtRp4597
(dp4598
g62
(dp4599
sg71
g4591
sg64
(lp4600
I2
asbaS'py'
p4601
asbacgluon.html
XML_unpickle
p4602
(S's\r\x00\x00\x00&trade;&nbsp;'
tRp4603
asbasbasbasbag57
(g73
g59
NtRp4604
(dp4605
g62
(dp4606
sg71
g4123
sg64
(lp4607
g57
(g78
g59
NtRp4608
(dp4609
g62
(dp4610
g82
g83
ssg71
g4604
sg64
(lp4611
S'menu'
p4612
asbag57
(g78
g59
NtRp4613
(dp4614
g62
(dp4615
g89
g90
ssg71
g4604
sg64
(lp4616
S':'
asbag57
(g78
g59
NtRp4617
(dp4618
g62
(dp4619
sg71
g4604
sg64
(lp4620
g57
(g58
g59
NtRp4621
(dp4622
g62
(dp4623
g70
I5
ssg71
g4617
sg64
(lp4624
g57
(g66
g59
NtRp4625
(dp4626
g62
(dp4627
g70
I4
ssg71
Nsg64
(lp4628
g57
(g73
g59
NtRp4629
(dp4630
g62
(dp4631
sg71
g4625
sg64
(lp4632
g57
(g78
g59
NtRp4633
(dp4634
g62
(dp4635
sg71
g4629
sg64
(lp4636
g57
(g58
g59
NtRp4637
(dp4638
g62
(dp4639
g70
I4
ssg71
g4633
sg64
(lp4640
g57
(g66
g59
NtRp4641
(dp4642
g62
(dp4643
g70
I3
ssg71
Nsg64
(lp4644
g57
(g73
g59
NtRp4645
(dp4646
g62
(dp4647
sg71
g4641
sg64
(lp4648
g57
(g78
g59
NtRp4649
(dp4650
g62
(dp4651
sg71
g4645
sg64
(lp4652
g57
(g58
g59
NtRp4653
(dp4654
g62
(dp4655
g70
I3
ssg71
g4649
sg64
(lp4656
cgluon.languages
lazyT_unpickle
p4657
(S's\x04\x00\x00\x00Home'
tRp4658
asbasbasbag57
(g73
g59
NtRp4659
(dp4660
g62
(dp4661
sg71
g4641
sg64
(lp4662
g57
(g78
g59
NtRp4663
(dp4664
g62
(dp4665
sg71
g4659
sg64
(lp4666
g57
(g58
g59
NtRp4667
(dp4668
g62
(dp4669
g70
I3
ssg71
g4663
sg64
(lp4670
g100
asbasbasbag57
(g73
g59
NtRp4671
(dp4672
g62
(dp4673
sg71
g4641
sg64
(lp4674
g57
(g78
g59
NtRp4675
(dp4676
g62
(dp4677
sg71
g4671
sg64
(lp4678
g57
(g58
g59
NtRp4679
(dp4680
g62
(dp4681
g70
I3
ssg71
g4675
sg64
(lp4682
S'/IIIT_calendars/default/index'
p4683
asbasbasbag57
(g73
g59
NtRp4684
(dp4685
g62
(dp4686
sg71
g4641
sg64
(lp4687
g57
(g78
g59
NtRp4688
(dp4689
g62
(dp4690
sg71
g4684
sg64
(lp4691
g57
(g58
g59
NtRp4692
(dp4693
g62
(dp4694
g70
I3
ssg71
g4688
sg64
(lp4695
g57
(g66
g59
NtRp4696
(dp4697
g62
(dp4698
g70
I2
ssg71
Nsg64
(lp4699
sbasbasbasbasbasbasbasbag57
(g73
g59
NtRp4700
(dp4701
g62
(dp4702
sg71
g4625
sg64
(lp4703
g57
(g78
g59
NtRp4704
(dp4705
g62
(dp4706
sg71
g4700
sg64
(lp4707
g57
(g58
g59
NtRp4708
(dp4709
g62
(dp4710
g70
I4
ssg71
g4704
sg64
(lp4711
g57
(g66
g59
NtRp4712
(dp4713
g62
(dp4714
g70
I3
ssg71
Nsg64
(lp4715
g57
(g73
g59
NtRp4716
(dp4717
g62
(dp4718
sg71
g4712
sg64
(lp4719
g57
(g78
g59
NtRp4720
(dp4721
g62
(dp4722
sg71
g4716
sg64
(lp4723
g57
(g58
g59
NtRp4724
(dp4725
g62
(dp4726
g70
I3
ssg71
g4720
sg64
(lp4727
g57
(g4596
g59
NtRp4728
(dp4729
g62
(dp4730
g4585
S'highlighted'
p4731
ssg71
Nsg64
(lp4732
g4559
asbasbasbasbag57
(g73
g59
NtRp4733
(dp4734
g62
(dp4735
sg71
g4712
sg64
(lp4736
g57
(g78
g59
NtRp4737
(dp4738
g62
(dp4739
sg71
g4733
sg64
(lp4740
g57
(g58
g59
NtRp4741
(dp4742
g62
(dp4743
g70
I3
ssg71
g4737
sg64
(lp4744
g100
asbasbasbag57
(g73
g59
NtRp4745
(dp4746
g62
(dp4747
sg71
g4712
sg64
(lp4748
g57
(g78
g59
NtRp4749
(dp4750
g62
(dp4751
sg71
g4745
sg64
(lp4752
g57
(g58
g59
NtRp4753
(dp4754
g62
(dp4755
g70
I3
ssg71
g4749
sg64
(lp4756
S'http://web2py.com'
p4757
asbasbasbag57
(g73
g59
NtRp4758
(dp4759
g62
(dp4760
sg71
g4712
sg64
(lp4761
g57
(g78
g59
NtRp4762
(dp4763
g62
(dp4764
sg71
g4758
sg64
(lp4765
g57
(g58
g59
NtRp4766
(dp4767
g62
(dp4768
g70
I3
ssg71
g4762
sg64
(lp4769
g57
(g66
g59
NtRp4770
(dp4771
g62
(dp4772
g70
I2
ssg71
Nsg64
(lp4773
g57
(g73
g59
NtRp4774
(dp4775
g62
(dp4776
sg71
g4770
sg64
(lp4777
g57
(g78
g59
NtRp4778
(dp4779
g62
(dp4780
sg71
g4774
sg64
(lp4781
g57
(g58
g59
NtRp4782
(dp4783
g62
(dp4784
g70
I2
ssg71
g4778
sg64
(lp4785
g57
(g66
g59
NtRp4786
(dp4787
g62
(dp4788
g70
I1
ssg71
Nsg64
(lp4789
g57
(g73
g59
NtRp4790
(dp4791
g62
(dp4792
sg71
g4786
sg64
(lp4793
g57
(g78
g59
NtRp4794
(dp4795
g62
(dp4796
sg71
g4790
sg64
(lp4797
g57
(g58
g59
NtRp4798
(dp4799
g62
(dp4800
g70
I1
ssg71
g4794
sg64
(lp4801
g4657
(S's\x08\x00\x00\x00My Sites'
tRp4802
asbasbasbag57
(g73
g59
NtRp4803
(dp4804
g62
(dp4805
sg71
g4786
sg64
(lp4806
g57
(g78
g59
NtRp4807
(dp4808
g62
(dp4809
sg71
g4803
sg64
(lp4810
g57
(g58
g59
NtRp4811
(dp4812
g62
(dp4813
g70
I1
ssg71
g4807
sg64
(lp4814
I00
asbasbasbag57
(g73
g59
NtRp4815
(dp4816
g62
(dp4817
sg71
g4786
sg64
(lp4818
g57
(g78
g59
NtRp4819
(dp4820
g62
(dp4821
sg71
g4815
sg64
(lp4822
g57
(g58
g59
NtRp4823
(dp4824
g62
(dp4825
g70
I1
ssg71
g4819
sg64
(lp4826
S'/admin/default/site'
p4827
asbasbasbasbasbasbasbag57
(g73
g59
NtRp4828
(dp4829
g62
(dp4830
sg71
g4770
sg64
(lp4831
g57
(g78
g59
NtRp4832
(dp4833
g62
(dp4834
sg71
g4828
sg64
(lp4835
g57
(g58
g59
NtRp4836
(dp4837
g62
(dp4838
g70
I2
ssg71
g4832
sg64
(lp4839
g57
(g66
g59
NtRp4840
(dp4841
g62
(dp4842
g70
I1
ssg71
Nsg64
(lp4843
g57
(g73
g59
NtRp4844
(dp4845
g62
(dp4846
sg71
g4840
sg64
(lp4847
g57
(g78
g59
NtRp4848
(dp4849
g62
(dp4850
sg71
g4844
sg64
(lp4851
g57
(g58
g59
NtRp4852
(dp4853
g62
(dp4854
g70
I1
ssg71
g4848
sg64
(lp4855
g4657
(S's\x08\x00\x00\x00This App'
tRp4856
asbasbasbag57
(g73
g59
NtRp4857
(dp4858
g62
(dp4859
sg71
g4840
sg64
(lp4860
g57
(g78
g59
NtRp4861
(dp4862
g62
(dp4863
sg71
g4857
sg64
(lp4864
g57
(g58
g59
NtRp4865
(dp4866
g62
(dp4867
g70
I1
ssg71
g4861
sg64
(lp4868
I00
asbasbasbag57
(g73
g59
NtRp4869
(dp4870
g62
(dp4871
sg71
g4840
sg64
(lp4872
g57
(g78
g59
NtRp4873
(dp4874
g62
(dp4875
sg71
g4869
sg64
(lp4876
g57
(g58
g59
NtRp4877
(dp4878
g62
(dp4879
g70
I1
ssg71
g4873
sg64
(lp4880
S'/admin/default/design/IIIT_calendars'
p4881
asbasbasbag57
(g73
g59
NtRp4882
(dp4883
g62
(dp4884
sg71
g4840
sg64
(lp4885
g57
(g78
g59
NtRp4886
(dp4887
g62
(dp4888
sg71
g4882
sg64
(lp4889
g57
(g58
g59
NtRp4890
(dp4891
g62
(dp4892
g70
I1
ssg71
g4886
sg64
(lp4893
(lp4894
(g4657
(S's\n\x00\x00\x00Controller'
tRp4895
I00
S'/admin/default/edit/IIIT_calendars/controllers/default.py'
tp4896
a(g4657
(S's\x04\x00\x00\x00View'
tRp4897
I00
S'/admin/default/edit/IIIT_calendars/views/default/admin_calendar.html'
tp4898
a(g4657
(S's\x06\x00\x00\x00Layout'
tRp4899
I00
S'/admin/default/edit/IIIT_calendars/views/layout.html'
tp4900
a(g4657
(S's\n\x00\x00\x00Stylesheet'
tRp4901
I00
S'/admin/default/edit/IIIT_calendars/static/css/web2py.css'
tp4902
a(g4657
(S's\x08\x00\x00\x00DB Model'
tRp4903
I00
S'/admin/default/edit/IIIT_calendars/models/db.py'
tp4904
a(g4657
(S's\n\x00\x00\x00Menu Model'
tRp4905
I00
S'/admin/default/edit/IIIT_calendars/models/menu.py'
tp4906
a(g4657
(S's\x08\x00\x00\x00Database'
tRp4907
I00
S'/IIIT_calendars/appadmin/index'
tp4908
a(g4657
(S's\x06\x00\x00\x00Errors'
tRp4909
I00
S'/admin/default/errors/IIIT_calendars'
tp4910
a(g4657
(S's\x05\x00\x00\x00About'
tRp4911
I00
S'/admin/default/about/IIIT_calendars'
tp4912
aasbasbasbasbasbasbasbag57
(g73
g59
NtRp4913
(dp4914
g62
(dp4915
sg71
g4770
sg64
(lp4916
g57
(g78
g59
NtRp4917
(dp4918
g62
(dp4919
sg71
g4913
sg64
(lp4920
g57
(g58
g59
NtRp4921
(dp4922
g62
(dp4923
g70
I2
ssg71
g4917
sg64
(lp4924
g57
(g66
g59
NtRp4925
(dp4926
g62
(dp4927
g70
I1
ssg71
Nsg64
(lp4928
g57
(g73
g59
NtRp4929
(dp4930
g62
(dp4931
sg71
g4925
sg64
(lp4932
g57
(g78
g59
NtRp4933
(dp4934
g62
(dp4935
sg71
g4929
sg64
(lp4936
g57
(g58
g59
NtRp4937
(dp4938
g62
(dp4939
g70
I1
ssg71
g4933
sg64
(lp4940
S'web2py.com'
p4941
asbasbasbag57
(g73
g59
NtRp4942
(dp4943
g62
(dp4944
sg71
g4925
sg64
(lp4945
g57
(g78
g59
NtRp4946
(dp4947
g62
(dp4948
sg71
g4942
sg64
(lp4949
g57
(g58
g59
NtRp4950
(dp4951
g62
(dp4952
g70
I1
ssg71
g4946
sg64
(lp4953
I00
asbasbasbag57
(g73
g59
NtRp4954
(dp4955
g62
(dp4956
sg71
g4925
sg64
(lp4957
g57
(g78
g59
NtRp4958
(dp4959
g62
(dp4960
sg71
g4954
sg64
(lp4961
g57
(g58
g59
NtRp4962
(dp4963
g62
(dp4964
g70
I1
ssg71
g4958
sg64
(lp4965
S'http://www.web2py.com'
p4966
asbasbasbag57
(g73
g59
NtRp4967
(dp4968
g62
(dp4969
sg71
g4925
sg64
(lp4970
g57
(g78
g59
NtRp4971
(dp4972
g62
(dp4973
sg71
g4967
sg64
(lp4974
g57
(g58
g59
NtRp4975
(dp4976
g62
(dp4977
g70
I1
ssg71
g4971
sg64
(lp4978
(lp4979
(g4657
(S's\x08\x00\x00\x00Download'
tRp4980
I00
S'http://www.web2py.com/examples/default/download'
p4981
tp4982
a(g4657
(S's\x07\x00\x00\x00Support'
tRp4983
I00
S'http://www.web2py.com/examples/default/support'
p4984
tp4985
a(g4657
(S's\x04\x00\x00\x00Demo'
tRp4986
I00
S'http://web2py.com/demo_admin'
p4987
tp4988
a(g4657
(S's\x0e\x00\x00\x00Quick Examples'
tRp4989
I00
S'http://web2py.com/examples/default/examples'
p4990
tp4991
a(g4657
(S's\x03\x00\x00\x00FAQ'
tRp4992
I00
S'http://web2py.com/AlterEgo'
p4993
tp4994
a(g4657
(S's\x06\x00\x00\x00Videos'
tRp4995
I00
S'http://www.web2py.com/examples/default/videos/'
p4996
tp4997
a(g4657
(S's\x11\x00\x00\x00Free Applications'
tRp4998
I00
S'http://web2py.com/appliances'
p4999
tp5000
a(g4657
(S's\x07\x00\x00\x00Plugins'
tRp5001
I00
S'http://web2py.com/plugins'
p5002
tp5003
a(g4657
(S's\x07\x00\x00\x00Layouts'
tRp5004
I00
S'http://web2py.com/layouts'
p5005
tp5006
a(g4657
(S's\x07\x00\x00\x00Recipes'
tRp5007
I00
S'http://web2pyslices.com/'
p5008
tp5009
a(g4657
(S's\x08\x00\x00\x00Semantic'
tRp5010
I00
S'http://web2py.com/semantic'
p5011
tp5012
aasbasbasbasbasbasbasbag57
(g73
g59
NtRp5013
(dp5014
g62
(dp5015
sg71
g4770
sg64
(lp5016
g57
(g78
g59
NtRp5017
(dp5018
g62
(dp5019
sg71
g5013
sg64
(lp5020
g57
(g58
g59
NtRp5021
(dp5022
g62
(dp5023
g70
I2
ssg71
g5017
sg64
(lp5024
g57
(g66
g59
NtRp5025
(dp5026
g62
(dp5027
g70
I1
ssg71
Nsg64
(lp5028
g57
(g73
g59
NtRp5029
(dp5030
g62
(dp5031
sg71
g5025
sg64
(lp5032
g57
(g78
g59
NtRp5033
(dp5034
g62
(dp5035
sg71
g5029
sg64
(lp5036
g57
(g58
g59
NtRp5037
(dp5038
g62
(dp5039
g70
I1
ssg71
g5033
sg64
(lp5040
g4657
(S's\r\x00\x00\x00Documentation'
tRp5041
asbasbasbag57
(g73
g59
NtRp5042
(dp5043
g62
(dp5044
sg71
g5025
sg64
(lp5045
g57
(g78
g59
NtRp5046
(dp5047
g62
(dp5048
sg71
g5042
sg64
(lp5049
g57
(g58
g59
NtRp5050
(dp5051
g62
(dp5052
g70
I1
ssg71
g5046
sg64
(lp5053
I00
asbasbasbag57
(g73
g59
NtRp5054
(dp5055
g62
(dp5056
sg71
g5025
sg64
(lp5057
g57
(g78
g59
NtRp5058
(dp5059
g62
(dp5060
sg71
g5054
sg64
(lp5061
g57
(g58
g59
NtRp5062
(dp5063
g62
(dp5064
g70
I1
ssg71
g5058
sg64
(lp5065
S'http://www.web2py.com/book'
p5066
asbasbasbag57
(g73
g59
NtRp5067
(dp5068
g62
(dp5069
sg71
g5025
sg64
(lp5070
g57
(g78
g59
NtRp5071
(dp5072
g62
(dp5073
sg71
g5067
sg64
(lp5074
g57
(g58
g59
NtRp5075
(dp5076
g62
(dp5077
g70
I1
ssg71
g5071
sg64
(lp5078
(lp5079
(g4657
(S's\x07\x00\x00\x00Preface'
tRp5080
I00
S'http://www.web2py.com/book/default/chapter/00'
p5081
tp5082
a(g4657
(S's\x0c\x00\x00\x00Introduction'
tRp5083
I00
S'http://www.web2py.com/book/default/chapter/01'
p5084
tp5085
a(g4657
(S's\x06\x00\x00\x00Python'
tRp5086
I00
S'http://www.web2py.com/book/default/chapter/02'
p5087
tp5088
a(g4657
(S's\x08\x00\x00\x00Overview'
tRp5089
I00
S'http://www.web2py.com/book/default/chapter/03'
p5090
tp5091
a(g4657
(S's\x08\x00\x00\x00The Core'
tRp5092
I00
S'http://www.web2py.com/book/default/chapter/04'
p5093
tp5094
a(g4657
(S's\t\x00\x00\x00The Views'
tRp5095
I00
S'http://www.web2py.com/book/default/chapter/05'
p5096
tp5097
a(g4657
(S's\x08\x00\x00\x00Database'
tRp5098
I00
S'http://www.web2py.com/book/default/chapter/06'
p5099
tp5100
a(g4657
(S's\x14\x00\x00\x00Forms and Validators'
tRp5101
I00
S'http://www.web2py.com/book/default/chapter/07'
p5102
tp5103
a(g4657
(S's\r\x00\x00\x00Email and SMS'
tRp5104
I00
S'http://www.web2py.com/book/default/chapter/08'
p5105
tp5106
a(g4657
(S's\x0e\x00\x00\x00Access Control'
tRp5107
I00
S'http://www.web2py.com/book/default/chapter/09'
p5108
tp5109
a(g4657
(S's\x08\x00\x00\x00Services'
tRp5110
I00
S'http://www.web2py.com/book/default/chapter/10'
p5111
tp5112
a(g4657
(S's\x0c\x00\x00\x00Ajax Recipes'
tRp5113
I00
S'http://www.web2py.com/book/default/chapter/11'
p5114
tp5115
a(g4657
(S's\x16\x00\x00\x00Components and Plugins'
tRp5116
I00
S'http://www.web2py.com/book/default/chapter/12'
p5117
tp5118
a(g4657
(S's\x12\x00\x00\x00Deployment Recipes'
tRp5119
I00
S'http://www.web2py.com/book/default/chapter/13'
p5120
tp5121
a(g4657
(S's\r\x00\x00\x00Other Recipes'
tRp5122
I00
S'http://www.web2py.com/book/default/chapter/14'
p5123
tp5124
a(g4657
(S's\r\x00\x00\x00Buy this book'
tRp5125
I00
S'http://stores.lulu.com/web2py'
p5126
tp5127
aasbasbasbasbasbasbasbag57
(g73
g59
NtRp5128
(dp5129
g62
(dp5130
sg71
g4770
sg64
(lp5131
g57
(g78
g59
NtRp5132
(dp5133
g62
(dp5134
sg71
g5128
sg64
(lp5135
g57
(g58
g59
NtRp5136
(dp5137
g62
(dp5138
g70
I2
ssg71
g5132
sg64
(lp5139
g57
(g66
g59
NtRp5140
(dp5141
g62
(dp5142
g70
I1
ssg71
Nsg64
(lp5143
g57
(g73
g59
NtRp5144
(dp5145
g62
(dp5146
sg71
g5140
sg64
(lp5147
g57
(g78
g59
NtRp5148
(dp5149
g62
(dp5150
sg71
g5144
sg64
(lp5151
g57
(g58
g59
NtRp5152
(dp5153
g62
(dp5154
g70
I1
ssg71
g5148
sg64
(lp5155
g4657
(S's\t\x00\x00\x00Community'
tRp5156
asbasbasbag57
(g73
g59
NtRp5157
(dp5158
g62
(dp5159
sg71
g5140
sg64
(lp5160
g57
(g78
g59
NtRp5161
(dp5162
g62
(dp5163
sg71
g5157
sg64
(lp5164
g57
(g58
g59
NtRp5165
(dp5166
g62
(dp5167
g70
I1
ssg71
g5161
sg64
(lp5168
I00
asbasbasbag57
(g73
g59
NtRp5169
(dp5170
g62
(dp5171
sg71
g5140
sg64
(lp5172
g57
(g78
g59
NtRp5173
(dp5174
g62
(dp5175
sg71
g5169
sg64
(lp5176
g57
(g58
g59
NtRp5177
(dp5178
g62
(dp5179
g70
I1
ssg71
g5173
sg64
(lp5180
Nasbasbasbag57
(g73
g59
NtRp5181
(dp5182
g62
(dp5183
sg71
g5140
sg64
(lp5184
g57
(g78
g59
NtRp5185
(dp5186
g62
(dp5187
sg71
g5181
sg64
(lp5188
g57
(g58
g59
NtRp5189
(dp5190
g62
(dp5191
g70
I1
ssg71
g5185
sg64
(lp5192
(lp5193
(g4657
(S's\x06\x00\x00\x00Groups'
tRp5194
I00
S'http://www.web2py.com/examples/default/usergroups'
p5195
tp5196
a(g4657
(S's\x07\x00\x00\x00Twitter'
tRp5197
I00
S'http://twitter.com/web2py'
p5198
tp5199
a(g4657
(S's\t\x00\x00\x00Live Chat'
tRp5200
I00
S'http://webchat.freenode.net/?channels=web2py'
p5201
tp5202
aasbasbasbasbasbasbasbag57
(g73
g59
NtRp5203
(dp5204
g62
(dp5205
sg71
g4770
sg64
(lp5206
g57
(g78
g59
NtRp5207
(dp5208
g62
(dp5209
sg71
g5203
sg64
(lp5210
g57
(g58
g59
NtRp5211
(dp5212
g62
(dp5213
g70
I2
ssg71
g5207
sg64
(lp5214
g57
(g66
g59
NtRp5215
(dp5216
g62
(dp5217
g70
I1
ssg71
Nsg64
(lp5218
g57
(g73
g59
NtRp5219
(dp5220
g62
(dp5221
sg71
g5215
sg64
(lp5222
g57
(g78
g59
NtRp5223
(dp5224
g62
(dp5225
sg71
g5219
sg64
(lp5226
g57
(g58
g59
NtRp5227
(dp5228
g62
(dp5229
g70
I1
ssg71
g5223
sg64
(lp5230
g4657
(S's\x07\x00\x00\x00Plugins'
tRp5231
asbasbasbag57
(g73
g59
NtRp5232
(dp5233
g62
(dp5234
sg71
g5215
sg64
(lp5235
g57
(g78
g59
NtRp5236
(dp5237
g62
(dp5238
sg71
g5232
sg64
(lp5239
g57
(g58
g59
NtRp5240
(dp5241
g62
(dp5242
g70
I1
ssg71
g5236
sg64
(lp5243
I00
asbasbasbag57
(g73
g59
NtRp5244
(dp5245
g62
(dp5246
sg71
g5215
sg64
(lp5247
g57
(g78
g59
NtRp5248
(dp5249
g62
(dp5250
sg71
g5244
sg64
(lp5251
g57
(g58
g59
NtRp5252
(dp5253
g62
(dp5254
g70
I1
ssg71
g5248
sg64
(lp5255
Nasbasbasbag57
(g73
g59
NtRp5256
(dp5257
g62
(dp5258
sg71
g5215
sg64
(lp5259
g57
(g78
g59
NtRp5260
(dp5261
g62
(dp5262
sg71
g5256
sg64
(lp5263
g57
(g58
g59
NtRp5264
(dp5265
g62
(dp5266
g70
I1
ssg71
g5260
sg64
(lp5267
(lp5268
(S'plugin_wiki'
p5269
I00
S'http://web2py.com/examples/default/download'
p5270
tp5271
a(g4657
(S's\r\x00\x00\x00Other Plugins'
tRp5272
I00
g5002
tp5273
a(g4657
(S's\x0e\x00\x00\x00Layout Plugins'
tRp5274
I00
g5005
tp5275
aasbasbasbasbasbasbasbasbasbasbasbasbasbasbasbasbasbasbasbag57
(g73
g59
NtRp5276
(dp5277
g62
(dp5278
sg71
g4123
sg64
(lp5279
g57
(g78
g59
NtRp5280
(dp5281
g62
(dp5282
g82
g83
ssg71
g5276
sg64
(lp5283
S'meta'
p5284
asbag57
(g78
g59
NtRp5285
(dp5286
g62
(dp5287
g89
g90
ssg71
g5276
sg64
(lp5288
S':'
asbag57
(g78
g59
NtRp5289
(dp5290
g62
(dp5291
sg71
g5276
sg64
(lp5292
g57
(g58
g59
NtRp5293
(dp5294
g62
(dp5295
g70
I5
ssg71
g5289
sg64
(lp5296
g57
(g66
g59
NtRp5297
(dp5298
g62
(dp5299
g70
I4
ssg71
Nsg64
(lp5300
g57
(g73
g59
NtRp5301
(dp5302
g62
(dp5303
sg71
g5297
sg64
(lp5304
g57
(g78
g59
NtRp5305
(dp5306
g62
(dp5307
g82
g83
ssg71
g5301
sg64
(lp5308
S'author'
p5309
asbag57
(g78
g59
NtRp5310
(dp5311
g62
(dp5312
g89
g90
ssg71
g5301
sg64
(lp5313
S':'
asbag57
(g78
g59
NtRp5314
(dp5315
g62
(dp5316
sg71
g5301
sg64
(lp5317
g57
(g58
g59
NtRp5318
(dp5319
g62
(dp5320
g70
I4
ssg71
g5314
sg64
(lp5321
S'Your Name <you@example.com>'
p5322
asbasbasbag57
(g73
g59
NtRp5323
(dp5324
g62
(dp5325
sg71
g5297
sg64
(lp5326
g57
(g78
g59
NtRp5327
(dp5328
g62
(dp5329
g82
g83
ssg71
g5323
sg64
(lp5330
S'description'
p5331
asbag57
(g78
g59
NtRp5332
(dp5333
g62
(dp5334
g89
g90
ssg71
g5323
sg64
(lp5335
S':'
asbag57
(g78
g59
NtRp5336
(dp5337
g62
(dp5338
sg71
g5323
sg64
(lp5339
g57
(g58
g59
NtRp5340
(dp5341
g62
(dp5342
g70
I4
ssg71
g5336
sg64
(lp5343
S'a cool new app'
p5344
asbasbasbag57
(g73
g59
NtRp5345
(dp5346
g62
(dp5347
sg71
g5297
sg64
(lp5348
g57
(g78
g59
NtRp5349
(dp5350
g62
(dp5351
g82
g83
ssg71
g5345
sg64
(lp5352
S'generator'
p5353
asbag57
(g78
g59
NtRp5354
(dp5355
g62
(dp5356
g89
g90
ssg71
g5345
sg64
(lp5357
S':'
asbag57
(g78
g59
NtRp5358
(dp5359
g62
(dp5360
sg71
g5345
sg64
(lp5361
g57
(g58
g59
NtRp5362
(dp5363
g62
(dp5364
g70
I4
ssg71
g5358
sg64
(lp5365
S'Web2py Web Framework'
p5366
asbasbasbag57
(g73
g59
NtRp5367
(dp5368
g62
(dp5369
sg71
g5297
sg64
(lp5370
g57
(g78
g59
NtRp5371
(dp5372
g62
(dp5373
g82
g83
ssg71
g5367
sg64
(lp5374
S'keywords'
p5375
asbag57
(g78
g59
NtRp5376
(dp5377
g62
(dp5378
g89
g90
ssg71
g5367
sg64
(lp5379
S':'
asbag57
(g78
g59
NtRp5380
(dp5381
g62
(dp5382
sg71
g5367
sg64
(lp5383
g57
(g58
g59
NtRp5384
(dp5385
g62
(dp5386
g70
I4
ssg71
g5380
sg64
(lp5387
S'web2py, python, framework'
p5388
asbasbasbasbasbasbasbag57
(g73
g59
NtRp5389
(dp5390
g62
(dp5391
sg71
g4123
sg64
(lp5392
g57
(g78
g59
NtRp5393
(dp5394
g62
(dp5395
g82
g83
ssg71
g5389
sg64
(lp5396
S'models_to_run'
p5397
asbag57
(g78
g59
NtRp5398
(dp5399
g62
(dp5400
g89
g90
ssg71
g5389
sg64
(lp5401
S':'
asbag57
(g78
g59
NtRp5402
(dp5403
g62
(dp5404
sg71
g5389
sg64
(lp5405
g57
(g58
g59
NtRp5406
(dp5407
g62
(dp5408
g70
I5
ssg71
g5402
sg64
(lp5409
g57
(g66
g59
NtRp5410
(dp5411
g62
(dp5412
g70
I4
ssg71
Nsg64
(lp5413
g57
(g73
g59
NtRp5414
(dp5415
g62
(dp5416
sg71
g5410
sg64
(lp5417
g57
(g78
g59
NtRp5418
(dp5419
g62
(dp5420
sg71
g5414
sg64
(lp5421
g57
(g58
g59
NtRp5422
(dp5423
g62
(dp5424
g70
I4
ssg71
g5418
sg64
(lp5425
S'^\\w+\\.py$'
p5426
asbasbasbag57
(g73
g59
NtRp5427
(dp5428
g62
(dp5429
sg71
g5410
sg64
(lp5430
g57
(g78
g59
NtRp5431
(dp5432
g62
(dp5433
sg71
g5427
sg64
(lp5434
g57
(g58
g59
NtRp5435
(dp5436
g62
(dp5437
g70
I4
ssg71
g5431
sg64
(lp5438
S'^default/\\w+\\.py$'
p5439
asbasbasbag57
(g73
g59
NtRp5440
(dp5441
g62
(dp5442
sg71
g5410
sg64
(lp5443
g57
(g78
g59
NtRp5444
(dp5445
g62
(dp5446
sg71
g5440
sg64
(lp5447
g57
(g58
g59
NtRp5448
(dp5449
g62
(dp5450
g70
I4
ssg71
g5444
sg64
(lp5451
S'^default/admin_calendar/\\w+\\.py$'
p5452
asbasbasbasbasbasbasbag57
(g73
g59
NtRp5453
(dp5454
g62
(dp5455
sg71
g4123
sg64
(lp5456
g57
(g78
g59
NtRp5457
(dp5458
g62
(dp5459
g82
g83
ssg71
g5453
sg64
(lp5460
S'postprocessing'
p5461
asbag57
(g78
g59
NtRp5462
(dp5463
g62
(dp5464
g89
g90
ssg71
g5453
sg64
(lp5465
S':'
asbag57
(g78
g59
NtRp5466
(dp5467
g62
(dp5468
sg71
g5453
sg64
(lp5469
g57
(g58
g59
NtRp5470
(dp5471
g62
(dp5472
g70
I5
ssg71
g5466
sg64
(lp5473
g57
(g66
g59
NtRp5474
(dp5475
g62
(dp5476
g70
I4
ssg71
Nsg64
(lp5477
sbasbasbasbag57
(g73
g59
NtRp5478
(dp5479
g62
(dp5480
sg71
g4123
sg64
(lp5481
g57
(g78
g59
NtRp5482
(dp5483
g62
(dp5484
g82
g83
ssg71
g5478
sg64
(lp5485
S'session_cookie_expires'
p5486
asbag57
(g78
g59
NtRp5487
(dp5488
g62
(dp5489
g89
g90
ssg71
g5478
sg64
(lp5490
S':'
asbag57
(g78
g59
NtRp5491
(dp5492
g62
(dp5493
sg71
g5478
sg64
(lp5494
g57
(g58
g59
NtRp5495
(dp5496
g62
(dp5497
g70
I5
ssg71
g5491
sg64
(lp5498
S'None'
p5499
asbasbasbag57
(g73
g59
NtRp5500
(dp5501
g62
(dp5502
sg71
g4123
sg64
(lp5503
g57
(g78
g59
NtRp5504
(dp5505
g62
(dp5506
g82
g83
ssg71
g5500
sg64
(lp5507
S'session_data_name'
p5508
asbag57
(g78
g59
NtRp5509
(dp5510
g62
(dp5511
g89
g90
ssg71
g5500
sg64
(lp5512
S':'
asbag57
(g78
g59
NtRp5513
(dp5514
g62
(dp5515
sg71
g5500
sg64
(lp5516
g57
(g58
g59
NtRp5517
(dp5518
g62
(dp5519
g70
I5
ssg71
g5513
sg64
(lp5520
S'session_data_iiit_calendars'
p5521
asbasbasbag57
(g73
g59
NtRp5522
(dp5523
g62
(dp5524
sg71
g4123
sg64
(lp5525
g57
(g78
g59
NtRp5526
(dp5527
g62
(dp5528
g82
g83
ssg71
g5522
sg64
(lp5529
S'session_file'
p5530
asbag57
(g78
g59
NtRp5531
(dp5532
g62
(dp5533
g89
g90
ssg71
g5522
sg64
(lp5534
S':'
asbag57
(g78
g59
NtRp5535
(dp5536
g62
(dp5537
sg71
g5522
sg64
(lp5538
g57
(g58
g59
NtRp5539
(dp5540
g62
(dp5541
g70
I5
ssg71
g5535
sg64
(lp5542
S"<open file '/home/simran/web2py/applications/IIIT_calendars/sessions/127.0.0.1-a1d9d8aa-d618-411c-bf72-1b1bcb1390e8', mode 'rb+' at 0x7fd6b0179c90>"
p5543
asbasbasbag57
(g73
g59
NtRp5544
(dp5545
g62
(dp5546
sg71
g4123
sg64
(lp5547
g57
(g78
g59
NtRp5548
(dp5549
g62
(dp5550
g82
g83
ssg71
g5544
sg64
(lp5551
S'session_filename'
p5552
asbag57
(g78
g59
NtRp5553
(dp5554
g62
(dp5555
g89
g90
ssg71
g5544
sg64
(lp5556
S':'
asbag57
(g78
g59
NtRp5557
(dp5558
g62
(dp5559
sg71
g5544
sg64
(lp5560
g57
(g58
g59
NtRp5561
(dp5562
g62
(dp5563
g70
I5
ssg71
g5557
sg64
(lp5564
S'/home/simran/web2py/applications/IIIT_calendars/sessions/127.0.0.1-a1d9d8aa-d618-411c-bf72-1b1bcb1390e8'
p5565
asbasbasbag57
(g73
g59
NtRp5566
(dp5567
g62
(dp5568
sg71
g4123
sg64
(lp5569
g57
(g78
g59
NtRp5570
(dp5571
g62
(dp5572
g82
g83
ssg71
g5566
sg64
(lp5573
S'session_id'
p5574
asbag57
(g78
g59
NtRp5575
(dp5576
g62
(dp5577
g89
g90
ssg71
g5566
sg64
(lp5578
S':'
asbag57
(g78
g59
NtRp5579
(dp5580
g62
(dp5581
sg71
g5566
sg64
(lp5582
g57
(g58
g59
NtRp5583
(dp5584
g62
(dp5585
g70
I5
ssg71
g5579
sg64
(lp5586
g661
asbasbasbag57
(g73
g59
NtRp5587
(dp5588
g62
(dp5589
sg71
g4123
sg64
(lp5590
g57
(g78
g59
NtRp5591
(dp5592
g62
(dp5593
g82
g83
ssg71
g5587
sg64
(lp5594
S'session_id_name'
p5595
asbag57
(g78
g59
NtRp5596
(dp5597
g62
(dp5598
g89
g90
ssg71
g5587
sg64
(lp5599
S':'
asbag57
(g78
g59
NtRp5600
(dp5601
g62
(dp5602
sg71
g5587
sg64
(lp5603
g57
(g58
g59
NtRp5604
(dp5605
g62
(dp5606
g70
I5
ssg71
g5600
sg64
(lp5607
g4180
asbasbasbag57
(g73
g59
NtRp5608
(dp5609
g62
(dp5610
sg71
g4123
sg64
(lp5611
g57
(g78
g59
NtRp5612
(dp5613
g62
(dp5614
g82
g83
ssg71
g5608
sg64
(lp5615
S'session_locked'
p5616
asbag57
(g78
g59
NtRp5617
(dp5618
g62
(dp5619
g89
g90
ssg71
g5608
sg64
(lp5620
S':'
asbag57
(g78
g59
NtRp5621
(dp5622
g62
(dp5623
sg71
g5608
sg64
(lp5624
g57
(g58
g59
NtRp5625
(dp5626
g62
(dp5627
g70
I5
ssg71
g5621
sg64
(lp5628
g2041
asbasbasbag57
(g73
g59
NtRp5629
(dp5630
g62
(dp5631
sg71
g4123
sg64
(lp5632
g57
(g78
g59
NtRp5633
(dp5634
g62
(dp5635
g82
g83
ssg71
g5629
sg64
(lp5636
S'session_new'
p5637
asbag57
(g78
g59
NtRp5638
(dp5639
g62
(dp5640
g89
g90
ssg71
g5629
sg64
(lp5641
S':'
asbag57
(g78
g59
NtRp5642
(dp5643
g62
(dp5644
sg71
g5629
sg64
(lp5645
g57
(g58
g59
NtRp5646
(dp5647
g62
(dp5648
g70
I5
ssg71
g5642
sg64
(lp5649
g100
asbasbasbag57
(g73
g59
NtRp5650
(dp5651
g62
(dp5652
sg71
g4123
sg64
(lp5653
g57
(g78
g59
NtRp5654
(dp5655
g62
(dp5656
g82
g83
ssg71
g5650
sg64
(lp5657
S'session_storage_type'
p5658
asbag57
(g78
g59
NtRp5659
(dp5660
g62
(dp5661
g89
g90
ssg71
g5650
sg64
(lp5662
S':'
asbag57
(g78
g59
NtRp5663
(dp5664
g62
(dp5665
sg71
g5650
sg64
(lp5666
g57
(g58
g59
NtRp5667
(dp5668
g62
(dp5669
g70
I5
ssg71
g5663
sg64
(lp5670
g3640
asbasbasbag57
(g73
g59
NtRp5671
(dp5672
g62
(dp5673
sg71
g4123
sg64
(lp5674
g57
(g78
g59
NtRp5675
(dp5676
g62
(dp5677
g82
g83
ssg71
g5671
sg64
(lp5678
S'status'
p5679
asbag57
(g78
g59
NtRp5680
(dp5681
g62
(dp5682
g89
g90
ssg71
g5671
sg64
(lp5683
S':'
asbag57
(g78
g59
NtRp5684
(dp5685
g62
(dp5686
sg71
g5671
sg64
(lp5687
g57
(g58
g59
NtRp5688
(dp5689
g62
(dp5690
g70
I5
ssg71
g5684
sg64
(lp5691
S'200'
p5692
asbasbasbag57
(g73
g59
NtRp5693
(dp5694
g62
(dp5695
sg71
g4123
sg64
(lp5696
g57
(g78
g59
NtRp5697
(dp5698
g62
(dp5699
g82
g83
ssg71
g5693
sg64
(lp5700
S'subtitle'
p5701
asbag57
(g78
g59
NtRp5702
(dp5703
g62
(dp5704
g89
g90
ssg71
g5693
sg64
(lp5705
S':'
asbag57
(g78
g59
NtRp5706
(dp5707
g62
(dp5708
sg71
g5693
sg64
(lp5709
g57
(g58
g59
NtRp5710
(dp5711
g62
(dp5712
g70
I5
ssg71
g5706
sg64
(lp5713
g4657
(S's\r\x00\x00\x00customize me!'
tRp5714
asbasbasbag57
(g73
g59
NtRp5715
(dp5716
g62
(dp5717
sg71
g4123
sg64
(lp5718
g57
(g78
g59
NtRp5719
(dp5720
g62
(dp5721
g82
g83
ssg71
g5715
sg64
(lp5722
S'title'
p5723
asbag57
(g78
g59
NtRp5724
(dp5725
g62
(dp5726
g89
g90
ssg71
g5715
sg64
(lp5727
S':'
asbag57
(g78
g59
NtRp5728
(dp5729
g62
(dp5730
sg71
g5715
sg64
(lp5731
g57
(g58
g59
NtRp5732
(dp5733
g62
(dp5734
g70
I5
ssg71
g5728
sg64
(lp5735
S'Iiit Calendars'
p5736
asbasbasbag57
(g73
g59
NtRp5737
(dp5738
g62
(dp5739
sg71
g4123
sg64
(lp5740
g57
(g78
g59
NtRp5741
(dp5742
g62
(dp5743
g82
g83
ssg71
g5737
sg64
(lp5744
S'view'
p5745
asbag57
(g78
g59
NtRp5746
(dp5747
g62
(dp5748
g89
g90
ssg71
g5737
sg64
(lp5749
S':'
asbag57
(g78
g59
NtRp5750
(dp5751
g62
(dp5752
sg71
g5737
sg64
(lp5753
g57
(g58
g59
NtRp5754
(dp5755
g62
(dp5756
g70
I5
ssg71
g5750
sg64
(lp5757
S'default/admin_calendar.html'
p5758
asbasbasbasbasbsS'locals'
p5759
(dp5760
S'c'
S"<Storage {'username': '17', 'submit': 'Show Calendar'}>"
p5761
sssS'traceback'
p5762
S'Traceback (most recent call last):\n  File "/home/simran/web2py/gluon/restricted.py", line 212, in restricted\n    exec ccode in environment\n  File "/home/simran/web2py/applications/IIIT_calendars/controllers/default.py", line 142, in <module>\n  File "/home/simran/web2py/gluon/globals.py", line 193, in <lambda>\n    self._caller = lambda f: f()\n  File "/home/simran/web2py/applications/IIIT_calendars/controllers/default.py", line 136, in admin_calendar\n    q=db(db.auth_user.id==int(c)).select(db.auth_user.first_name)[0]\nTypeError: \'NoneType\' object is not callable\n'
p5763
s.