(dp1
S'output'
p2
S"<type 'exceptions.SyntaxError'> keyword can't be an expression (editeventdetails.html, line 75)"
p3
sS'layer'
p4
S'/home/simran/web2py/applications/IIIT_calendars/views/default/editeventdetails.html'
p5
sS'code'
p6
S'response.write(\'<!DOCTYPE html>\\n<!-- paulirish.com/2008/conditional-stylesheets-vs-css-hacks-answer-neither/ -->\\n<!--[if lt IE 7]><html class="ie ie6 ie-lte9 ie-lte8 ie-lte7 no-js" lang="\', escape=False)\nresponse.write(T.accepted_language or \'en\')\nresponse.write(\'"> <![endif]-->\\n<!--[if IE 7]><html class="ie ie7 ie-lte9 ie-lte8 ie-lte7 no-js" lang="\', escape=False)\nresponse.write(T.accepted_language or \'en\')\nresponse.write(\'"> <![endif]-->\\n<!--[if IE 8]><html class="ie ie8 ie-lte9 ie-lte8 no-js" lang="\', escape=False)\nresponse.write(T.accepted_language or \'en\')\nresponse.write(\'"> <![endif]-->\\n<!--[if IE 9]><html class="ie9 ie-lte9 no-js" lang="\', escape=False)\nresponse.write(T.accepted_language or \'en\')\nresponse.write(\'"> <![endif]-->\\n<!--[if (gt IE 9)|!(IE)]><!--> <html class="no-js" lang="\', escape=False)\nresponse.write(T.accepted_language or \'en\')\nresponse.write(\'"> <!--<![endif]-->\\n<head>\\n  <meta charset="utf-8" />\\n  <!-- www.phpied.com/conditional-comments-block-downloads/ -->\\n  <!-- Always force latest IE rendering engine\\n       (even in intranet) & Chrome Frame\\n       Remove this if you use the .htaccess -->\\n \\n      <meta http-equiv="X-UA-Compatible" content="IE=edge\', escape=False)\nresponse.write(not request.is_local and \',chrome=1\' or \'\')\nresponse.write(\'">\\n      \\n\\n  <title>\', escape=False)\nresponse.write(response.title or request.application)\nresponse.write(\'</title>\\n\\n  <!-- http://dev.w3.org/html5/markup/meta.name.html -->\\n  <meta name="application-name" content="\', escape=False)\nresponse.write(request.application)\nresponse.write(\'" />\\n\\n  <!-- Speaking of Google, don\\\'t forget to set your site up:\\n       http://google.com/webmasters -->\\n  <meta name="google-site-verification" content="" />\\n\\n  <!--  Mobile Viewport Fix\\n        j.mp/mobileviewport & davidbcalhoun.com/2010/viewport-metatag\\n        device-width: Occupy full width of the screen in its current orientation\\n        initial-scale = 1.0 retains dimensions instead of zooming out if page height > device height\\n        user-scalable = yes allows the user to zoom in -->\\n  <meta name="viewport" content="width=device-width, initial-scale=1.0" />\\n\\n  <link rel="shortcut icon" href="\', escape=False)\nresponse.write(URL(\'static\',\'images/favicon.ico\'))\nresponse.write(\'" type="image/x-icon">\\n  <link rel="apple-touch-icon" href="\', escape=False)\nresponse.write(URL(\'static\',\'images/favicon.png\'))\nresponse.write(\'">\\n\\n  <!-- All JavaScript at the bottom, except for Modernizr which enables\\n       HTML5 elements & feature detects -->\\n  <!--script src="\', escape=False)\nresponse.write(URL(\'static\',\'js/modernizr.custom.js\'))\nresponse.write(\'"></script-->\\n <script src="\', escape=False)\nresponse.write(URL(request.application,\'static\',\'js/modernizr-1.6.min.js\'))\nresponse.write(\'"></script>\\n  <!-- include stylesheets -->\\n  \', escape=False)\nresponse.files.append(URL(\'static\',\'css/web2py.css\'))\nresponse.files.append(URL(\'static\',\'css/bootstrap.min.css\'))\nresponse.files.append(URL(\'static\',\'css/bootstrap-responsive.min.css\'))\nresponse.files.append(URL(\'static\',\'css/web2py_bootstrap.css\'))\nresponse.write(\'\\n\\n  \', escape=False)\nresponse.write(\'<script type="text/javascript"><!--\\n    // These variables are used by the web2py_ajax_init function in web2py_ajax.js (which is loaded below).\\n    var w2p_ajax_confirm_message = "\', escape=False)\nresponse.write(T(\'Are you sure you want to delete this object?\'))\nresponse.write(\'";\\n    var w2p_ajax_date_format = "\', escape=False)\nresponse.write(T(\'%Y-%m-%d\'))\nresponse.write(\'";\\n    var w2p_ajax_datetime_format = "\', escape=False)\nresponse.write(T(\'%Y-%m-%d %H:%M:%S\'))\nresponse.write(\'";\\n    //--></script>\\n\', escape=False)\nresponse.files.insert(0,URL(\'static\',\'js/jquery.js\'))\nresponse.files.insert(1,URL(\'static\',\'css/calendar.css\'))\nresponse.files.insert(2,URL(\'static\',\'js/calendar.js\'))\nresponse.files.insert(3,URL(\'static\',\'js/web2py.js\'))\nresponse.include_meta()\nresponse.include_files()\nresponse.write(\'\\n\', escape=False)\nresponse.write(\'\\n\\n  \', escape=False)\n# using sidebars need to know what sidebar you want to use\nleft_sidebar_enabled = globals().get(\'left_sidebar_enabled\',False)\nright_sidebar_enabled = globals().get(\'right_sidebar_enabled\',False)\nmiddle_columns = {0:\'span12\',1:\'span9\',2:\'span6\'}[\n(left_sidebar_enabled and 1 or 0)+(right_sidebar_enabled and 1 or 0)]\nresponse.write(\'\\n\\n  <!-- uncomment here to load jquery-ui\\n       <link rel="stylesheet" href="http://ajax.googleapis.com/ajax/libs/jqueryui/1.8.16/themes/base/jquery-ui.css" type="text/css" media="all" />\\n       <script src="http://ajax.googleapis.com/ajax/libs/jqueryui/1.8.16/jquery-ui.min.js" type="text/javascript"></script>\\n       uncomment to load jquery-ui //-->\\n  <noscript><link href="\', escape=False)\nresponse.write(URL(\'static\', \'css/web2py_bootstrap_nojs.css\'))\nresponse.write(\'" rel="stylesheet" type="text/css" /></noscript>\\n  \', escape=False)\nresponse.write(\'\\n</head>\\n\\n<!--body style="background-image:url(\', escape=False)\nresponse.write(URL(\'static\', \'images/a.jpg\'))\nresponse.write(\')"-->\\n  <body id="sg">\\n  <!-- Navbar ================================================== -->\\n    <div class="navbar navbar-inverse navbar-fixed-top">\\n    <div class="flash">\', escape=False)\nresponse.write(response.flash or \'\')\nresponse.write(\'</div>\\n    <div class="navbar-inner">\\n      <div class="container">\\n        \\n        <ul id="navbar" class="nav pull-right">\', escape=False)\nresponse.write(\'auth\' in globals() and auth.navbar(mode="dropdown") or \'\')\nresponse.write(\'</ul>\\n \\n      </div>\\n    </div>\\n  </div><!--/top navbar -->\\n\\n\\n  <div class="container">\\n    <!-- Masthead ================================================== removed-->\\n      <br/>\\n\\n    <section id="main" class="main row">\\n        \', escape=False)\nif left_sidebar_enabled:\n    response.write(\'\\n        <div class="span3 left-sidebar">\\n            \', escape=False)\n    response.write(\'\\n            <h3>Left Sidebar</h3>\\n            <p></p>\\n            \', escape=False)\n    response.write(\'\\n        </div>\\n        \', escape=False)\n    pass\nresponse.write(\'\\n\\n        <div class="\', escape=False)\nresponse.write(middle_columns)\nresponse.write(\'">\\n            \', escape=False)\nresponse.write(\'\\n            \', escape=False)\nresponse.write(\'\\n<form action="\', escape=False)\nresponse.write(URL(\'default\',\'formedit\'))\nresponse.write(\'" method="POST">\\n<fieldset>\\n    <legend> Edit :) </legend>\\n    <p style="text-align:center"><select name="event">\\n        \', escape=False)\nfor i in p:\n    response.write(\'\\n        \', escape=False)\n    response.write(\'abc\'\n    =i)\n    response.write(\'\\n        \', escape=False)\n    pass\nresponse.write(\'\\n        </select>\\n        <button type="submit" name="submit">Enter</button>\\n    </p>\\n    </fieldset>\\n</form>\\n\', escape=False)\nresponse.write(\'\\n            \', escape=False)\nresponse.write(\'\\n        </div>\\n\\n        \', escape=False)\nif right_sidebar_enabled:\n    response.write(\'\\n        <div class="span3">\\n            \', escape=False)\n    response.write(\'\\n            <h3>Right Sidebar</h3>\\n            <p></p>\\n            \', escape=False)\n    response.write(\'\\n        </div>\\n        \', escape=False)\n    pass\nresponse.write(\'\\n    </section><!--/main-->\\n\\n    <!-- Footer ================================================== -->\\n    <div class="row">\\n        <footer class="footer span12" id="footer">\\n            <div class="footer-content">\\n                \', escape=False)\nresponse.write(\' <!-- this is default footer -->\\n                <div class="copyright pull-left">\', escape=False)\nresponse.write(T(\'Copyright\'))\nresponse.write(\' &#169; \', escape=False)\nresponse.write(request.now.year)\nresponse.write(\'</div>\\n                <div id="poweredBy" class="pull-right">\\n                    \', escape=False)\nresponse.write(T(\'Powered by\'))\nresponse.write(\'\\n                    <a href="http://www.web2py.com/">web2py</a>\\n                </div>\\n                \', escape=False)\nresponse.write(\'\\n            </div>\\n        </footer>\\n    </div>\\n\\n  </div> <!-- /container -->\\n\\n  <!-- The javascript =============================================\\n       (Placed at the end of the document so the pages load faster) -->\\n  <script src="\', escape=False)\nresponse.write(URL(\'static\',\'js/bootstrap.min.js\'))\nresponse.write(\'"></script>\\n  <script src="\', escape=False)\nresponse.write(URL(\'static\',\'js/web2py_bootstrap.js\'))\nresponse.write(\'"></script>\\n  <!--[if lt IE 7 ]>\\n      <script src="\', escape=False)\nresponse.write(URL(\'static\',\'js/dd_belatedpng.js\'))\nresponse.write(\'"></script>\\n      <script> DD_belatedPNG.fix(\\\'img, .png_bg\\\'); //fix any <img> or .png_bg background-images </script>\\n      <![endif]-->\\n  \\n  \', escape=False)\nif response.google_analytics_id:\n    response.write(\'\\n  <script src="\', escape=False)\n    response.write(URL(\'static\',\'js/analytics.js\'))\n    response.write(\'"></script>\\n  <script type="text/javascript">\\n  analytics.initialize({\\n    \\\'Google Analytics\\\':{trackingId:\\\'\', escape=False)\n    response.write(response.google_analytics_id)\n    response.write("\'} \\n  });</script>\\n  ", escape=False)\n    pass\nresponse.write(\'\\n  <script src="\', escape=False)\nresponse.write(URL(\'static\',\'js/share.js\',vars=dict(static=URL(\'static\',\'images\'))))\nresponse.write(\'"></script>\\n</body>\\n</html>\\n\', escape=False)'
p7
sS'snapshot'
p8
(dp9
S'exception'
p10
(dp11
S'__getslice__'
p12
S"<method-wrapper '__getslice__' of exceptions.SyntaxError object>"
p13
sS'text'
p14
S"''"
p15
sS'__str__'
p16
S"<method-wrapper '__str__' of exceptions.SyntaxError object>"
p17
sS'__reduce__'
p18
S'<built-in method __reduce__ of exceptions.SyntaxError object>'
p19
sS'__dict__'
p20
S'{}'
p21
sS'__sizeof__'
p22
S'<built-in method __sizeof__ of exceptions.SyntaxError object>'
p23
sS'__init__'
p24
S"<method-wrapper '__init__' of exceptions.SyntaxError object>"
p25
sS'__setattr__'
p26
S"<method-wrapper '__setattr__' of exceptions.SyntaxError object>"
p27
sS'__reduce_ex__'
p28
S'<built-in method __reduce_ex__ of exceptions.SyntaxError object>'
p29
sS'__new__'
p30
S'<built-in method __new__ of type object>'
p31
sS'__format__'
p32
S'<built-in method __format__ of exceptions.SyntaxError object>'
p33
sS'__class__'
p34
S"<type 'exceptions.SyntaxError'>"
p35
sS'filename'
p36
S"'/home/simran/web2py/applications/IIIT_calendars/views/default/editeventdetails.html'"
p37
sS'lineno'
p38
S'75'
p39
sS'msg'
p40
S'"keyword can\'t be an expression"'
p41
sS'__doc__'
p42
S"'Invalid syntax.'"
p43
sS'__getitem__'
p44
S"<method-wrapper '__getitem__' of exceptions.SyntaxError object>"
p45
sS'__setstate__'
p46
S'<built-in method __setstate__ of exceptions.SyntaxError object>'
p47
sS'__getattribute__'
p48
S"<method-wrapper '__getattribute__' of exceptions.SyntaxError object>"
p49
sS'print_file_and_line'
p50
S'None'
p51
sS'args'
p52
S'("keyword can\'t be an expression", (\'/home/simran/web2py/applications/IIIT_calendars/views/default/editeventdetails.html\', 75, None, \'\'))'
p53
sS'__subclasshook__'
p54
S'<built-in method __subclasshook__ of type object>'
p55
sS'offset'
p56
S'None'
p57
sS'__unicode__'
p58
S'<built-in method __unicode__ of exceptions.SyntaxError object>'
p59
sS'__delattr__'
p60
S"<method-wrapper '__delattr__' of exceptions.SyntaxError object>"
p61
sS'__repr__'
p62
S"<method-wrapper '__repr__' of exceptions.SyntaxError object>"
p63
sS'__hash__'
p64
S"<method-wrapper '__hash__' of exceptions.SyntaxError object>"
p65
ssS'evalue'
p66
S"keyword can't be an expression (editeventdetails.html, line 75)"
p67
sS'request'
p68
ccopy_reg
_reconstructor
p69
(cgluon.html
BEAUTIFY
p70
c__builtin__
object
p71
NtRp72
(dp73
S'attributes'
p74
(dp75
sS'components'
p76
(lp77
g69
(cgluon.html
TABLE
p78
g71
NtRp79
(dp80
g74
(dp81
S'level'
p82
I5
ssS'parent'
p83
Nsg76
(lp84
g69
(cgluon.html
TR
p85
g71
NtRp86
(dp87
g74
(dp88
sg83
g79
sg76
(lp89
g69
(cgluon.html
TD
p90
g71
NtRp91
(dp92
g74
(dp93
S'_style'
p94
S'font-weight:bold;vertical-align:top'
p95
ssg83
g86
sg76
(lp96
S'ajax'
p97
asbag69
(g90
g71
NtRp98
(dp99
g74
(dp100
S'_valign'
p101
S'top'
p102
ssg83
g86
sg76
(lp103
S':'
asbag69
(g90
g71
NtRp104
(dp105
g74
(dp106
sg83
g86
sg76
(lp107
g69
(g70
g71
NtRp108
(dp109
g74
(dp110
g82
I5
ssg83
g104
sg76
(lp111
S'False'
p112
asbasbasbag69
(g85
g71
NtRp113
(dp114
g74
(dp115
sg83
g79
sg76
(lp116
g69
(g90
g71
NtRp117
(dp118
g74
(dp119
g94
g95
ssg83
g113
sg76
(lp120
S'application'
p121
asbag69
(g90
g71
NtRp122
(dp123
g74
(dp124
g101
g102
ssg83
g113
sg76
(lp125
S':'
asbag69
(g90
g71
NtRp126
(dp127
g74
(dp128
sg83
g113
sg76
(lp129
g69
(g70
g71
NtRp130
(dp131
g74
(dp132
g82
I5
ssg83
g126
sg76
(lp133
S'IIIT_calendars'
p134
asbasbasbag69
(g85
g71
NtRp135
(dp136
g74
(dp137
sg83
g79
sg76
(lp138
g69
(g90
g71
NtRp139
(dp140
g74
(dp141
g94
g95
ssg83
g135
sg76
(lp142
g52
asbag69
(g90
g71
NtRp143
(dp144
g74
(dp145
g101
g102
ssg83
g135
sg76
(lp146
S':'
asbag69
(g90
g71
NtRp147
(dp148
g74
(dp149
sg83
g135
sg76
(lp150
g69
(g70
g71
NtRp151
(dp152
g74
(dp153
g82
I5
ssg83
g147
sg76
(lp154
g69
(g78
g71
NtRp155
(dp156
g74
(dp157
g82
I4
ssg83
Nsg76
(lp158
sbasbasbasbag69
(g85
g71
NtRp159
(dp160
g74
(dp161
sg83
g79
sg76
(lp162
g69
(g90
g71
NtRp163
(dp164
g74
(dp165
g94
g95
ssg83
g159
sg76
(lp166
S'body'
p167
asbag69
(g90
g71
NtRp168
(dp169
g74
(dp170
g101
g102
ssg83
g159
sg76
(lp171
S':'
asbag69
(g90
g71
NtRp172
(dp173
g74
(dp174
sg83
g159
sg76
(lp175
g69
(g70
g71
NtRp176
(dp177
g74
(dp178
g82
I5
ssg83
g172
sg76
(lp179
S'<cStringIO.StringO object at 0x7f6fd0275c00>'
p180
asbasbasbag69
(g85
g71
NtRp181
(dp182
g74
(dp183
sg83
g79
sg76
(lp184
g69
(g90
g71
NtRp185
(dp186
g74
(dp187
g94
g95
ssg83
g181
sg76
(lp188
S'cid'
p189
asbag69
(g90
g71
NtRp190
(dp191
g74
(dp192
g101
g102
ssg83
g181
sg76
(lp193
S':'
asbag69
(g90
g71
NtRp194
(dp195
g74
(dp196
sg83
g181
sg76
(lp197
g69
(g70
g71
NtRp198
(dp199
g74
(dp200
g82
I5
ssg83
g194
sg76
(lp201
S'None'
p202
asbasbasbag69
(g85
g71
NtRp203
(dp204
g74
(dp205
sg83
g79
sg76
(lp206
g69
(g90
g71
NtRp207
(dp208
g74
(dp209
g94
g95
ssg83
g203
sg76
(lp210
S'client'
p211
asbag69
(g90
g71
NtRp212
(dp213
g74
(dp214
g101
g102
ssg83
g203
sg76
(lp215
S':'
asbag69
(g90
g71
NtRp216
(dp217
g74
(dp218
sg83
g203
sg76
(lp219
g69
(g70
g71
NtRp220
(dp221
g74
(dp222
g82
I5
ssg83
g216
sg76
(lp223
S'127.0.0.1'
p224
asbasbasbag69
(g85
g71
NtRp225
(dp226
g74
(dp227
sg83
g79
sg76
(lp228
g69
(g90
g71
NtRp229
(dp230
g74
(dp231
g94
g95
ssg83
g225
sg76
(lp232
S'controller'
p233
asbag69
(g90
g71
NtRp234
(dp235
g74
(dp236
g101
g102
ssg83
g225
sg76
(lp237
S':'
asbag69
(g90
g71
NtRp238
(dp239
g74
(dp240
sg83
g225
sg76
(lp241
g69
(g70
g71
NtRp242
(dp243
g74
(dp244
g82
I5
ssg83
g238
sg76
(lp245
S'default'
p246
asbasbasbag69
(g85
g71
NtRp247
(dp248
g74
(dp249
sg83
g79
sg76
(lp250
g69
(g90
g71
NtRp251
(dp252
g74
(dp253
g94
g95
ssg83
g247
sg76
(lp254
S'cookies'
p255
asbag69
(g90
g71
NtRp256
(dp257
g74
(dp258
g101
g102
ssg83
g247
sg76
(lp259
S':'
asbag69
(g90
g71
NtRp260
(dp261
g74
(dp262
sg83
g247
sg76
(lp263
g69
(g70
g71
NtRp264
(dp265
g74
(dp266
g82
I5
ssg83
g260
sg76
(lp267
g69
(g78
g71
NtRp268
(dp269
g74
(dp270
g82
I4
ssg83
Nsg76
(lp271
g69
(g85
g71
NtRp272
(dp273
g74
(dp274
sg83
g268
sg76
(lp275
g69
(g90
g71
NtRp276
(dp277
g74
(dp278
g94
g95
ssg83
g272
sg76
(lp279
S'session_id_admin'
p280
asbag69
(g90
g71
NtRp281
(dp282
g74
(dp283
g101
g102
ssg83
g272
sg76
(lp284
S':'
asbag69
(g90
g71
NtRp285
(dp286
g74
(dp287
sg83
g272
sg76
(lp288
g69
(g70
g71
NtRp289
(dp290
g74
(dp291
g82
I4
ssg83
g285
sg76
(lp292
S'127.0.0.1-801e5f78-033a-48d6-866e-01e86a808dda'
p293
ag69
(g78
g71
NtRp294
(dp295
g74
(dp296
g82
I3
ssg83
Nsg76
(lp297
g69
(g85
g71
NtRp298
(dp299
g74
(dp300
sg83
g294
sg76
(lp301
g69
(g90
g71
NtRp302
(dp303
g74
(dp304
g94
g95
ssg83
g298
sg76
(lp305
S'comment'
p306
asbag69
(g90
g71
NtRp307
(dp308
g74
(dp309
g101
g102
ssg83
g298
sg76
(lp310
S':'
asbag69
(g90
g71
NtRp311
(dp312
g74
(dp313
sg83
g298
sg76
(lp314
g69
(g70
g71
NtRp315
(dp316
g74
(dp317
g82
I3
ssg83
g311
sg76
(lp318
S''
asbasbasbag69
(g85
g71
NtRp319
(dp320
g74
(dp321
sg83
g294
sg76
(lp322
g69
(g90
g71
NtRp323
(dp324
g74
(dp325
g94
g95
ssg83
g319
sg76
(lp326
S'domain'
p327
asbag69
(g90
g71
NtRp328
(dp329
g74
(dp330
g101
g102
ssg83
g319
sg76
(lp331
S':'
asbag69
(g90
g71
NtRp332
(dp333
g74
(dp334
sg83
g319
sg76
(lp335
g69
(g70
g71
NtRp336
(dp337
g74
(dp338
g82
I3
ssg83
g332
sg76
(lp339
S''
asbasbasbag69
(g85
g71
NtRp340
(dp341
g74
(dp342
sg83
g294
sg76
(lp343
g69
(g90
g71
NtRp344
(dp345
g74
(dp346
g94
g95
ssg83
g340
sg76
(lp347
S'expires'
p348
asbag69
(g90
g71
NtRp349
(dp350
g74
(dp351
g101
g102
ssg83
g340
sg76
(lp352
S':'
asbag69
(g90
g71
NtRp353
(dp354
g74
(dp355
sg83
g340
sg76
(lp356
g69
(g70
g71
NtRp357
(dp358
g74
(dp359
g82
I3
ssg83
g353
sg76
(lp360
S''
asbasbasbag69
(g85
g71
NtRp361
(dp362
g74
(dp363
sg83
g294
sg76
(lp364
g69
(g90
g71
NtRp365
(dp366
g74
(dp367
g94
g95
ssg83
g361
sg76
(lp368
S'httponly'
p369
asbag69
(g90
g71
NtRp370
(dp371
g74
(dp372
g101
g102
ssg83
g361
sg76
(lp373
S':'
asbag69
(g90
g71
NtRp374
(dp375
g74
(dp376
sg83
g361
sg76
(lp377
g69
(g70
g71
NtRp378
(dp379
g74
(dp380
g82
I3
ssg83
g374
sg76
(lp381
S''
asbasbasbag69
(g85
g71
NtRp382
(dp383
g74
(dp384
sg83
g294
sg76
(lp385
g69
(g90
g71
NtRp386
(dp387
g74
(dp388
g94
g95
ssg83
g382
sg76
(lp389
S'max-age'
p390
asbag69
(g90
g71
NtRp391
(dp392
g74
(dp393
g101
g102
ssg83
g382
sg76
(lp394
S':'
asbag69
(g90
g71
NtRp395
(dp396
g74
(dp397
sg83
g382
sg76
(lp398
g69
(g70
g71
NtRp399
(dp400
g74
(dp401
g82
I3
ssg83
g395
sg76
(lp402
S''
asbasbasbag69
(g85
g71
NtRp403
(dp404
g74
(dp405
sg83
g294
sg76
(lp406
g69
(g90
g71
NtRp407
(dp408
g74
(dp409
g94
g95
ssg83
g403
sg76
(lp410
S'path'
p411
asbag69
(g90
g71
NtRp412
(dp413
g74
(dp414
g101
g102
ssg83
g403
sg76
(lp415
S':'
asbag69
(g90
g71
NtRp416
(dp417
g74
(dp418
sg83
g403
sg76
(lp419
g69
(g70
g71
NtRp420
(dp421
g74
(dp422
g82
I3
ssg83
g416
sg76
(lp423
S''
asbasbasbag69
(g85
g71
NtRp424
(dp425
g74
(dp426
sg83
g294
sg76
(lp427
g69
(g90
g71
NtRp428
(dp429
g74
(dp430
g94
g95
ssg83
g424
sg76
(lp431
S'secure'
p432
asbag69
(g90
g71
NtRp433
(dp434
g74
(dp435
g101
g102
ssg83
g424
sg76
(lp436
S':'
asbag69
(g90
g71
NtRp437
(dp438
g74
(dp439
sg83
g424
sg76
(lp440
g69
(g70
g71
NtRp441
(dp442
g74
(dp443
g82
I3
ssg83
g437
sg76
(lp444
S''
asbasbasbag69
(g85
g71
NtRp445
(dp446
g74
(dp447
sg83
g294
sg76
(lp448
g69
(g90
g71
NtRp449
(dp450
g74
(dp451
g94
g95
ssg83
g445
sg76
(lp452
S'version'
p453
asbag69
(g90
g71
NtRp454
(dp455
g74
(dp456
g101
g102
ssg83
g445
sg76
(lp457
S':'
asbag69
(g90
g71
NtRp458
(dp459
g74
(dp460
sg83
g445
sg76
(lp461
g69
(g70
g71
NtRp462
(dp463
g74
(dp464
g82
I3
ssg83
g458
sg76
(lp465
S''
asbasbasbasbasbasbasbag69
(g85
g71
NtRp466
(dp467
g74
(dp468
sg83
g268
sg76
(lp469
g69
(g90
g71
NtRp470
(dp471
g74
(dp472
g94
g95
ssg83
g466
sg76
(lp473
S'session_id_iiit_calendars'
p474
asbag69
(g90
g71
NtRp475
(dp476
g74
(dp477
g101
g102
ssg83
g466
sg76
(lp478
S':'
asbag69
(g90
g71
NtRp479
(dp480
g74
(dp481
sg83
g466
sg76
(lp482
g69
(g70
g71
NtRp483
(dp484
g74
(dp485
g82
I4
ssg83
g479
sg76
(lp486
S'127.0.0.1-b512d376-91dc-477e-99ca-2b27d7ad4a7a'
p487
ag69
(g78
g71
NtRp488
(dp489
g74
(dp490
g82
I3
ssg83
Nsg76
(lp491
g69
(g85
g71
NtRp492
(dp493
g74
(dp494
sg83
g488
sg76
(lp495
g69
(g90
g71
NtRp496
(dp497
g74
(dp498
g94
g95
ssg83
g492
sg76
(lp499
g306
asbag69
(g90
g71
NtRp500
(dp501
g74
(dp502
g101
g102
ssg83
g492
sg76
(lp503
S':'
asbag69
(g90
g71
NtRp504
(dp505
g74
(dp506
sg83
g492
sg76
(lp507
g69
(g70
g71
NtRp508
(dp509
g74
(dp510
g82
I3
ssg83
g504
sg76
(lp511
S''
asbasbasbag69
(g85
g71
NtRp512
(dp513
g74
(dp514
sg83
g488
sg76
(lp515
g69
(g90
g71
NtRp516
(dp517
g74
(dp518
g94
g95
ssg83
g512
sg76
(lp519
g327
asbag69
(g90
g71
NtRp520
(dp521
g74
(dp522
g101
g102
ssg83
g512
sg76
(lp523
S':'
asbag69
(g90
g71
NtRp524
(dp525
g74
(dp526
sg83
g512
sg76
(lp527
g69
(g70
g71
NtRp528
(dp529
g74
(dp530
g82
I3
ssg83
g524
sg76
(lp531
S''
asbasbasbag69
(g85
g71
NtRp532
(dp533
g74
(dp534
sg83
g488
sg76
(lp535
g69
(g90
g71
NtRp536
(dp537
g74
(dp538
g94
g95
ssg83
g532
sg76
(lp539
g348
asbag69
(g90
g71
NtRp540
(dp541
g74
(dp542
g101
g102
ssg83
g532
sg76
(lp543
S':'
asbag69
(g90
g71
NtRp544
(dp545
g74
(dp546
sg83
g532
sg76
(lp547
g69
(g70
g71
NtRp548
(dp549
g74
(dp550
g82
I3
ssg83
g544
sg76
(lp551
S''
asbasbasbag69
(g85
g71
NtRp552
(dp553
g74
(dp554
sg83
g488
sg76
(lp555
g69
(g90
g71
NtRp556
(dp557
g74
(dp558
g94
g95
ssg83
g552
sg76
(lp559
g369
asbag69
(g90
g71
NtRp560
(dp561
g74
(dp562
g101
g102
ssg83
g552
sg76
(lp563
S':'
asbag69
(g90
g71
NtRp564
(dp565
g74
(dp566
sg83
g552
sg76
(lp567
g69
(g70
g71
NtRp568
(dp569
g74
(dp570
g82
I3
ssg83
g564
sg76
(lp571
S''
asbasbasbag69
(g85
g71
NtRp572
(dp573
g74
(dp574
sg83
g488
sg76
(lp575
g69
(g90
g71
NtRp576
(dp577
g74
(dp578
g94
g95
ssg83
g572
sg76
(lp579
g390
asbag69
(g90
g71
NtRp580
(dp581
g74
(dp582
g101
g102
ssg83
g572
sg76
(lp583
S':'
asbag69
(g90
g71
NtRp584
(dp585
g74
(dp586
sg83
g572
sg76
(lp587
g69
(g70
g71
NtRp588
(dp589
g74
(dp590
g82
I3
ssg83
g584
sg76
(lp591
S''
asbasbasbag69
(g85
g71
NtRp592
(dp593
g74
(dp594
sg83
g488
sg76
(lp595
g69
(g90
g71
NtRp596
(dp597
g74
(dp598
g94
g95
ssg83
g592
sg76
(lp599
g411
asbag69
(g90
g71
NtRp600
(dp601
g74
(dp602
g101
g102
ssg83
g592
sg76
(lp603
S':'
asbag69
(g90
g71
NtRp604
(dp605
g74
(dp606
sg83
g592
sg76
(lp607
g69
(g70
g71
NtRp608
(dp609
g74
(dp610
g82
I3
ssg83
g604
sg76
(lp611
S''
asbasbasbag69
(g85
g71
NtRp612
(dp613
g74
(dp614
sg83
g488
sg76
(lp615
g69
(g90
g71
NtRp616
(dp617
g74
(dp618
g94
g95
ssg83
g612
sg76
(lp619
g432
asbag69
(g90
g71
NtRp620
(dp621
g74
(dp622
g101
g102
ssg83
g612
sg76
(lp623
S':'
asbag69
(g90
g71
NtRp624
(dp625
g74
(dp626
sg83
g612
sg76
(lp627
g69
(g70
g71
NtRp628
(dp629
g74
(dp630
g82
I3
ssg83
g624
sg76
(lp631
S''
asbasbasbag69
(g85
g71
NtRp632
(dp633
g74
(dp634
sg83
g488
sg76
(lp635
g69
(g90
g71
NtRp636
(dp637
g74
(dp638
g94
g95
ssg83
g632
sg76
(lp639
g453
asbag69
(g90
g71
NtRp640
(dp641
g74
(dp642
g101
g102
ssg83
g632
sg76
(lp643
S':'
asbag69
(g90
g71
NtRp644
(dp645
g74
(dp646
sg83
g632
sg76
(lp647
g69
(g70
g71
NtRp648
(dp649
g74
(dp650
g82
I3
ssg83
g644
sg76
(lp651
S''
asbasbasbasbasbasbasbag69
(g85
g71
NtRp652
(dp653
g74
(dp654
sg83
g268
sg76
(lp655
g69
(g90
g71
NtRp656
(dp657
g74
(dp658
g94
g95
ssg83
g652
sg76
(lp659
S'session_id_music'
p660
asbag69
(g90
g71
NtRp661
(dp662
g74
(dp663
g101
g102
ssg83
g652
sg76
(lp664
S':'
asbag69
(g90
g71
NtRp665
(dp666
g74
(dp667
sg83
g652
sg76
(lp668
g69
(g70
g71
NtRp669
(dp670
g74
(dp671
g82
I4
ssg83
g665
sg76
(lp672
S'127.0.0.1-ffabc5ec-6a02-4c65-a07f-0e2494bf9f9d'
p673
ag69
(g78
g71
NtRp674
(dp675
g74
(dp676
g82
I3
ssg83
Nsg76
(lp677
g69
(g85
g71
NtRp678
(dp679
g74
(dp680
sg83
g674
sg76
(lp681
g69
(g90
g71
NtRp682
(dp683
g74
(dp684
g94
g95
ssg83
g678
sg76
(lp685
g306
asbag69
(g90
g71
NtRp686
(dp687
g74
(dp688
g101
g102
ssg83
g678
sg76
(lp689
S':'
asbag69
(g90
g71
NtRp690
(dp691
g74
(dp692
sg83
g678
sg76
(lp693
g69
(g70
g71
NtRp694
(dp695
g74
(dp696
g82
I3
ssg83
g690
sg76
(lp697
S''
asbasbasbag69
(g85
g71
NtRp698
(dp699
g74
(dp700
sg83
g674
sg76
(lp701
g69
(g90
g71
NtRp702
(dp703
g74
(dp704
g94
g95
ssg83
g698
sg76
(lp705
g327
asbag69
(g90
g71
NtRp706
(dp707
g74
(dp708
g101
g102
ssg83
g698
sg76
(lp709
S':'
asbag69
(g90
g71
NtRp710
(dp711
g74
(dp712
sg83
g698
sg76
(lp713
g69
(g70
g71
NtRp714
(dp715
g74
(dp716
g82
I3
ssg83
g710
sg76
(lp717
S''
asbasbasbag69
(g85
g71
NtRp718
(dp719
g74
(dp720
sg83
g674
sg76
(lp721
g69
(g90
g71
NtRp722
(dp723
g74
(dp724
g94
g95
ssg83
g718
sg76
(lp725
g348
asbag69
(g90
g71
NtRp726
(dp727
g74
(dp728
g101
g102
ssg83
g718
sg76
(lp729
S':'
asbag69
(g90
g71
NtRp730
(dp731
g74
(dp732
sg83
g718
sg76
(lp733
g69
(g70
g71
NtRp734
(dp735
g74
(dp736
g82
I3
ssg83
g730
sg76
(lp737
S''
asbasbasbag69
(g85
g71
NtRp738
(dp739
g74
(dp740
sg83
g674
sg76
(lp741
g69
(g90
g71
NtRp742
(dp743
g74
(dp744
g94
g95
ssg83
g738
sg76
(lp745
g369
asbag69
(g90
g71
NtRp746
(dp747
g74
(dp748
g101
g102
ssg83
g738
sg76
(lp749
S':'
asbag69
(g90
g71
NtRp750
(dp751
g74
(dp752
sg83
g738
sg76
(lp753
g69
(g70
g71
NtRp754
(dp755
g74
(dp756
g82
I3
ssg83
g750
sg76
(lp757
S''
asbasbasbag69
(g85
g71
NtRp758
(dp759
g74
(dp760
sg83
g674
sg76
(lp761
g69
(g90
g71
NtRp762
(dp763
g74
(dp764
g94
g95
ssg83
g758
sg76
(lp765
g390
asbag69
(g90
g71
NtRp766
(dp767
g74
(dp768
g101
g102
ssg83
g758
sg76
(lp769
S':'
asbag69
(g90
g71
NtRp770
(dp771
g74
(dp772
sg83
g758
sg76
(lp773
g69
(g70
g71
NtRp774
(dp775
g74
(dp776
g82
I3
ssg83
g770
sg76
(lp777
S''
asbasbasbag69
(g85
g71
NtRp778
(dp779
g74
(dp780
sg83
g674
sg76
(lp781
g69
(g90
g71
NtRp782
(dp783
g74
(dp784
g94
g95
ssg83
g778
sg76
(lp785
g411
asbag69
(g90
g71
NtRp786
(dp787
g74
(dp788
g101
g102
ssg83
g778
sg76
(lp789
S':'
asbag69
(g90
g71
NtRp790
(dp791
g74
(dp792
sg83
g778
sg76
(lp793
g69
(g70
g71
NtRp794
(dp795
g74
(dp796
g82
I3
ssg83
g790
sg76
(lp797
S''
asbasbasbag69
(g85
g71
NtRp798
(dp799
g74
(dp800
sg83
g674
sg76
(lp801
g69
(g90
g71
NtRp802
(dp803
g74
(dp804
g94
g95
ssg83
g798
sg76
(lp805
g432
asbag69
(g90
g71
NtRp806
(dp807
g74
(dp808
g101
g102
ssg83
g798
sg76
(lp809
S':'
asbag69
(g90
g71
NtRp810
(dp811
g74
(dp812
sg83
g798
sg76
(lp813
g69
(g70
g71
NtRp814
(dp815
g74
(dp816
g82
I3
ssg83
g810
sg76
(lp817
S''
asbasbasbag69
(g85
g71
NtRp818
(dp819
g74
(dp820
sg83
g674
sg76
(lp821
g69
(g90
g71
NtRp822
(dp823
g74
(dp824
g94
g95
ssg83
g818
sg76
(lp825
g453
asbag69
(g90
g71
NtRp826
(dp827
g74
(dp828
g101
g102
ssg83
g818
sg76
(lp829
S':'
asbag69
(g90
g71
NtRp830
(dp831
g74
(dp832
sg83
g818
sg76
(lp833
g69
(g70
g71
NtRp834
(dp835
g74
(dp836
g82
I3
ssg83
g830
sg76
(lp837
S''
asbasbasbasbasbasbasbag69
(g85
g71
NtRp838
(dp839
g74
(dp840
sg83
g268
sg76
(lp841
g69
(g90
g71
NtRp842
(dp843
g74
(dp844
g94
g95
ssg83
g838
sg76
(lp845
S'session_id_welcome'
p846
asbag69
(g90
g71
NtRp847
(dp848
g74
(dp849
g101
g102
ssg83
g838
sg76
(lp850
S':'
asbag69
(g90
g71
NtRp851
(dp852
g74
(dp853
sg83
g838
sg76
(lp854
g69
(g70
g71
NtRp855
(dp856
g74
(dp857
g82
I4
ssg83
g851
sg76
(lp858
S'127.0.0.1-63e75989-5c9b-4e21-8376-c640fec67f50'
p859
ag69
(g78
g71
NtRp860
(dp861
g74
(dp862
g82
I3
ssg83
Nsg76
(lp863
g69
(g85
g71
NtRp864
(dp865
g74
(dp866
sg83
g860
sg76
(lp867
g69
(g90
g71
NtRp868
(dp869
g74
(dp870
g94
g95
ssg83
g864
sg76
(lp871
g306
asbag69
(g90
g71
NtRp872
(dp873
g74
(dp874
g101
g102
ssg83
g864
sg76
(lp875
S':'
asbag69
(g90
g71
NtRp876
(dp877
g74
(dp878
sg83
g864
sg76
(lp879
g69
(g70
g71
NtRp880
(dp881
g74
(dp882
g82
I3
ssg83
g876
sg76
(lp883
S''
asbasbasbag69
(g85
g71
NtRp884
(dp885
g74
(dp886
sg83
g860
sg76
(lp887
g69
(g90
g71
NtRp888
(dp889
g74
(dp890
g94
g95
ssg83
g884
sg76
(lp891
g327
asbag69
(g90
g71
NtRp892
(dp893
g74
(dp894
g101
g102
ssg83
g884
sg76
(lp895
S':'
asbag69
(g90
g71
NtRp896
(dp897
g74
(dp898
sg83
g884
sg76
(lp899
g69
(g70
g71
NtRp900
(dp901
g74
(dp902
g82
I3
ssg83
g896
sg76
(lp903
S''
asbasbasbag69
(g85
g71
NtRp904
(dp905
g74
(dp906
sg83
g860
sg76
(lp907
g69
(g90
g71
NtRp908
(dp909
g74
(dp910
g94
g95
ssg83
g904
sg76
(lp911
g348
asbag69
(g90
g71
NtRp912
(dp913
g74
(dp914
g101
g102
ssg83
g904
sg76
(lp915
S':'
asbag69
(g90
g71
NtRp916
(dp917
g74
(dp918
sg83
g904
sg76
(lp919
g69
(g70
g71
NtRp920
(dp921
g74
(dp922
g82
I3
ssg83
g916
sg76
(lp923
S''
asbasbasbag69
(g85
g71
NtRp924
(dp925
g74
(dp926
sg83
g860
sg76
(lp927
g69
(g90
g71
NtRp928
(dp929
g74
(dp930
g94
g95
ssg83
g924
sg76
(lp931
g369
asbag69
(g90
g71
NtRp932
(dp933
g74
(dp934
g101
g102
ssg83
g924
sg76
(lp935
S':'
asbag69
(g90
g71
NtRp936
(dp937
g74
(dp938
sg83
g924
sg76
(lp939
g69
(g70
g71
NtRp940
(dp941
g74
(dp942
g82
I3
ssg83
g936
sg76
(lp943
S''
asbasbasbag69
(g85
g71
NtRp944
(dp945
g74
(dp946
sg83
g860
sg76
(lp947
g69
(g90
g71
NtRp948
(dp949
g74
(dp950
g94
g95
ssg83
g944
sg76
(lp951
g390
asbag69
(g90
g71
NtRp952
(dp953
g74
(dp954
g101
g102
ssg83
g944
sg76
(lp955
S':'
asbag69
(g90
g71
NtRp956
(dp957
g74
(dp958
sg83
g944
sg76
(lp959
g69
(g70
g71
NtRp960
(dp961
g74
(dp962
g82
I3
ssg83
g956
sg76
(lp963
S''
asbasbasbag69
(g85
g71
NtRp964
(dp965
g74
(dp966
sg83
g860
sg76
(lp967
g69
(g90
g71
NtRp968
(dp969
g74
(dp970
g94
g95
ssg83
g964
sg76
(lp971
g411
asbag69
(g90
g71
NtRp972
(dp973
g74
(dp974
g101
g102
ssg83
g964
sg76
(lp975
S':'
asbag69
(g90
g71
NtRp976
(dp977
g74
(dp978
sg83
g964
sg76
(lp979
g69
(g70
g71
NtRp980
(dp981
g74
(dp982
g82
I3
ssg83
g976
sg76
(lp983
S''
asbasbasbag69
(g85
g71
NtRp984
(dp985
g74
(dp986
sg83
g860
sg76
(lp987
g69
(g90
g71
NtRp988
(dp989
g74
(dp990
g94
g95
ssg83
g984
sg76
(lp991
g432
asbag69
(g90
g71
NtRp992
(dp993
g74
(dp994
g101
g102
ssg83
g984
sg76
(lp995
S':'
asbag69
(g90
g71
NtRp996
(dp997
g74
(dp998
sg83
g984
sg76
(lp999
g69
(g70
g71
NtRp1000
(dp1001
g74
(dp1002
g82
I3
ssg83
g996
sg76
(lp1003
S''
asbasbasbag69
(g85
g71
NtRp1004
(dp1005
g74
(dp1006
sg83
g860
sg76
(lp1007
g69
(g90
g71
NtRp1008
(dp1009
g74
(dp1010
g94
g95
ssg83
g1004
sg76
(lp1011
g453
asbag69
(g90
g71
NtRp1012
(dp1013
g74
(dp1014
g101
g102
ssg83
g1004
sg76
(lp1015
S':'
asbag69
(g90
g71
NtRp1016
(dp1017
g74
(dp1018
sg83
g1004
sg76
(lp1019
g69
(g70
g71
NtRp1020
(dp1021
g74
(dp1022
g82
I3
ssg83
g1016
sg76
(lp1023
S''
asbasbasbasbasbasbasbasbasbasbasbag69
(g85
g71
NtRp1024
(dp1025
g74
(dp1026
sg83
g79
sg76
(lp1027
g69
(g90
g71
NtRp1028
(dp1029
g74
(dp1030
g94
g95
ssg83
g1024
sg76
(lp1031
S'env'
p1032
asbag69
(g90
g71
NtRp1033
(dp1034
g74
(dp1035
g101
g102
ssg83
g1024
sg76
(lp1036
S':'
asbag69
(g90
g71
NtRp1037
(dp1038
g74
(dp1039
sg83
g1024
sg76
(lp1040
g69
(g70
g71
NtRp1041
(dp1042
g74
(dp1043
g82
I5
ssg83
g1037
sg76
(lp1044
g69
(g78
g71
NtRp1045
(dp1046
g74
(dp1047
g82
I4
ssg83
Nsg76
(lp1048
g69
(g85
g71
NtRp1049
(dp1050
g74
(dp1051
sg83
g1045
sg76
(lp1052
g69
(g90
g71
NtRp1053
(dp1054
g74
(dp1055
g94
g95
ssg83
g1049
sg76
(lp1056
S'app_folders'
p1057
asbag69
(g90
g71
NtRp1058
(dp1059
g74
(dp1060
g101
g102
ssg83
g1049
sg76
(lp1061
S':'
asbag69
(g90
g71
NtRp1062
(dp1063
g74
(dp1064
sg83
g1049
sg76
(lp1065
g69
(g70
g71
NtRp1066
(dp1067
g74
(dp1068
g82
I4
ssg83
g1062
sg76
(lp1069
S"set(['/home/simran/web2py/applications/welcome/', '/home/simran/web2py/applications/music/', '/home/simran/web2py/applications/IIIT_calendars/', '/home/simran/web2py/applications/admin/'])"
p1070
asbasbasbag69
(g85
g71
NtRp1071
(dp1072
g74
(dp1073
sg83
g1045
sg76
(lp1074
g69
(g90
g71
NtRp1075
(dp1076
g74
(dp1077
g94
g95
ssg83
g1071
sg76
(lp1078
S'applications_parent'
p1079
asbag69
(g90
g71
NtRp1080
(dp1081
g74
(dp1082
g101
g102
ssg83
g1071
sg76
(lp1083
S':'
asbag69
(g90
g71
NtRp1084
(dp1085
g74
(dp1086
sg83
g1071
sg76
(lp1087
g69
(g70
g71
NtRp1088
(dp1089
g74
(dp1090
g82
I4
ssg83
g1084
sg76
(lp1091
S'/home/simran/web2py'
p1092
asbasbasbag69
(g85
g71
NtRp1093
(dp1094
g74
(dp1095
sg83
g1045
sg76
(lp1096
g69
(g90
g71
NtRp1097
(dp1098
g74
(dp1099
g94
g95
ssg83
g1093
sg76
(lp1100
S'cmd_args'
p1101
asbag69
(g90
g71
NtRp1102
(dp1103
g74
(dp1104
g101
g102
ssg83
g1093
sg76
(lp1105
S':'
asbag69
(g90
g71
NtRp1106
(dp1107
g74
(dp1108
sg83
g1093
sg76
(lp1109
g69
(g70
g71
NtRp1110
(dp1111
g74
(dp1112
g82
I4
ssg83
g1106
sg76
(lp1113
g69
(g78
g71
NtRp1114
(dp1115
g74
(dp1116
g82
I3
ssg83
Nsg76
(lp1117
sbasbasbasbag69
(g85
g71
NtRp1118
(dp1119
g74
(dp1120
sg83
g1045
sg76
(lp1121
g69
(g90
g71
NtRp1122
(dp1123
g74
(dp1124
g94
g95
ssg83
g1118
sg76
(lp1125
S'cmd_options'
p1126
asbag69
(g90
g71
NtRp1127
(dp1128
g74
(dp1129
g101
g102
ssg83
g1118
sg76
(lp1130
S':'
asbag69
(g90
g71
NtRp1131
(dp1132
g74
(dp1133
sg83
g1118
sg76
(lp1134
g69
(g70
g71
NtRp1135
(dp1136
g74
(dp1137
g82
I4
ssg83
g1131
sg76
(lp1138
S"<Values at 0x2bbe7e8: {'verbose': False, 'ip': '127.0.0.1', 'with_scheduler': False, 'ips': [], 'shutdown_timeout': 5, 'taskbar': False, 'port': 8000, 'maxthreads': None, 'softcron': False, 'server_name': 'ubuntu', 'bpython': False, 'nogui': False, 'pid_filename': 'httpserver.pid', 'extcron': False, 'runcron': False, 'run_system_tests': False, 'test': None, 'folder': '/home/simran/web2py', 'config': '', 'minthreads': None, 'winservice': '', 'shell': None, 'run': '', 'log_filename': 'httpserver.log', 'debuglevel': 30, 'args': [''], 'socket_timeout': 5, 'ssl_ca_certificate': None, 'scheduler': None, 'profiler_filename': None, 'ssl_private_key': '', 'scheduler_groups': None, 'password': '<ask>', 'request_queue_size': 5, 'ssl_certificate': '', 'cronjob': False, 'numthreads': None, 'quiet': False, 'interfaces': None, 'import_models': False, 'timeout': 10, 'plain': False, 'nobanner': False}>"
p1139
asbasbasbag69
(g85
g71
NtRp1140
(dp1141
g74
(dp1142
sg83
g1045
sg76
(lp1143
g69
(g90
g71
NtRp1144
(dp1145
g74
(dp1146
g94
g95
ssg83
g1140
sg76
(lp1147
S'db_sessions'
p1148
asbag69
(g90
g71
NtRp1149
(dp1150
g74
(dp1151
g101
g102
ssg83
g1140
sg76
(lp1152
S':'
asbag69
(g90
g71
NtRp1153
(dp1154
g74
(dp1155
sg83
g1140
sg76
(lp1156
g69
(g70
g71
NtRp1157
(dp1158
g74
(dp1159
g82
I4
ssg83
g1153
sg76
(lp1160
S'set([])'
p1161
asbasbasbag69
(g85
g71
NtRp1162
(dp1163
g74
(dp1164
sg83
g1045
sg76
(lp1165
g69
(g90
g71
NtRp1166
(dp1167
g74
(dp1168
g94
g95
ssg83
g1162
sg76
(lp1169
S'debugging'
p1170
asbag69
(g90
g71
NtRp1171
(dp1172
g74
(dp1173
g101
g102
ssg83
g1162
sg76
(lp1174
S':'
asbag69
(g90
g71
NtRp1175
(dp1176
g74
(dp1177
sg83
g1162
sg76
(lp1178
g69
(g70
g71
NtRp1179
(dp1180
g74
(dp1181
g82
I4
ssg83
g1175
sg76
(lp1182
g112
asbasbasbag69
(g85
g71
NtRp1183
(dp1184
g74
(dp1185
sg83
g1045
sg76
(lp1186
g69
(g90
g71
NtRp1187
(dp1188
g74
(dp1189
g94
g95
ssg83
g1183
sg76
(lp1190
S'gluon_parent'
p1191
asbag69
(g90
g71
NtRp1192
(dp1193
g74
(dp1194
g101
g102
ssg83
g1183
sg76
(lp1195
S':'
asbag69
(g90
g71
NtRp1196
(dp1197
g74
(dp1198
sg83
g1183
sg76
(lp1199
g69
(g70
g71
NtRp1200
(dp1201
g74
(dp1202
g82
I4
ssg83
g1196
sg76
(lp1203
S'/home/simran/web2py'
p1204
asbasbasbag69
(g85
g71
NtRp1205
(dp1206
g74
(dp1207
sg83
g1045
sg76
(lp1208
g69
(g90
g71
NtRp1209
(dp1210
g74
(dp1211
g94
g95
ssg83
g1205
sg76
(lp1212
S'http_accept'
p1213
asbag69
(g90
g71
NtRp1214
(dp1215
g74
(dp1216
g101
g102
ssg83
g1205
sg76
(lp1217
S':'
asbag69
(g90
g71
NtRp1218
(dp1219
g74
(dp1220
sg83
g1205
sg76
(lp1221
g69
(g70
g71
NtRp1222
(dp1223
g74
(dp1224
g82
I4
ssg83
g1218
sg76
(lp1225
S'text/html,application/xhtml+xml,application/xml;q=0.9,*/*;q=0.8'
p1226
asbasbasbag69
(g85
g71
NtRp1227
(dp1228
g74
(dp1229
sg83
g1045
sg76
(lp1230
g69
(g90
g71
NtRp1231
(dp1232
g74
(dp1233
g94
g95
ssg83
g1227
sg76
(lp1234
S'http_accept_encoding'
p1235
asbag69
(g90
g71
NtRp1236
(dp1237
g74
(dp1238
g101
g102
ssg83
g1227
sg76
(lp1239
S':'
asbag69
(g90
g71
NtRp1240
(dp1241
g74
(dp1242
sg83
g1227
sg76
(lp1243
g69
(g70
g71
NtRp1244
(dp1245
g74
(dp1246
g82
I4
ssg83
g1240
sg76
(lp1247
S'gzip, deflate'
p1248
asbasbasbag69
(g85
g71
NtRp1249
(dp1250
g74
(dp1251
sg83
g1045
sg76
(lp1252
g69
(g90
g71
NtRp1253
(dp1254
g74
(dp1255
g94
g95
ssg83
g1249
sg76
(lp1256
S'http_accept_language'
p1257
asbag69
(g90
g71
NtRp1258
(dp1259
g74
(dp1260
g101
g102
ssg83
g1249
sg76
(lp1261
S':'
asbag69
(g90
g71
NtRp1262
(dp1263
g74
(dp1264
sg83
g1249
sg76
(lp1265
g69
(g70
g71
NtRp1266
(dp1267
g74
(dp1268
g82
I4
ssg83
g1262
sg76
(lp1269
S'en-US,en;q=0.5'
p1270
asbasbasbag69
(g85
g71
NtRp1271
(dp1272
g74
(dp1273
sg83
g1045
sg76
(lp1274
g69
(g90
g71
NtRp1275
(dp1276
g74
(dp1277
g94
g95
ssg83
g1271
sg76
(lp1278
S'http_connection'
p1279
asbag69
(g90
g71
NtRp1280
(dp1281
g74
(dp1282
g101
g102
ssg83
g1271
sg76
(lp1283
S':'
asbag69
(g90
g71
NtRp1284
(dp1285
g74
(dp1286
sg83
g1271
sg76
(lp1287
g69
(g70
g71
NtRp1288
(dp1289
g74
(dp1290
g82
I4
ssg83
g1284
sg76
(lp1291
S'keep-alive'
p1292
asbasbasbag69
(g85
g71
NtRp1293
(dp1294
g74
(dp1295
sg83
g1045
sg76
(lp1296
g69
(g90
g71
NtRp1297
(dp1298
g74
(dp1299
g94
g95
ssg83
g1293
sg76
(lp1300
S'http_cookie'
p1301
asbag69
(g90
g71
NtRp1302
(dp1303
g74
(dp1304
g101
g102
ssg83
g1293
sg76
(lp1305
S':'
asbag69
(g90
g71
NtRp1306
(dp1307
g74
(dp1308
sg83
g1293
sg76
(lp1309
g69
(g70
g71
NtRp1310
(dp1311
g74
(dp1312
g82
I4
ssg83
g1306
sg76
(lp1313
S'session_id_welcome=127.0.0.1-63e75989-5c9b-4e21-8376-c640fec67f50; session_id_admin=127.0.0.1-801e5f78-033a-48d6-866e-01e86a808dda; session_id_iiit_calendars=127.0.0.1-b512d376-91dc-477e-99ca-2b27d7ad4a7a; session_id_music=127.0.0.1-ffabc5ec-6a02-4c65-a07f-0e2494bf9f9d'
p1314
asbasbasbag69
(g85
g71
NtRp1315
(dp1316
g74
(dp1317
sg83
g1045
sg76
(lp1318
g69
(g90
g71
NtRp1319
(dp1320
g74
(dp1321
g94
g95
ssg83
g1315
sg76
(lp1322
S'http_host'
p1323
asbag69
(g90
g71
NtRp1324
(dp1325
g74
(dp1326
g101
g102
ssg83
g1315
sg76
(lp1327
S':'
asbag69
(g90
g71
NtRp1328
(dp1329
g74
(dp1330
sg83
g1315
sg76
(lp1331
g69
(g70
g71
NtRp1332
(dp1333
g74
(dp1334
g82
I4
ssg83
g1328
sg76
(lp1335
S'127.0.0.1:8000'
p1336
asbasbasbag69
(g85
g71
NtRp1337
(dp1338
g74
(dp1339
sg83
g1045
sg76
(lp1340
g69
(g90
g71
NtRp1341
(dp1342
g74
(dp1343
g94
g95
ssg83
g1337
sg76
(lp1344
S'http_user_agent'
p1345
asbag69
(g90
g71
NtRp1346
(dp1347
g74
(dp1348
g101
g102
ssg83
g1337
sg76
(lp1349
S':'
asbag69
(g90
g71
NtRp1350
(dp1351
g74
(dp1352
sg83
g1337
sg76
(lp1353
g69
(g70
g71
NtRp1354
(dp1355
g74
(dp1356
g82
I4
ssg83
g1350
sg76
(lp1357
S'Mozilla/5.0 (X11; Ubuntu; Linux x86_64; rv:20.0) Gecko/20100101 Firefox/20.0'
p1358
asbasbasbag69
(g85
g71
NtRp1359
(dp1360
g74
(dp1361
sg83
g1045
sg76
(lp1362
g69
(g90
g71
NtRp1363
(dp1364
g74
(dp1365
g94
g95
ssg83
g1359
sg76
(lp1366
S'is_jython'
p1367
asbag69
(g90
g71
NtRp1368
(dp1369
g74
(dp1370
g101
g102
ssg83
g1359
sg76
(lp1371
S':'
asbag69
(g90
g71
NtRp1372
(dp1373
g74
(dp1374
sg83
g1359
sg76
(lp1375
g69
(g70
g71
NtRp1376
(dp1377
g74
(dp1378
g82
I4
ssg83
g1372
sg76
(lp1379
g112
asbasbasbag69
(g85
g71
NtRp1380
(dp1381
g74
(dp1382
sg83
g1045
sg76
(lp1383
g69
(g90
g71
NtRp1384
(dp1385
g74
(dp1386
g94
g95
ssg83
g1380
sg76
(lp1387
S'is_pypy'
p1388
asbag69
(g90
g71
NtRp1389
(dp1390
g74
(dp1391
g101
g102
ssg83
g1380
sg76
(lp1392
S':'
asbag69
(g90
g71
NtRp1393
(dp1394
g74
(dp1395
sg83
g1380
sg76
(lp1396
g69
(g70
g71
NtRp1397
(dp1398
g74
(dp1399
g82
I4
ssg83
g1393
sg76
(lp1400
g112
asbasbasbag69
(g85
g71
NtRp1401
(dp1402
g74
(dp1403
sg83
g1045
sg76
(lp1404
g69
(g90
g71
NtRp1405
(dp1406
g74
(dp1407
g94
g95
ssg83
g1401
sg76
(lp1408
S'local_hosts'
p1409
asbag69
(g90
g71
NtRp1410
(dp1411
g74
(dp1412
g101
g102
ssg83
g1401
sg76
(lp1413
S':'
asbag69
(g90
g71
NtRp1414
(dp1415
g74
(dp1416
sg83
g1401
sg76
(lp1417
g69
(g70
g71
NtRp1418
(dp1419
g74
(dp1420
g82
I4
ssg83
g1414
sg76
(lp1421
g69
(g78
g71
NtRp1422
(dp1423
g74
(dp1424
g82
I3
ssg83
Nsg76
(lp1425
g69
(g85
g71
NtRp1426
(dp1427
g74
(dp1428
sg83
g1422
sg76
(lp1429
g69
(g90
g71
NtRp1430
(dp1431
g74
(dp1432
sg83
g1426
sg76
(lp1433
g69
(g70
g71
NtRp1434
(dp1435
g74
(dp1436
g82
I3
ssg83
g1430
sg76
(lp1437
S'::1'
p1438
asbasbasbag69
(g85
g71
NtRp1439
(dp1440
g74
(dp1441
sg83
g1422
sg76
(lp1442
g69
(g90
g71
NtRp1443
(dp1444
g74
(dp1445
sg83
g1439
sg76
(lp1446
g69
(g70
g71
NtRp1447
(dp1448
g74
(dp1449
g82
I3
ssg83
g1443
sg76
(lp1450
S'127.0.1.1'
p1451
asbasbasbag69
(g85
g71
NtRp1452
(dp1453
g74
(dp1454
sg83
g1422
sg76
(lp1455
g69
(g90
g71
NtRp1456
(dp1457
g74
(dp1458
sg83
g1452
sg76
(lp1459
g69
(g70
g71
NtRp1460
(dp1461
g74
(dp1462
g82
I3
ssg83
g1456
sg76
(lp1463
S'::ffff:127.0.0.1'
p1464
asbasbasbag69
(g85
g71
NtRp1465
(dp1466
g74
(dp1467
sg83
g1422
sg76
(lp1468
g69
(g90
g71
NtRp1469
(dp1470
g74
(dp1471
sg83
g1465
sg76
(lp1472
g69
(g70
g71
NtRp1473
(dp1474
g74
(dp1475
g82
I3
ssg83
g1469
sg76
(lp1476
S'127.0.0.1'
p1477
asbasbasbag69
(g85
g71
NtRp1478
(dp1479
g74
(dp1480
sg83
g1422
sg76
(lp1481
g69
(g90
g71
NtRp1482
(dp1483
g74
(dp1484
sg83
g1478
sg76
(lp1485
g69
(g70
g71
NtRp1486
(dp1487
g74
(dp1488
g82
I3
ssg83
g1482
sg76
(lp1489
S'ubuntu'
p1490
asbasbasbasbasbasbasbag69
(g85
g71
NtRp1491
(dp1492
g74
(dp1493
sg83
g1045
sg76
(lp1494
g69
(g90
g71
NtRp1495
(dp1496
g74
(dp1497
g94
g95
ssg83
g1491
sg76
(lp1498
S'path_info'
p1499
asbag69
(g90
g71
NtRp1500
(dp1501
g74
(dp1502
g101
g102
ssg83
g1491
sg76
(lp1503
S':'
asbag69
(g90
g71
NtRp1504
(dp1505
g74
(dp1506
sg83
g1491
sg76
(lp1507
g69
(g70
g71
NtRp1508
(dp1509
g74
(dp1510
g82
I4
ssg83
g1504
sg76
(lp1511
S'/IIIT_calendars/default/editeventdetails.html'
p1512
asbasbasbag69
(g85
g71
NtRp1513
(dp1514
g74
(dp1515
sg83
g1045
sg76
(lp1516
g69
(g90
g71
NtRp1517
(dp1518
g74
(dp1519
g94
g95
ssg83
g1513
sg76
(lp1520
S'query_string'
p1521
asbag69
(g90
g71
NtRp1522
(dp1523
g74
(dp1524
g101
g102
ssg83
g1513
sg76
(lp1525
S':'
asbag69
(g90
g71
NtRp1526
(dp1527
g74
(dp1528
sg83
g1513
sg76
(lp1529
g69
(g70
g71
NtRp1530
(dp1531
g74
(dp1532
g82
I4
ssg83
g1526
sg76
(lp1533
S''
asbasbasbag69
(g85
g71
NtRp1534
(dp1535
g74
(dp1536
sg83
g1045
sg76
(lp1537
g69
(g90
g71
NtRp1538
(dp1539
g74
(dp1540
g94
g95
ssg83
g1534
sg76
(lp1541
S'remote_addr'
p1542
asbag69
(g90
g71
NtRp1543
(dp1544
g74
(dp1545
g101
g102
ssg83
g1534
sg76
(lp1546
S':'
asbag69
(g90
g71
NtRp1547
(dp1548
g74
(dp1549
sg83
g1534
sg76
(lp1550
g69
(g70
g71
NtRp1551
(dp1552
g74
(dp1553
g82
I4
ssg83
g1547
sg76
(lp1554
g224
asbasbasbag69
(g85
g71
NtRp1555
(dp1556
g74
(dp1557
sg83
g1045
sg76
(lp1558
g69
(g90
g71
NtRp1559
(dp1560
g74
(dp1561
g94
g95
ssg83
g1555
sg76
(lp1562
S'remote_port'
p1563
asbag69
(g90
g71
NtRp1564
(dp1565
g74
(dp1566
g101
g102
ssg83
g1555
sg76
(lp1567
S':'
asbag69
(g90
g71
NtRp1568
(dp1569
g74
(dp1570
sg83
g1555
sg76
(lp1571
g69
(g70
g71
NtRp1572
(dp1573
g74
(dp1574
g82
I4
ssg83
g1568
sg76
(lp1575
S'53510'
p1576
asbasbasbag69
(g85
g71
NtRp1577
(dp1578
g74
(dp1579
sg83
g1045
sg76
(lp1580
g69
(g90
g71
NtRp1581
(dp1582
g74
(dp1583
g94
g95
ssg83
g1577
sg76
(lp1584
S'request_method'
p1585
asbag69
(g90
g71
NtRp1586
(dp1587
g74
(dp1588
g101
g102
ssg83
g1577
sg76
(lp1589
S':'
asbag69
(g90
g71
NtRp1590
(dp1591
g74
(dp1592
sg83
g1577
sg76
(lp1593
g69
(g70
g71
NtRp1594
(dp1595
g74
(dp1596
g82
I4
ssg83
g1590
sg76
(lp1597
S'GET'
p1598
asbasbasbag69
(g85
g71
NtRp1599
(dp1600
g74
(dp1601
sg83
g1045
sg76
(lp1602
g69
(g90
g71
NtRp1603
(dp1604
g74
(dp1605
g94
g95
ssg83
g1599
sg76
(lp1606
S'request_uri'
p1607
asbag69
(g90
g71
NtRp1608
(dp1609
g74
(dp1610
g101
g102
ssg83
g1599
sg76
(lp1611
S':'
asbag69
(g90
g71
NtRp1612
(dp1613
g74
(dp1614
sg83
g1599
sg76
(lp1615
g69
(g70
g71
NtRp1616
(dp1617
g74
(dp1618
g82
I4
ssg83
g1612
sg76
(lp1619
g1512
asbasbasbag69
(g85
g71
NtRp1620
(dp1621
g74
(dp1622
sg83
g1045
sg76
(lp1623
g69
(g90
g71
NtRp1624
(dp1625
g74
(dp1626
g94
g95
ssg83
g1620
sg76
(lp1627
S'script_name'
p1628
asbag69
(g90
g71
NtRp1629
(dp1630
g74
(dp1631
g101
g102
ssg83
g1620
sg76
(lp1632
S':'
asbag69
(g90
g71
NtRp1633
(dp1634
g74
(dp1635
sg83
g1620
sg76
(lp1636
g69
(g70
g71
NtRp1637
(dp1638
g74
(dp1639
g82
I4
ssg83
g1633
sg76
(lp1640
S''
asbasbasbag69
(g85
g71
NtRp1641
(dp1642
g74
(dp1643
sg83
g1045
sg76
(lp1644
g69
(g90
g71
NtRp1645
(dp1646
g74
(dp1647
g94
g95
ssg83
g1641
sg76
(lp1648
S'server_name'
p1649
asbag69
(g90
g71
NtRp1650
(dp1651
g74
(dp1652
g101
g102
ssg83
g1641
sg76
(lp1653
S':'
asbag69
(g90
g71
NtRp1654
(dp1655
g74
(dp1656
sg83
g1641
sg76
(lp1657
g69
(g70
g71
NtRp1658
(dp1659
g74
(dp1660
g82
I4
ssg83
g1654
sg76
(lp1661
S'ubuntu'
p1662
asbasbasbag69
(g85
g71
NtRp1663
(dp1664
g74
(dp1665
sg83
g1045
sg76
(lp1666
g69
(g90
g71
NtRp1667
(dp1668
g74
(dp1669
g94
g95
ssg83
g1663
sg76
(lp1670
S'server_port'
p1671
asbag69
(g90
g71
NtRp1672
(dp1673
g74
(dp1674
g101
g102
ssg83
g1663
sg76
(lp1675
S':'
asbag69
(g90
g71
NtRp1676
(dp1677
g74
(dp1678
sg83
g1663
sg76
(lp1679
g69
(g70
g71
NtRp1680
(dp1681
g74
(dp1682
g82
I4
ssg83
g1676
sg76
(lp1683
S'8000'
p1684
asbasbasbag69
(g85
g71
NtRp1685
(dp1686
g74
(dp1687
sg83
g1045
sg76
(lp1688
g69
(g90
g71
NtRp1689
(dp1690
g74
(dp1691
g94
g95
ssg83
g1685
sg76
(lp1692
S'server_protocol'
p1693
asbag69
(g90
g71
NtRp1694
(dp1695
g74
(dp1696
g101
g102
ssg83
g1685
sg76
(lp1697
S':'
asbag69
(g90
g71
NtRp1698
(dp1699
g74
(dp1700
sg83
g1685
sg76
(lp1701
g69
(g70
g71
NtRp1702
(dp1703
g74
(dp1704
g82
I4
ssg83
g1698
sg76
(lp1705
S'HTTP/1.1'
p1706
asbasbasbag69
(g85
g71
NtRp1707
(dp1708
g74
(dp1709
sg83
g1045
sg76
(lp1710
g69
(g90
g71
NtRp1711
(dp1712
g74
(dp1713
g94
g95
ssg83
g1707
sg76
(lp1714
S'server_software'
p1715
asbag69
(g90
g71
NtRp1716
(dp1717
g74
(dp1718
g101
g102
ssg83
g1707
sg76
(lp1719
S':'
asbag69
(g90
g71
NtRp1720
(dp1721
g74
(dp1722
sg83
g1707
sg76
(lp1723
g69
(g70
g71
NtRp1724
(dp1725
g74
(dp1726
g82
I4
ssg83
g1720
sg76
(lp1727
S'Rocket 1.2.6'
p1728
asbasbasbag69
(g85
g71
NtRp1729
(dp1730
g74
(dp1731
sg83
g1045
sg76
(lp1732
g69
(g90
g71
NtRp1733
(dp1734
g74
(dp1735
g94
g95
ssg83
g1729
sg76
(lp1736
S'web2py_path'
p1737
asbag69
(g90
g71
NtRp1738
(dp1739
g74
(dp1740
g101
g102
ssg83
g1729
sg76
(lp1741
S':'
asbag69
(g90
g71
NtRp1742
(dp1743
g74
(dp1744
sg83
g1729
sg76
(lp1745
g69
(g70
g71
NtRp1746
(dp1747
g74
(dp1748
g82
I4
ssg83
g1742
sg76
(lp1749
g1092
asbasbasbag69
(g85
g71
NtRp1750
(dp1751
g74
(dp1752
sg83
g1045
sg76
(lp1753
g69
(g90
g71
NtRp1754
(dp1755
g74
(dp1756
g94
g95
ssg83
g1750
sg76
(lp1757
S'web2py_version'
p1758
asbag69
(g90
g71
NtRp1759
(dp1760
g74
(dp1761
g101
g102
ssg83
g1750
sg76
(lp1762
S':'
asbag69
(g90
g71
NtRp1763
(dp1764
g74
(dp1765
sg83
g1750
sg76
(lp1766
g69
(g70
g71
NtRp1767
(dp1768
g74
(dp1769
g82
I4
ssg83
g1763
sg76
(lp1770
g69
(g78
g71
NtRp1771
(dp1772
g74
(dp1773
g82
I3
ssg83
Nsg76
(lp1774
g69
(g85
g71
NtRp1775
(dp1776
g74
(dp1777
sg83
g1771
sg76
(lp1778
g69
(g90
g71
NtRp1779
(dp1780
g74
(dp1781
sg83
g1775
sg76
(lp1782
g69
(g70
g71
NtRp1783
(dp1784
g74
(dp1785
g82
I3
ssg83
g1779
sg76
(lp1786
S'2'
asbasbasbag69
(g85
g71
NtRp1787
(dp1788
g74
(dp1789
sg83
g1771
sg76
(lp1790
g69
(g90
g71
NtRp1791
(dp1792
g74
(dp1793
sg83
g1787
sg76
(lp1794
g69
(g70
g71
NtRp1795
(dp1796
g74
(dp1797
g82
I3
ssg83
g1791
sg76
(lp1798
S'3'
asbasbasbag69
(g85
g71
NtRp1799
(dp1800
g74
(dp1801
sg83
g1771
sg76
(lp1802
g69
(g90
g71
NtRp1803
(dp1804
g74
(dp1805
sg83
g1799
sg76
(lp1806
g69
(g70
g71
NtRp1807
(dp1808
g74
(dp1809
g82
I3
ssg83
g1803
sg76
(lp1810
S'2'
asbasbasbag69
(g85
g71
NtRp1811
(dp1812
g74
(dp1813
sg83
g1771
sg76
(lp1814
g69
(g90
g71
NtRp1815
(dp1816
g74
(dp1817
sg83
g1811
sg76
(lp1818
g69
(g70
g71
NtRp1819
(dp1820
g74
(dp1821
g82
I3
ssg83
g1815
sg76
(lp1822
S'datetime.datetime(2012, 12, 17, 15, 3, 30)'
p1823
asbasbasbag69
(g85
g71
NtRp1824
(dp1825
g74
(dp1826
sg83
g1771
sg76
(lp1827
g69
(g90
g71
NtRp1828
(dp1829
g74
(dp1830
sg83
g1824
sg76
(lp1831
g69
(g70
g71
NtRp1832
(dp1833
g74
(dp1834
g82
I3
ssg83
g1828
sg76
(lp1835
S'stable'
p1836
asbasbasbasbasbasbasbag69
(g85
g71
NtRp1837
(dp1838
g74
(dp1839
sg83
g1045
sg76
(lp1840
g69
(g90
g71
NtRp1841
(dp1842
g74
(dp1843
g94
g95
ssg83
g1837
sg76
(lp1844
S'wsgi_errors'
p1845
asbag69
(g90
g71
NtRp1846
(dp1847
g74
(dp1848
g101
g102
ssg83
g1837
sg76
(lp1849
S':'
asbag69
(g90
g71
NtRp1850
(dp1851
g74
(dp1852
sg83
g1837
sg76
(lp1853
g69
(g70
g71
NtRp1854
(dp1855
g74
(dp1856
g82
I4
ssg83
g1850
sg76
(lp1857
S"<open file '<stderr>', mode 'w' at 0x7f6fffa09270>"
p1858
asbasbasbag69
(g85
g71
NtRp1859
(dp1860
g74
(dp1861
sg83
g1045
sg76
(lp1862
g69
(g90
g71
NtRp1863
(dp1864
g74
(dp1865
g94
g95
ssg83
g1859
sg76
(lp1866
S'wsgi_file_wrapper'
p1867
asbag69
(g90
g71
NtRp1868
(dp1869
g74
(dp1870
g101
g102
ssg83
g1859
sg76
(lp1871
S':'
asbag69
(g90
g71
NtRp1872
(dp1873
g74
(dp1874
sg83
g1859
sg76
(lp1875
g69
(g70
g71
NtRp1876
(dp1877
g74
(dp1878
g82
I4
ssg83
g1872
sg76
(lp1879
S'<class wsgiref.util.FileWrapper at 0x2b28c18>'
p1880
asbasbasbag69
(g85
g71
NtRp1881
(dp1882
g74
(dp1883
sg83
g1045
sg76
(lp1884
g69
(g90
g71
NtRp1885
(dp1886
g74
(dp1887
g94
g95
ssg83
g1881
sg76
(lp1888
S'wsgi_input'
p1889
asbag69
(g90
g71
NtRp1890
(dp1891
g74
(dp1892
g101
g102
ssg83
g1881
sg76
(lp1893
S':'
asbag69
(g90
g71
NtRp1894
(dp1895
g74
(dp1896
sg83
g1881
sg76
(lp1897
g69
(g70
g71
NtRp1898
(dp1899
g74
(dp1900
g82
I4
ssg83
g1894
sg76
(lp1901
S'<socket._fileobject object at 0x7f6fec165ed0>'
p1902
asbasbasbag69
(g85
g71
NtRp1903
(dp1904
g74
(dp1905
sg83
g1045
sg76
(lp1906
g69
(g90
g71
NtRp1907
(dp1908
g74
(dp1909
g94
g95
ssg83
g1903
sg76
(lp1910
S'wsgi_multiprocess'
p1911
asbag69
(g90
g71
NtRp1912
(dp1913
g74
(dp1914
g101
g102
ssg83
g1903
sg76
(lp1915
S':'
asbag69
(g90
g71
NtRp1916
(dp1917
g74
(dp1918
sg83
g1903
sg76
(lp1919
g69
(g70
g71
NtRp1920
(dp1921
g74
(dp1922
g82
I4
ssg83
g1916
sg76
(lp1923
g112
asbasbasbag69
(g85
g71
NtRp1924
(dp1925
g74
(dp1926
sg83
g1045
sg76
(lp1927
g69
(g90
g71
NtRp1928
(dp1929
g74
(dp1930
g94
g95
ssg83
g1924
sg76
(lp1931
S'wsgi_multithread'
p1932
asbag69
(g90
g71
NtRp1933
(dp1934
g74
(dp1935
g101
g102
ssg83
g1924
sg76
(lp1936
S':'
asbag69
(g90
g71
NtRp1937
(dp1938
g74
(dp1939
sg83
g1924
sg76
(lp1940
g69
(g70
g71
NtRp1941
(dp1942
g74
(dp1943
g82
I4
ssg83
g1937
sg76
(lp1944
S'True'
p1945
asbasbasbag69
(g85
g71
NtRp1946
(dp1947
g74
(dp1948
sg83
g1045
sg76
(lp1949
g69
(g90
g71
NtRp1950
(dp1951
g74
(dp1952
g94
g95
ssg83
g1946
sg76
(lp1953
S'wsgi_run_once'
p1954
asbag69
(g90
g71
NtRp1955
(dp1956
g74
(dp1957
g101
g102
ssg83
g1946
sg76
(lp1958
S':'
asbag69
(g90
g71
NtRp1959
(dp1960
g74
(dp1961
sg83
g1946
sg76
(lp1962
g69
(g70
g71
NtRp1963
(dp1964
g74
(dp1965
g82
I4
ssg83
g1959
sg76
(lp1966
g112
asbasbasbag69
(g85
g71
NtRp1967
(dp1968
g74
(dp1969
sg83
g1045
sg76
(lp1970
g69
(g90
g71
NtRp1971
(dp1972
g74
(dp1973
g94
g95
ssg83
g1967
sg76
(lp1974
S'wsgi_url_scheme'
p1975
asbag69
(g90
g71
NtRp1976
(dp1977
g74
(dp1978
g101
g102
ssg83
g1967
sg76
(lp1979
S':'
asbag69
(g90
g71
NtRp1980
(dp1981
g74
(dp1982
sg83
g1967
sg76
(lp1983
g69
(g70
g71
NtRp1984
(dp1985
g74
(dp1986
g82
I4
ssg83
g1980
sg76
(lp1987
S'http'
p1988
asbasbasbag69
(g85
g71
NtRp1989
(dp1990
g74
(dp1991
sg83
g1045
sg76
(lp1992
g69
(g90
g71
NtRp1993
(dp1994
g74
(dp1995
g94
g95
ssg83
g1989
sg76
(lp1996
S'wsgi_version'
p1997
asbag69
(g90
g71
NtRp1998
(dp1999
g74
(dp2000
g101
g102
ssg83
g1989
sg76
(lp2001
S':'
asbag69
(g90
g71
NtRp2002
(dp2003
g74
(dp2004
sg83
g1989
sg76
(lp2005
g69
(g70
g71
NtRp2006
(dp2007
g74
(dp2008
g82
I4
ssg83
g2002
sg76
(lp2009
g69
(g78
g71
NtRp2010
(dp2011
g74
(dp2012
g82
I3
ssg83
Nsg76
(lp2013
g69
(g85
g71
NtRp2014
(dp2015
g74
(dp2016
sg83
g2010
sg76
(lp2017
g69
(g90
g71
NtRp2018
(dp2019
g74
(dp2020
sg83
g2014
sg76
(lp2021
g69
(g70
g71
NtRp2022
(dp2023
g74
(dp2024
g82
I3
ssg83
g2018
sg76
(lp2025
S'1'
asbasbasbag69
(g85
g71
NtRp2026
(dp2027
g74
(dp2028
sg83
g2010
sg76
(lp2029
g69
(g90
g71
NtRp2030
(dp2031
g74
(dp2032
sg83
g2026
sg76
(lp2033
g69
(g70
g71
NtRp2034
(dp2035
g74
(dp2036
g82
I3
ssg83
g2030
sg76
(lp2037
S'0'
asbasbasbasbasbasbasbasbasbasbasbag69
(g85
g71
NtRp2038
(dp2039
g74
(dp2040
sg83
g79
sg76
(lp2041
g69
(g90
g71
NtRp2042
(dp2043
g74
(dp2044
g94
g95
ssg83
g2038
sg76
(lp2045
S'extension'
p2046
asbag69
(g90
g71
NtRp2047
(dp2048
g74
(dp2049
g101
g102
ssg83
g2038
sg76
(lp2050
S':'
asbag69
(g90
g71
NtRp2051
(dp2052
g74
(dp2053
sg83
g2038
sg76
(lp2054
g69
(g70
g71
NtRp2055
(dp2056
g74
(dp2057
g82
I5
ssg83
g2051
sg76
(lp2058
S'html'
p2059
asbasbasbag69
(g85
g71
NtRp2060
(dp2061
g74
(dp2062
sg83
g79
sg76
(lp2063
g69
(g90
g71
NtRp2064
(dp2065
g74
(dp2066
g94
g95
ssg83
g2060
sg76
(lp2067
S'folder'
p2068
asbag69
(g90
g71
NtRp2069
(dp2070
g74
(dp2071
g101
g102
ssg83
g2060
sg76
(lp2072
S':'
asbag69
(g90
g71
NtRp2073
(dp2074
g74
(dp2075
sg83
g2060
sg76
(lp2076
g69
(g70
g71
NtRp2077
(dp2078
g74
(dp2079
g82
I5
ssg83
g2073
sg76
(lp2080
S'/home/simran/web2py/applications/IIIT_calendars/'
p2081
asbasbasbag69
(g85
g71
NtRp2082
(dp2083
g74
(dp2084
sg83
g79
sg76
(lp2085
g69
(g90
g71
NtRp2086
(dp2087
g74
(dp2088
g94
g95
ssg83
g2082
sg76
(lp2089
S'function'
p2090
asbag69
(g90
g71
NtRp2091
(dp2092
g74
(dp2093
g101
g102
ssg83
g2082
sg76
(lp2094
S':'
asbag69
(g90
g71
NtRp2095
(dp2096
g74
(dp2097
sg83
g2082
sg76
(lp2098
g69
(g70
g71
NtRp2099
(dp2100
g74
(dp2101
g82
I5
ssg83
g2095
sg76
(lp2102
S'editeventdetails'
p2103
asbasbasbag69
(g85
g71
NtRp2104
(dp2105
g74
(dp2106
sg83
g79
sg76
(lp2107
g69
(g90
g71
NtRp2108
(dp2109
g74
(dp2110
g94
g95
ssg83
g2104
sg76
(lp2111
S'get_vars'
p2112
asbag69
(g90
g71
NtRp2113
(dp2114
g74
(dp2115
g101
g102
ssg83
g2104
sg76
(lp2116
S':'
asbag69
(g90
g71
NtRp2117
(dp2118
g74
(dp2119
sg83
g2104
sg76
(lp2120
g69
(g70
g71
NtRp2121
(dp2122
g74
(dp2123
g82
I5
ssg83
g2117
sg76
(lp2124
g69
(g78
g71
NtRp2125
(dp2126
g74
(dp2127
g82
I4
ssg83
Nsg76
(lp2128
sbasbasbasbag69
(g85
g71
NtRp2129
(dp2130
g74
(dp2131
sg83
g79
sg76
(lp2132
g69
(g90
g71
NtRp2133
(dp2134
g74
(dp2135
g94
g95
ssg83
g2129
sg76
(lp2136
S'global_settings'
p2137
asbag69
(g90
g71
NtRp2138
(dp2139
g74
(dp2140
g101
g102
ssg83
g2129
sg76
(lp2141
S':'
asbag69
(g90
g71
NtRp2142
(dp2143
g74
(dp2144
sg83
g2129
sg76
(lp2145
g69
(g70
g71
NtRp2146
(dp2147
g74
(dp2148
g82
I5
ssg83
g2142
sg76
(lp2149
g69
(g78
g71
NtRp2150
(dp2151
g74
(dp2152
g82
I4
ssg83
Nsg76
(lp2153
g69
(g85
g71
NtRp2154
(dp2155
g74
(dp2156
sg83
g2150
sg76
(lp2157
g69
(g90
g71
NtRp2158
(dp2159
g74
(dp2160
g94
g95
ssg83
g2154
sg76
(lp2161
g1057
asbag69
(g90
g71
NtRp2162
(dp2163
g74
(dp2164
g101
g102
ssg83
g2154
sg76
(lp2165
S':'
asbag69
(g90
g71
NtRp2166
(dp2167
g74
(dp2168
sg83
g2154
sg76
(lp2169
g69
(g70
g71
NtRp2170
(dp2171
g74
(dp2172
g82
I4
ssg83
g2166
sg76
(lp2173
S"set(['/home/simran/web2py/applications/welcome/', '/home/simran/web2py/applications/music/', '/home/simran/web2py/applications/IIIT_calendars/', '/home/simran/web2py/applications/admin/'])"
p2174
asbasbasbag69
(g85
g71
NtRp2175
(dp2176
g74
(dp2177
sg83
g2150
sg76
(lp2178
g69
(g90
g71
NtRp2179
(dp2180
g74
(dp2181
g94
g95
ssg83
g2175
sg76
(lp2182
g1079
asbag69
(g90
g71
NtRp2183
(dp2184
g74
(dp2185
g101
g102
ssg83
g2175
sg76
(lp2186
S':'
asbag69
(g90
g71
NtRp2187
(dp2188
g74
(dp2189
sg83
g2175
sg76
(lp2190
g69
(g70
g71
NtRp2191
(dp2192
g74
(dp2193
g82
I4
ssg83
g2187
sg76
(lp2194
g1092
asbasbasbag69
(g85
g71
NtRp2195
(dp2196
g74
(dp2197
sg83
g2150
sg76
(lp2198
g69
(g90
g71
NtRp2199
(dp2200
g74
(dp2201
g94
g95
ssg83
g2195
sg76
(lp2202
g1101
asbag69
(g90
g71
NtRp2203
(dp2204
g74
(dp2205
g101
g102
ssg83
g2195
sg76
(lp2206
S':'
asbag69
(g90
g71
NtRp2207
(dp2208
g74
(dp2209
sg83
g2195
sg76
(lp2210
g69
(g70
g71
NtRp2211
(dp2212
g74
(dp2213
g82
I4
ssg83
g2207
sg76
(lp2214
g69
(g78
g71
NtRp2215
(dp2216
g74
(dp2217
g82
I3
ssg83
Nsg76
(lp2218
sbasbasbasbag69
(g85
g71
NtRp2219
(dp2220
g74
(dp2221
sg83
g2150
sg76
(lp2222
g69
(g90
g71
NtRp2223
(dp2224
g74
(dp2225
g94
g95
ssg83
g2219
sg76
(lp2226
g1126
asbag69
(g90
g71
NtRp2227
(dp2228
g74
(dp2229
g101
g102
ssg83
g2219
sg76
(lp2230
S':'
asbag69
(g90
g71
NtRp2231
(dp2232
g74
(dp2233
sg83
g2219
sg76
(lp2234
g69
(g70
g71
NtRp2235
(dp2236
g74
(dp2237
g82
I4
ssg83
g2231
sg76
(lp2238
S"<Values at 0x2bbe7e8: {'verbose': False, 'ip': '127.0.0.1', 'with_scheduler': False, 'ips': [], 'shutdown_timeout': 5, 'taskbar': False, 'port': 8000, 'maxthreads': None, 'softcron': False, 'server_name': 'ubuntu', 'bpython': False, 'nogui': False, 'pid_filename': 'httpserver.pid', 'extcron': False, 'runcron': False, 'run_system_tests': False, 'test': None, 'folder': '/home/simran/web2py', 'config': '', 'minthreads': None, 'winservice': '', 'shell': None, 'run': '', 'log_filename': 'httpserver.log', 'debuglevel': 30, 'args': [''], 'socket_timeout': 5, 'ssl_ca_certificate': None, 'scheduler': None, 'profiler_filename': None, 'ssl_private_key': '', 'scheduler_groups': None, 'password': '<ask>', 'request_queue_size': 5, 'ssl_certificate': '', 'cronjob': False, 'numthreads': None, 'quiet': False, 'interfaces': None, 'import_models': False, 'timeout': 10, 'plain': False, 'nobanner': False}>"
p2239
asbasbasbag69
(g85
g71
NtRp2240
(dp2241
g74
(dp2242
sg83
g2150
sg76
(lp2243
g69
(g90
g71
NtRp2244
(dp2245
g74
(dp2246
g94
g95
ssg83
g2240
sg76
(lp2247
g1148
asbag69
(g90
g71
NtRp2248
(dp2249
g74
(dp2250
g101
g102
ssg83
g2240
sg76
(lp2251
S':'
asbag69
(g90
g71
NtRp2252
(dp2253
g74
(dp2254
sg83
g2240
sg76
(lp2255
g69
(g70
g71
NtRp2256
(dp2257
g74
(dp2258
g82
I4
ssg83
g2252
sg76
(lp2259
S'set([])'
p2260
asbasbasbag69
(g85
g71
NtRp2261
(dp2262
g74
(dp2263
sg83
g2150
sg76
(lp2264
g69
(g90
g71
NtRp2265
(dp2266
g74
(dp2267
g94
g95
ssg83
g2261
sg76
(lp2268
g1170
asbag69
(g90
g71
NtRp2269
(dp2270
g74
(dp2271
g101
g102
ssg83
g2261
sg76
(lp2272
S':'
asbag69
(g90
g71
NtRp2273
(dp2274
g74
(dp2275
sg83
g2261
sg76
(lp2276
g69
(g70
g71
NtRp2277
(dp2278
g74
(dp2279
g82
I4
ssg83
g2273
sg76
(lp2280
g112
asbasbasbag69
(g85
g71
NtRp2281
(dp2282
g74
(dp2283
sg83
g2150
sg76
(lp2284
g69
(g90
g71
NtRp2285
(dp2286
g74
(dp2287
g94
g95
ssg83
g2281
sg76
(lp2288
g1191
asbag69
(g90
g71
NtRp2289
(dp2290
g74
(dp2291
g101
g102
ssg83
g2281
sg76
(lp2292
S':'
asbag69
(g90
g71
NtRp2293
(dp2294
g74
(dp2295
sg83
g2281
sg76
(lp2296
g69
(g70
g71
NtRp2297
(dp2298
g74
(dp2299
g82
I4
ssg83
g2293
sg76
(lp2300
g1204
asbasbasbag69
(g85
g71
NtRp2301
(dp2302
g74
(dp2303
sg83
g2150
sg76
(lp2304
g69
(g90
g71
NtRp2305
(dp2306
g74
(dp2307
g94
g95
ssg83
g2301
sg76
(lp2308
g1367
asbag69
(g90
g71
NtRp2309
(dp2310
g74
(dp2311
g101
g102
ssg83
g2301
sg76
(lp2312
S':'
asbag69
(g90
g71
NtRp2313
(dp2314
g74
(dp2315
sg83
g2301
sg76
(lp2316
g69
(g70
g71
NtRp2317
(dp2318
g74
(dp2319
g82
I4
ssg83
g2313
sg76
(lp2320
g112
asbasbasbag69
(g85
g71
NtRp2321
(dp2322
g74
(dp2323
sg83
g2150
sg76
(lp2324
g69
(g90
g71
NtRp2325
(dp2326
g74
(dp2327
g94
g95
ssg83
g2321
sg76
(lp2328
g1388
asbag69
(g90
g71
NtRp2329
(dp2330
g74
(dp2331
g101
g102
ssg83
g2321
sg76
(lp2332
S':'
asbag69
(g90
g71
NtRp2333
(dp2334
g74
(dp2335
sg83
g2321
sg76
(lp2336
g69
(g70
g71
NtRp2337
(dp2338
g74
(dp2339
g82
I4
ssg83
g2333
sg76
(lp2340
g112
asbasbasbag69
(g85
g71
NtRp2341
(dp2342
g74
(dp2343
sg83
g2150
sg76
(lp2344
g69
(g90
g71
NtRp2345
(dp2346
g74
(dp2347
g94
g95
ssg83
g2341
sg76
(lp2348
g1409
asbag69
(g90
g71
NtRp2349
(dp2350
g74
(dp2351
g101
g102
ssg83
g2341
sg76
(lp2352
S':'
asbag69
(g90
g71
NtRp2353
(dp2354
g74
(dp2355
sg83
g2341
sg76
(lp2356
g69
(g70
g71
NtRp2357
(dp2358
g74
(dp2359
g82
I4
ssg83
g2353
sg76
(lp2360
g69
(g78
g71
NtRp2361
(dp2362
g74
(dp2363
g82
I3
ssg83
Nsg76
(lp2364
g69
(g85
g71
NtRp2365
(dp2366
g74
(dp2367
sg83
g2361
sg76
(lp2368
g69
(g90
g71
NtRp2369
(dp2370
g74
(dp2371
sg83
g2365
sg76
(lp2372
g69
(g70
g71
NtRp2373
(dp2374
g74
(dp2375
g82
I3
ssg83
g2369
sg76
(lp2376
g1438
asbasbasbag69
(g85
g71
NtRp2377
(dp2378
g74
(dp2379
sg83
g2361
sg76
(lp2380
g69
(g90
g71
NtRp2381
(dp2382
g74
(dp2383
sg83
g2377
sg76
(lp2384
g69
(g70
g71
NtRp2385
(dp2386
g74
(dp2387
g82
I3
ssg83
g2381
sg76
(lp2388
g1451
asbasbasbag69
(g85
g71
NtRp2389
(dp2390
g74
(dp2391
sg83
g2361
sg76
(lp2392
g69
(g90
g71
NtRp2393
(dp2394
g74
(dp2395
sg83
g2389
sg76
(lp2396
g69
(g70
g71
NtRp2397
(dp2398
g74
(dp2399
g82
I3
ssg83
g2393
sg76
(lp2400
g1464
asbasbasbag69
(g85
g71
NtRp2401
(dp2402
g74
(dp2403
sg83
g2361
sg76
(lp2404
g69
(g90
g71
NtRp2405
(dp2406
g74
(dp2407
sg83
g2401
sg76
(lp2408
g69
(g70
g71
NtRp2409
(dp2410
g74
(dp2411
g82
I3
ssg83
g2405
sg76
(lp2412
g1477
asbasbasbag69
(g85
g71
NtRp2413
(dp2414
g74
(dp2415
sg83
g2361
sg76
(lp2416
g69
(g90
g71
NtRp2417
(dp2418
g74
(dp2419
sg83
g2413
sg76
(lp2420
g69
(g70
g71
NtRp2421
(dp2422
g74
(dp2423
g82
I3
ssg83
g2417
sg76
(lp2424
g1490
asbasbasbasbasbasbasbag69
(g85
g71
NtRp2425
(dp2426
g74
(dp2427
sg83
g2150
sg76
(lp2428
g69
(g90
g71
NtRp2429
(dp2430
g74
(dp2431
g94
g95
ssg83
g2425
sg76
(lp2432
g1758
asbag69
(g90
g71
NtRp2433
(dp2434
g74
(dp2435
g101
g102
ssg83
g2425
sg76
(lp2436
S':'
asbag69
(g90
g71
NtRp2437
(dp2438
g74
(dp2439
sg83
g2425
sg76
(lp2440
g69
(g70
g71
NtRp2441
(dp2442
g74
(dp2443
g82
I4
ssg83
g2437
sg76
(lp2444
g69
(g78
g71
NtRp2445
(dp2446
g74
(dp2447
g82
I3
ssg83
Nsg76
(lp2448
g69
(g85
g71
NtRp2449
(dp2450
g74
(dp2451
sg83
g2445
sg76
(lp2452
g69
(g90
g71
NtRp2453
(dp2454
g74
(dp2455
sg83
g2449
sg76
(lp2456
g69
(g70
g71
NtRp2457
(dp2458
g74
(dp2459
g82
I3
ssg83
g2453
sg76
(lp2460
S'2'
asbasbasbag69
(g85
g71
NtRp2461
(dp2462
g74
(dp2463
sg83
g2445
sg76
(lp2464
g69
(g90
g71
NtRp2465
(dp2466
g74
(dp2467
sg83
g2461
sg76
(lp2468
g69
(g70
g71
NtRp2469
(dp2470
g74
(dp2471
g82
I3
ssg83
g2465
sg76
(lp2472
S'3'
asbasbasbag69
(g85
g71
NtRp2473
(dp2474
g74
(dp2475
sg83
g2445
sg76
(lp2476
g69
(g90
g71
NtRp2477
(dp2478
g74
(dp2479
sg83
g2473
sg76
(lp2480
g69
(g70
g71
NtRp2481
(dp2482
g74
(dp2483
g82
I3
ssg83
g2477
sg76
(lp2484
S'2'
asbasbasbag69
(g85
g71
NtRp2485
(dp2486
g74
(dp2487
sg83
g2445
sg76
(lp2488
g69
(g90
g71
NtRp2489
(dp2490
g74
(dp2491
sg83
g2485
sg76
(lp2492
g69
(g70
g71
NtRp2493
(dp2494
g74
(dp2495
g82
I3
ssg83
g2489
sg76
(lp2496
S'datetime.datetime(2012, 12, 17, 15, 3, 30)'
p2497
asbasbasbag69
(g85
g71
NtRp2498
(dp2499
g74
(dp2500
sg83
g2445
sg76
(lp2501
g69
(g90
g71
NtRp2502
(dp2503
g74
(dp2504
sg83
g2498
sg76
(lp2505
g69
(g70
g71
NtRp2506
(dp2507
g74
(dp2508
g82
I3
ssg83
g2502
sg76
(lp2509
g1836
asbasbasbasbasbasbasbasbasbasbasbag69
(g85
g71
NtRp2510
(dp2511
g74
(dp2512
sg83
g79
sg76
(lp2513
g69
(g90
g71
NtRp2514
(dp2515
g74
(dp2516
g94
g95
ssg83
g2510
sg76
(lp2517
S'is_https'
p2518
asbag69
(g90
g71
NtRp2519
(dp2520
g74
(dp2521
g101
g102
ssg83
g2510
sg76
(lp2522
S':'
asbag69
(g90
g71
NtRp2523
(dp2524
g74
(dp2525
sg83
g2510
sg76
(lp2526
g69
(g70
g71
NtRp2527
(dp2528
g74
(dp2529
g82
I5
ssg83
g2523
sg76
(lp2530
g112
asbasbasbag69
(g85
g71
NtRp2531
(dp2532
g74
(dp2533
sg83
g79
sg76
(lp2534
g69
(g90
g71
NtRp2535
(dp2536
g74
(dp2537
g94
g95
ssg83
g2531
sg76
(lp2538
S'is_local'
p2539
asbag69
(g90
g71
NtRp2540
(dp2541
g74
(dp2542
g101
g102
ssg83
g2531
sg76
(lp2543
S':'
asbag69
(g90
g71
NtRp2544
(dp2545
g74
(dp2546
sg83
g2531
sg76
(lp2547
g69
(g70
g71
NtRp2548
(dp2549
g74
(dp2550
g82
I5
ssg83
g2544
sg76
(lp2551
g1945
asbasbasbag69
(g85
g71
NtRp2552
(dp2553
g74
(dp2554
sg83
g79
sg76
(lp2555
g69
(g90
g71
NtRp2556
(dp2557
g74
(dp2558
g94
g95
ssg83
g2552
sg76
(lp2559
S'is_restful'
p2560
asbag69
(g90
g71
NtRp2561
(dp2562
g74
(dp2563
g101
g102
ssg83
g2552
sg76
(lp2564
S':'
asbag69
(g90
g71
NtRp2565
(dp2566
g74
(dp2567
sg83
g2552
sg76
(lp2568
g69
(g70
g71
NtRp2569
(dp2570
g74
(dp2571
g82
I5
ssg83
g2565
sg76
(lp2572
g112
asbasbasbag69
(g85
g71
NtRp2573
(dp2574
g74
(dp2575
sg83
g79
sg76
(lp2576
g69
(g90
g71
NtRp2577
(dp2578
g74
(dp2579
g94
g95
ssg83
g2573
sg76
(lp2580
S'now'
p2581
asbag69
(g90
g71
NtRp2582
(dp2583
g74
(dp2584
g101
g102
ssg83
g2573
sg76
(lp2585
S':'
asbag69
(g90
g71
NtRp2586
(dp2587
g74
(dp2588
sg83
g2573
sg76
(lp2589
g69
(g70
g71
NtRp2590
(dp2591
g74
(dp2592
g82
I5
ssg83
g2586
sg76
(lp2593
S'datetime.datetime(2013, 4, 14, 17, 58, 41, 972115)'
p2594
asbasbasbag69
(g85
g71
NtRp2595
(dp2596
g74
(dp2597
sg83
g79
sg76
(lp2598
g69
(g90
g71
NtRp2599
(dp2600
g74
(dp2601
g94
g95
ssg83
g2595
sg76
(lp2602
S'post_vars'
p2603
asbag69
(g90
g71
NtRp2604
(dp2605
g74
(dp2606
g101
g102
ssg83
g2595
sg76
(lp2607
S':'
asbag69
(g90
g71
NtRp2608
(dp2609
g74
(dp2610
sg83
g2595
sg76
(lp2611
g69
(g70
g71
NtRp2612
(dp2613
g74
(dp2614
g82
I5
ssg83
g2608
sg76
(lp2615
g69
(g78
g71
NtRp2616
(dp2617
g74
(dp2618
g82
I4
ssg83
Nsg76
(lp2619
sbasbasbasbag69
(g85
g71
NtRp2620
(dp2621
g74
(dp2622
sg83
g79
sg76
(lp2623
g69
(g90
g71
NtRp2624
(dp2625
g74
(dp2626
g94
g95
ssg83
g2620
sg76
(lp2627
S'raw_args'
p2628
asbag69
(g90
g71
NtRp2629
(dp2630
g74
(dp2631
g101
g102
ssg83
g2620
sg76
(lp2632
S':'
asbag69
(g90
g71
NtRp2633
(dp2634
g74
(dp2635
sg83
g2620
sg76
(lp2636
g69
(g70
g71
NtRp2637
(dp2638
g74
(dp2639
g82
I5
ssg83
g2633
sg76
(lp2640
S''
asbasbasbag69
(g85
g71
NtRp2641
(dp2642
g74
(dp2643
sg83
g79
sg76
(lp2644
g69
(g90
g71
NtRp2645
(dp2646
g74
(dp2647
g94
g95
ssg83
g2641
sg76
(lp2648
S'raw_extension'
p2649
asbag69
(g90
g71
NtRp2650
(dp2651
g74
(dp2652
g101
g102
ssg83
g2641
sg76
(lp2653
S':'
asbag69
(g90
g71
NtRp2654
(dp2655
g74
(dp2656
sg83
g2641
sg76
(lp2657
g69
(g70
g71
NtRp2658
(dp2659
g74
(dp2660
g82
I5
ssg83
g2654
sg76
(lp2661
g2059
asbasbasbag69
(g85
g71
NtRp2662
(dp2663
g74
(dp2664
sg83
g79
sg76
(lp2665
g69
(g90
g71
NtRp2666
(dp2667
g74
(dp2668
g94
g95
ssg83
g2662
sg76
(lp2669
S'url'
p2670
asbag69
(g90
g71
NtRp2671
(dp2672
g74
(dp2673
g101
g102
ssg83
g2662
sg76
(lp2674
S':'
asbag69
(g90
g71
NtRp2675
(dp2676
g74
(dp2677
sg83
g2662
sg76
(lp2678
g69
(g70
g71
NtRp2679
(dp2680
g74
(dp2681
g82
I5
ssg83
g2675
sg76
(lp2682
g1512
asbasbasbag69
(g85
g71
NtRp2683
(dp2684
g74
(dp2685
sg83
g79
sg76
(lp2686
g69
(g90
g71
NtRp2687
(dp2688
g74
(dp2689
g94
g95
ssg83
g2683
sg76
(lp2690
S'utcnow'
p2691
asbag69
(g90
g71
NtRp2692
(dp2693
g74
(dp2694
g101
g102
ssg83
g2683
sg76
(lp2695
S':'
asbag69
(g90
g71
NtRp2696
(dp2697
g74
(dp2698
sg83
g2683
sg76
(lp2699
g69
(g70
g71
NtRp2700
(dp2701
g74
(dp2702
g82
I5
ssg83
g2696
sg76
(lp2703
S'datetime.datetime(2013, 4, 14, 12, 28, 41, 972156)'
p2704
asbasbasbag69
(g85
g71
NtRp2705
(dp2706
g74
(dp2707
sg83
g79
sg76
(lp2708
g69
(g90
g71
NtRp2709
(dp2710
g74
(dp2711
g94
g95
ssg83
g2705
sg76
(lp2712
S'uuid'
p2713
asbag69
(g90
g71
NtRp2714
(dp2715
g74
(dp2716
g101
g102
ssg83
g2705
sg76
(lp2717
S':'
asbag69
(g90
g71
NtRp2718
(dp2719
g74
(dp2720
sg83
g2705
sg76
(lp2721
g69
(g70
g71
NtRp2722
(dp2723
g74
(dp2724
g82
I5
ssg83
g2718
sg76
(lp2725
S'IIIT_calendars/127.0.0.1.2013-04-14.17-58-41.716ad7fd-f7bf-4578-8b51-bf3d8f51a17f'
p2726
asbasbasbag69
(g85
g71
NtRp2727
(dp2728
g74
(dp2729
sg83
g79
sg76
(lp2730
g69
(g90
g71
NtRp2731
(dp2732
g74
(dp2733
g94
g95
ssg83
g2727
sg76
(lp2734
S'vars'
p2735
asbag69
(g90
g71
NtRp2736
(dp2737
g74
(dp2738
g101
g102
ssg83
g2727
sg76
(lp2739
S':'
asbag69
(g90
g71
NtRp2740
(dp2741
g74
(dp2742
sg83
g2727
sg76
(lp2743
g69
(g70
g71
NtRp2744
(dp2745
g74
(dp2746
g82
I5
ssg83
g2740
sg76
(lp2747
g69
(g78
g71
NtRp2748
(dp2749
g74
(dp2750
g82
I4
ssg83
Nsg76
(lp2751
sbasbasbasbag69
(g85
g71
NtRp2752
(dp2753
g74
(dp2754
sg83
g79
sg76
(lp2755
g69
(g90
g71
NtRp2756
(dp2757
g74
(dp2758
g94
g95
ssg83
g2752
sg76
(lp2759
S'wsgi'
p2760
asbag69
(g90
g71
NtRp2761
(dp2762
g74
(dp2763
g101
g102
ssg83
g2752
sg76
(lp2764
S':'
asbag69
(g90
g71
NtRp2765
(dp2766
g74
(dp2767
sg83
g2752
sg76
(lp2768
g69
(g70
g71
NtRp2769
(dp2770
g74
(dp2771
g82
I5
ssg83
g2765
sg76
(lp2772
g69
(g78
g71
NtRp2773
(dp2774
g74
(dp2775
g82
I4
ssg83
Nsg76
(lp2776
g69
(g85
g71
NtRp2777
(dp2778
g74
(dp2779
sg83
g2773
sg76
(lp2780
g69
(g90
g71
NtRp2781
(dp2782
g74
(dp2783
g94
g95
ssg83
g2777
sg76
(lp2784
S'environ'
p2785
asbag69
(g90
g71
NtRp2786
(dp2787
g74
(dp2788
g101
g102
ssg83
g2777
sg76
(lp2789
S':'
asbag69
(g90
g71
NtRp2790
(dp2791
g74
(dp2792
sg83
g2777
sg76
(lp2793
g69
(g70
g71
NtRp2794
(dp2795
g74
(dp2796
g82
I4
ssg83
g2790
sg76
(lp2797
g69
(g78
g71
NtRp2798
(dp2799
g74
(dp2800
g82
I3
ssg83
Nsg76
(lp2801
g69
(g85
g71
NtRp2802
(dp2803
g74
(dp2804
sg83
g2798
sg76
(lp2805
g69
(g90
g71
NtRp2806
(dp2807
g74
(dp2808
g94
g95
ssg83
g2802
sg76
(lp2809
S'HTTP_ACCEPT'
p2810
asbag69
(g90
g71
NtRp2811
(dp2812
g74
(dp2813
g101
g102
ssg83
g2802
sg76
(lp2814
S':'
asbag69
(g90
g71
NtRp2815
(dp2816
g74
(dp2817
sg83
g2802
sg76
(lp2818
g69
(g70
g71
NtRp2819
(dp2820
g74
(dp2821
g82
I3
ssg83
g2815
sg76
(lp2822
g1226
asbasbasbag69
(g85
g71
NtRp2823
(dp2824
g74
(dp2825
sg83
g2798
sg76
(lp2826
g69
(g90
g71
NtRp2827
(dp2828
g74
(dp2829
g94
g95
ssg83
g2823
sg76
(lp2830
S'HTTP_ACCEPT_ENCODING'
p2831
asbag69
(g90
g71
NtRp2832
(dp2833
g74
(dp2834
g101
g102
ssg83
g2823
sg76
(lp2835
S':'
asbag69
(g90
g71
NtRp2836
(dp2837
g74
(dp2838
sg83
g2823
sg76
(lp2839
g69
(g70
g71
NtRp2840
(dp2841
g74
(dp2842
g82
I3
ssg83
g2836
sg76
(lp2843
g1248
asbasbasbag69
(g85
g71
NtRp2844
(dp2845
g74
(dp2846
sg83
g2798
sg76
(lp2847
g69
(g90
g71
NtRp2848
(dp2849
g74
(dp2850
g94
g95
ssg83
g2844
sg76
(lp2851
S'HTTP_ACCEPT_LANGUAGE'
p2852
asbag69
(g90
g71
NtRp2853
(dp2854
g74
(dp2855
g101
g102
ssg83
g2844
sg76
(lp2856
S':'
asbag69
(g90
g71
NtRp2857
(dp2858
g74
(dp2859
sg83
g2844
sg76
(lp2860
g69
(g70
g71
NtRp2861
(dp2862
g74
(dp2863
g82
I3
ssg83
g2857
sg76
(lp2864
g1270
asbasbasbag69
(g85
g71
NtRp2865
(dp2866
g74
(dp2867
sg83
g2798
sg76
(lp2868
g69
(g90
g71
NtRp2869
(dp2870
g74
(dp2871
g94
g95
ssg83
g2865
sg76
(lp2872
S'HTTP_CONNECTION'
p2873
asbag69
(g90
g71
NtRp2874
(dp2875
g74
(dp2876
g101
g102
ssg83
g2865
sg76
(lp2877
S':'
asbag69
(g90
g71
NtRp2878
(dp2879
g74
(dp2880
sg83
g2865
sg76
(lp2881
g69
(g70
g71
NtRp2882
(dp2883
g74
(dp2884
g82
I3
ssg83
g2878
sg76
(lp2885
g1292
asbasbasbag69
(g85
g71
NtRp2886
(dp2887
g74
(dp2888
sg83
g2798
sg76
(lp2889
g69
(g90
g71
NtRp2890
(dp2891
g74
(dp2892
g94
g95
ssg83
g2886
sg76
(lp2893
S'HTTP_COOKIE'
p2894
asbag69
(g90
g71
NtRp2895
(dp2896
g74
(dp2897
g101
g102
ssg83
g2886
sg76
(lp2898
S':'
asbag69
(g90
g71
NtRp2899
(dp2900
g74
(dp2901
sg83
g2886
sg76
(lp2902
g69
(g70
g71
NtRp2903
(dp2904
g74
(dp2905
g82
I3
ssg83
g2899
sg76
(lp2906
g1314
asbasbasbag69
(g85
g71
NtRp2907
(dp2908
g74
(dp2909
sg83
g2798
sg76
(lp2910
g69
(g90
g71
NtRp2911
(dp2912
g74
(dp2913
g94
g95
ssg83
g2907
sg76
(lp2914
S'HTTP_HOST'
p2915
asbag69
(g90
g71
NtRp2916
(dp2917
g74
(dp2918
g101
g102
ssg83
g2907
sg76
(lp2919
S':'
asbag69
(g90
g71
NtRp2920
(dp2921
g74
(dp2922
sg83
g2907
sg76
(lp2923
g69
(g70
g71
NtRp2924
(dp2925
g74
(dp2926
g82
I3
ssg83
g2920
sg76
(lp2927
g1336
asbasbasbag69
(g85
g71
NtRp2928
(dp2929
g74
(dp2930
sg83
g2798
sg76
(lp2931
g69
(g90
g71
NtRp2932
(dp2933
g74
(dp2934
g94
g95
ssg83
g2928
sg76
(lp2935
S'HTTP_USER_AGENT'
p2936
asbag69
(g90
g71
NtRp2937
(dp2938
g74
(dp2939
g101
g102
ssg83
g2928
sg76
(lp2940
S':'
asbag69
(g90
g71
NtRp2941
(dp2942
g74
(dp2943
sg83
g2928
sg76
(lp2944
g69
(g70
g71
NtRp2945
(dp2946
g74
(dp2947
g82
I3
ssg83
g2941
sg76
(lp2948
g1358
asbasbasbag69
(g85
g71
NtRp2949
(dp2950
g74
(dp2951
sg83
g2798
sg76
(lp2952
g69
(g90
g71
NtRp2953
(dp2954
g74
(dp2955
g94
g95
ssg83
g2949
sg76
(lp2956
S'PATH_INFO'
p2957
asbag69
(g90
g71
NtRp2958
(dp2959
g74
(dp2960
g101
g102
ssg83
g2949
sg76
(lp2961
S':'
asbag69
(g90
g71
NtRp2962
(dp2963
g74
(dp2964
sg83
g2949
sg76
(lp2965
g69
(g70
g71
NtRp2966
(dp2967
g74
(dp2968
g82
I3
ssg83
g2962
sg76
(lp2969
g1512
asbasbasbag69
(g85
g71
NtRp2970
(dp2971
g74
(dp2972
sg83
g2798
sg76
(lp2973
g69
(g90
g71
NtRp2974
(dp2975
g74
(dp2976
g94
g95
ssg83
g2970
sg76
(lp2977
S'QUERY_STRING'
p2978
asbag69
(g90
g71
NtRp2979
(dp2980
g74
(dp2981
g101
g102
ssg83
g2970
sg76
(lp2982
S':'
asbag69
(g90
g71
NtRp2983
(dp2984
g74
(dp2985
sg83
g2970
sg76
(lp2986
g69
(g70
g71
NtRp2987
(dp2988
g74
(dp2989
g82
I3
ssg83
g2983
sg76
(lp2990
S''
asbasbasbag69
(g85
g71
NtRp2991
(dp2992
g74
(dp2993
sg83
g2798
sg76
(lp2994
g69
(g90
g71
NtRp2995
(dp2996
g74
(dp2997
g94
g95
ssg83
g2991
sg76
(lp2998
S'REMOTE_ADDR'
p2999
asbag69
(g90
g71
NtRp3000
(dp3001
g74
(dp3002
g101
g102
ssg83
g2991
sg76
(lp3003
S':'
asbag69
(g90
g71
NtRp3004
(dp3005
g74
(dp3006
sg83
g2991
sg76
(lp3007
g69
(g70
g71
NtRp3008
(dp3009
g74
(dp3010
g82
I3
ssg83
g3004
sg76
(lp3011
g224
asbasbasbag69
(g85
g71
NtRp3012
(dp3013
g74
(dp3014
sg83
g2798
sg76
(lp3015
g69
(g90
g71
NtRp3016
(dp3017
g74
(dp3018
g94
g95
ssg83
g3012
sg76
(lp3019
S'REMOTE_PORT'
p3020
asbag69
(g90
g71
NtRp3021
(dp3022
g74
(dp3023
g101
g102
ssg83
g3012
sg76
(lp3024
S':'
asbag69
(g90
g71
NtRp3025
(dp3026
g74
(dp3027
sg83
g3012
sg76
(lp3028
g69
(g70
g71
NtRp3029
(dp3030
g74
(dp3031
g82
I3
ssg83
g3025
sg76
(lp3032
g1576
asbasbasbag69
(g85
g71
NtRp3033
(dp3034
g74
(dp3035
sg83
g2798
sg76
(lp3036
g69
(g90
g71
NtRp3037
(dp3038
g74
(dp3039
g94
g95
ssg83
g3033
sg76
(lp3040
S'REQUEST_METHOD'
p3041
asbag69
(g90
g71
NtRp3042
(dp3043
g74
(dp3044
g101
g102
ssg83
g3033
sg76
(lp3045
S':'
asbag69
(g90
g71
NtRp3046
(dp3047
g74
(dp3048
sg83
g3033
sg76
(lp3049
g69
(g70
g71
NtRp3050
(dp3051
g74
(dp3052
g82
I3
ssg83
g3046
sg76
(lp3053
g1598
asbasbasbag69
(g85
g71
NtRp3054
(dp3055
g74
(dp3056
sg83
g2798
sg76
(lp3057
g69
(g90
g71
NtRp3058
(dp3059
g74
(dp3060
g94
g95
ssg83
g3054
sg76
(lp3061
S'REQUEST_URI'
p3062
asbag69
(g90
g71
NtRp3063
(dp3064
g74
(dp3065
g101
g102
ssg83
g3054
sg76
(lp3066
S':'
asbag69
(g90
g71
NtRp3067
(dp3068
g74
(dp3069
sg83
g3054
sg76
(lp3070
g69
(g70
g71
NtRp3071
(dp3072
g74
(dp3073
g82
I3
ssg83
g3067
sg76
(lp3074
g1512
asbasbasbag69
(g85
g71
NtRp3075
(dp3076
g74
(dp3077
sg83
g2798
sg76
(lp3078
g69
(g90
g71
NtRp3079
(dp3080
g74
(dp3081
g94
g95
ssg83
g3075
sg76
(lp3082
S'SCRIPT_NAME'
p3083
asbag69
(g90
g71
NtRp3084
(dp3085
g74
(dp3086
g101
g102
ssg83
g3075
sg76
(lp3087
S':'
asbag69
(g90
g71
NtRp3088
(dp3089
g74
(dp3090
sg83
g3075
sg76
(lp3091
g69
(g70
g71
NtRp3092
(dp3093
g74
(dp3094
g82
I3
ssg83
g3088
sg76
(lp3095
S''
asbasbasbag69
(g85
g71
NtRp3096
(dp3097
g74
(dp3098
sg83
g2798
sg76
(lp3099
g69
(g90
g71
NtRp3100
(dp3101
g74
(dp3102
g94
g95
ssg83
g3096
sg76
(lp3103
S'SERVER_NAME'
p3104
asbag69
(g90
g71
NtRp3105
(dp3106
g74
(dp3107
g101
g102
ssg83
g3096
sg76
(lp3108
S':'
asbag69
(g90
g71
NtRp3109
(dp3110
g74
(dp3111
sg83
g3096
sg76
(lp3112
g69
(g70
g71
NtRp3113
(dp3114
g74
(dp3115
g82
I3
ssg83
g3109
sg76
(lp3116
g1662
asbasbasbag69
(g85
g71
NtRp3117
(dp3118
g74
(dp3119
sg83
g2798
sg76
(lp3120
g69
(g90
g71
NtRp3121
(dp3122
g74
(dp3123
g94
g95
ssg83
g3117
sg76
(lp3124
S'SERVER_PORT'
p3125
asbag69
(g90
g71
NtRp3126
(dp3127
g74
(dp3128
g101
g102
ssg83
g3117
sg76
(lp3129
S':'
asbag69
(g90
g71
NtRp3130
(dp3131
g74
(dp3132
sg83
g3117
sg76
(lp3133
g69
(g70
g71
NtRp3134
(dp3135
g74
(dp3136
g82
I3
ssg83
g3130
sg76
(lp3137
g1684
asbasbasbag69
(g85
g71
NtRp3138
(dp3139
g74
(dp3140
sg83
g2798
sg76
(lp3141
g69
(g90
g71
NtRp3142
(dp3143
g74
(dp3144
g94
g95
ssg83
g3138
sg76
(lp3145
S'SERVER_PROTOCOL'
p3146
asbag69
(g90
g71
NtRp3147
(dp3148
g74
(dp3149
g101
g102
ssg83
g3138
sg76
(lp3150
S':'
asbag69
(g90
g71
NtRp3151
(dp3152
g74
(dp3153
sg83
g3138
sg76
(lp3154
g69
(g70
g71
NtRp3155
(dp3156
g74
(dp3157
g82
I3
ssg83
g3151
sg76
(lp3158
g1706
asbasbasbag69
(g85
g71
NtRp3159
(dp3160
g74
(dp3161
sg83
g2798
sg76
(lp3162
g69
(g90
g71
NtRp3163
(dp3164
g74
(dp3165
g94
g95
ssg83
g3159
sg76
(lp3166
S'SERVER_SOFTWARE'
p3167
asbag69
(g90
g71
NtRp3168
(dp3169
g74
(dp3170
g101
g102
ssg83
g3159
sg76
(lp3171
S':'
asbag69
(g90
g71
NtRp3172
(dp3173
g74
(dp3174
sg83
g3159
sg76
(lp3175
g69
(g70
g71
NtRp3176
(dp3177
g74
(dp3178
g82
I3
ssg83
g3172
sg76
(lp3179
g1728
asbasbasbag69
(g85
g71
NtRp3180
(dp3181
g74
(dp3182
sg83
g2798
sg76
(lp3183
g69
(g90
g71
NtRp3184
(dp3185
g74
(dp3186
g94
g95
ssg83
g3180
sg76
(lp3187
S'wsgi.errors'
p3188
asbag69
(g90
g71
NtRp3189
(dp3190
g74
(dp3191
g101
g102
ssg83
g3180
sg76
(lp3192
S':'
asbag69
(g90
g71
NtRp3193
(dp3194
g74
(dp3195
sg83
g3180
sg76
(lp3196
g69
(g70
g71
NtRp3197
(dp3198
g74
(dp3199
g82
I3
ssg83
g3193
sg76
(lp3200
S"<open file '<stderr>', mode 'w' at 0x7f6fffa09270>"
p3201
asbasbasbag69
(g85
g71
NtRp3202
(dp3203
g74
(dp3204
sg83
g2798
sg76
(lp3205
g69
(g90
g71
NtRp3206
(dp3207
g74
(dp3208
g94
g95
ssg83
g3202
sg76
(lp3209
S'wsgi.file_wrapper'
p3210
asbag69
(g90
g71
NtRp3211
(dp3212
g74
(dp3213
g101
g102
ssg83
g3202
sg76
(lp3214
S':'
asbag69
(g90
g71
NtRp3215
(dp3216
g74
(dp3217
sg83
g3202
sg76
(lp3218
g69
(g70
g71
NtRp3219
(dp3220
g74
(dp3221
g82
I3
ssg83
g3215
sg76
(lp3222
S'<class wsgiref.util.FileWrapper at 0x2b28c18>'
p3223
asbasbasbag69
(g85
g71
NtRp3224
(dp3225
g74
(dp3226
sg83
g2798
sg76
(lp3227
g69
(g90
g71
NtRp3228
(dp3229
g74
(dp3230
g94
g95
ssg83
g3224
sg76
(lp3231
S'wsgi.input'
p3232
asbag69
(g90
g71
NtRp3233
(dp3234
g74
(dp3235
g101
g102
ssg83
g3224
sg76
(lp3236
S':'
asbag69
(g90
g71
NtRp3237
(dp3238
g74
(dp3239
sg83
g3224
sg76
(lp3240
g69
(g70
g71
NtRp3241
(dp3242
g74
(dp3243
g82
I3
ssg83
g3237
sg76
(lp3244
S'<cStringIO.StringO object at 0x7f6fd0275c00>'
p3245
asbasbasbag69
(g85
g71
NtRp3246
(dp3247
g74
(dp3248
sg83
g2798
sg76
(lp3249
g69
(g90
g71
NtRp3250
(dp3251
g74
(dp3252
g94
g95
ssg83
g3246
sg76
(lp3253
S'wsgi.multiprocess'
p3254
asbag69
(g90
g71
NtRp3255
(dp3256
g74
(dp3257
g101
g102
ssg83
g3246
sg76
(lp3258
S':'
asbag69
(g90
g71
NtRp3259
(dp3260
g74
(dp3261
sg83
g3246
sg76
(lp3262
g69
(g70
g71
NtRp3263
(dp3264
g74
(dp3265
g82
I3
ssg83
g3259
sg76
(lp3266
g112
asbasbasbag69
(g85
g71
NtRp3267
(dp3268
g74
(dp3269
sg83
g2798
sg76
(lp3270
g69
(g90
g71
NtRp3271
(dp3272
g74
(dp3273
g94
g95
ssg83
g3267
sg76
(lp3274
S'wsgi.multithread'
p3275
asbag69
(g90
g71
NtRp3276
(dp3277
g74
(dp3278
g101
g102
ssg83
g3267
sg76
(lp3279
S':'
asbag69
(g90
g71
NtRp3280
(dp3281
g74
(dp3282
sg83
g3267
sg76
(lp3283
g69
(g70
g71
NtRp3284
(dp3285
g74
(dp3286
g82
I3
ssg83
g3280
sg76
(lp3287
g1945
asbasbasbag69
(g85
g71
NtRp3288
(dp3289
g74
(dp3290
sg83
g2798
sg76
(lp3291
g69
(g90
g71
NtRp3292
(dp3293
g74
(dp3294
g94
g95
ssg83
g3288
sg76
(lp3295
S'wsgi.run_once'
p3296
asbag69
(g90
g71
NtRp3297
(dp3298
g74
(dp3299
g101
g102
ssg83
g3288
sg76
(lp3300
S':'
asbag69
(g90
g71
NtRp3301
(dp3302
g74
(dp3303
sg83
g3288
sg76
(lp3304
g69
(g70
g71
NtRp3305
(dp3306
g74
(dp3307
g82
I3
ssg83
g3301
sg76
(lp3308
g112
asbasbasbag69
(g85
g71
NtRp3309
(dp3310
g74
(dp3311
sg83
g2798
sg76
(lp3312
g69
(g90
g71
NtRp3313
(dp3314
g74
(dp3315
g94
g95
ssg83
g3309
sg76
(lp3316
S'wsgi.url_scheme'
p3317
asbag69
(g90
g71
NtRp3318
(dp3319
g74
(dp3320
g101
g102
ssg83
g3309
sg76
(lp3321
S':'
asbag69
(g90
g71
NtRp3322
(dp3323
g74
(dp3324
sg83
g3309
sg76
(lp3325
g69
(g70
g71
NtRp3326
(dp3327
g74
(dp3328
g82
I3
ssg83
g3322
sg76
(lp3329
g1988
asbasbasbag69
(g85
g71
NtRp3330
(dp3331
g74
(dp3332
sg83
g2798
sg76
(lp3333
g69
(g90
g71
NtRp3334
(dp3335
g74
(dp3336
g94
g95
ssg83
g3330
sg76
(lp3337
S'wsgi.version'
p3338
asbag69
(g90
g71
NtRp3339
(dp3340
g74
(dp3341
g101
g102
ssg83
g3330
sg76
(lp3342
S':'
asbag69
(g90
g71
NtRp3343
(dp3344
g74
(dp3345
sg83
g3330
sg76
(lp3346
g69
(g70
g71
NtRp3347
(dp3348
g74
(dp3349
g82
I3
ssg83
g3343
sg76
(lp3350
S'1'
asbasbasbasbasbasbasbasbasbasbasbasbasbsS'frames'
p3351
(lp3352
(dp3353
S'file'
p3354
S'/home/simran/web2py/gluon/restricted.py'
p3355
sS'dump'
p3356
(dp3357
S'code'
p3358
S'\'response.write(\\\'<!DOCTYPE html>\\\\n<!-- paulirish....(\\\'"></script>\\\\n</body>\\\\n</html>\\\\n\\\', escape=False)\''
p3359
sS'layer'
p3360
S"'/home/simran/web2py/applications/IIIT_calendars/views/default/editeventdetails.html'"
p3361
sS'global compile2'
p3362
S'<function compile2>'
p3363
sS'ccode'
p3364
S'undefined'
p3365
ssS'lnum'
p3366
I211
sS'lines'
p3367
(dp3368
I206
S"    environment['__name__'] = '__restricted__'"
p3369
sI207
S'    try:'
p3370
sI208
S'        if isinstance(code, types.CodeType):'
p3371
sI209
S'            ccode = code'
p3372
sI210
S'        else:'
p3373
sI211
S'            ccode = compile2(code, layer)'
p3374
sI212
S'        exec ccode in environment'
p3375
sI213
S'    except HTTP:'
p3376
sI214
S'        raise'
p3377
sI215
S'    except RestrictedError:'
p3378
ssS'call'
p3379
S'(code=\'response.write(\\\'<!DOCTYPE html>\\\\n<!-- paulirish....(\\\'"></script>\\\\n</body>\\\\n</html>\\\\n\\\', escape=False)\', environment={\'A\': <class \'gluon.html.A\'>, \'Auth\': <class \'gluon.tools.Auth\'>, \'B\': <class \'gluon.html.B\'>, \'BEAUTIFY\': <class \'gluon.html.BEAUTIFY\'>, \'BODY\': <class \'gluon.html.BODY\'>, \'BR\': <class \'gluon.html.BR\'>, \'BUTTON\': <class \'gluon.html.BUTTON\'>, \'CAT\': <class \'gluon.html.CAT\'>, \'CENTER\': <class \'gluon.html.CENTER\'>, \'CLEANUP\': <class \'gluon.validators.CLEANUP\'>, ...}, layer=\'/home/simran/web2py/applications/IIIT_calendars/views/default/editeventdetails.html\')'
p3380
sS'func'
p3381
S'restricted'
p3382
sa(dp3383
g3354
S'/home/simran/web2py/gluon/restricted.py'
p3384
sg3356
(dp3385
S'builtincompile'
p3386
S'<built-in function compile>'
p3387
sS'code'
p3388
S'\'response.write(\\\'<!DOCTYPE html>\\\\n<!-- paulirish....(\\\'"></script>\\\\n</body>\\\\n</html>\\\\n\\\', escape=False)\''
p3389
sS'code.rstrip'
p3390
S'<built-in method rstrip of str object>'
p3391
sS').replace'
p3392
g3365
sS'layer'
p3393
S"'/home/simran/web2py/applications/IIIT_calendars/views/default/editeventdetails.html'"
p3394
ssg3366
I194
sg3367
(dp3395
I192
S"    The +'\\n' is necessary else compile fails when code ends in a comment."
p3396
sI193
S'    """'
p3397
sI194
S"    return compile(code.rstrip().replace('\\r\\n', '\\n') + '\\n', layer, 'exec')"
p3398
sI195
S''
sI196
S''
sI197
S"def restricted(code, environment=None, layer='Unknown'):"
p3399
sI198
S'    """'
p3400
sI189
S''
sI190
S'def compile2(code, layer):'
p3401
sI191
S'    """'
p3402
ssg3379
S'(code=\'response.write(\\\'<!DOCTYPE html>\\\\n<!-- paulirish....(\\\'"></script>\\\\n</body>\\\\n</html>\\\\n\\\', escape=False)\', layer=\'/home/simran/web2py/applications/IIIT_calendars/views/default/editeventdetails.html\')'
p3403
sg3381
S'compile2'
p3404
sasS'pyver'
p3405
S'Python 2.7.3: /usr/bin/python'
p3406
sS'session'
p3407
g69
(g70
g71
NtRp3408
(dp3409
g74
(dp3410
sg76
(lp3411
g69
(g78
g71
NtRp3412
(dp3413
g74
(dp3414
g82
I5
ssg83
Nsg76
(lp3415
g69
(g85
g71
NtRp3416
(dp3417
g74
(dp3418
sg83
g3412
sg76
(lp3419
g69
(g90
g71
NtRp3420
(dp3421
g74
(dp3422
g94
g95
ssg83
g3416
sg76
(lp3423
S'auth'
p3424
asbag69
(g90
g71
NtRp3425
(dp3426
g74
(dp3427
g101
g102
ssg83
g3416
sg76
(lp3428
S':'
asbag69
(g90
g71
NtRp3429
(dp3430
g74
(dp3431
sg83
g3416
sg76
(lp3432
g69
(g70
g71
NtRp3433
(dp3434
g74
(dp3435
g82
I5
ssg83
g3429
sg76
(lp3436
g69
(g78
g71
NtRp3437
(dp3438
g74
(dp3439
g82
I4
ssg83
Nsg76
(lp3440
g69
(g85
g71
NtRp3441
(dp3442
g74
(dp3443
sg83
g3437
sg76
(lp3444
g69
(g90
g71
NtRp3445
(dp3446
g74
(dp3447
g94
g95
ssg83
g3441
sg76
(lp3448
S'expiration'
p3449
asbag69
(g90
g71
NtRp3450
(dp3451
g74
(dp3452
g101
g102
ssg83
g3441
sg76
(lp3453
S':'
asbag69
(g90
g71
NtRp3454
(dp3455
g74
(dp3456
sg83
g3441
sg76
(lp3457
g69
(g70
g71
NtRp3458
(dp3459
g74
(dp3460
g82
I4
ssg83
g3454
sg76
(lp3461
S'3600'
p3462
asbasbasbag69
(g85
g71
NtRp3463
(dp3464
g74
(dp3465
sg83
g3437
sg76
(lp3466
g69
(g90
g71
NtRp3467
(dp3468
g74
(dp3469
g94
g95
ssg83
g3463
sg76
(lp3470
S'hmac_key'
p3471
asbag69
(g90
g71
NtRp3472
(dp3473
g74
(dp3474
g101
g102
ssg83
g3463
sg76
(lp3475
S':'
asbag69
(g90
g71
NtRp3476
(dp3477
g74
(dp3478
sg83
g3463
sg76
(lp3479
g69
(g70
g71
NtRp3480
(dp3481
g74
(dp3482
g82
I4
ssg83
g3476
sg76
(lp3483
S'64d5f87f-0b13-4c5a-ad52-b9c2cf7797c1'
p3484
asbasbasbag69
(g85
g71
NtRp3485
(dp3486
g74
(dp3487
sg83
g3437
sg76
(lp3488
g69
(g90
g71
NtRp3489
(dp3490
g74
(dp3491
g94
g95
ssg83
g3485
sg76
(lp3492
S'last_visit'
p3493
asbag69
(g90
g71
NtRp3494
(dp3495
g74
(dp3496
g101
g102
ssg83
g3485
sg76
(lp3497
S':'
asbag69
(g90
g71
NtRp3498
(dp3499
g74
(dp3500
sg83
g3485
sg76
(lp3501
g69
(g70
g71
NtRp3502
(dp3503
g74
(dp3504
g82
I4
ssg83
g3498
sg76
(lp3505
S'datetime.datetime(2013, 4, 14, 17, 57, 51, 995898)'
p3506
asbasbasbag69
(g85
g71
NtRp3507
(dp3508
g74
(dp3509
sg83
g3437
sg76
(lp3510
g69
(g90
g71
NtRp3511
(dp3512
g74
(dp3513
g94
g95
ssg83
g3507
sg76
(lp3514
S'remember'
p3515
asbag69
(g90
g71
NtRp3516
(dp3517
g74
(dp3518
g101
g102
ssg83
g3507
sg76
(lp3519
S':'
asbag69
(g90
g71
NtRp3520
(dp3521
g74
(dp3522
sg83
g3507
sg76
(lp3523
g69
(g70
g71
NtRp3524
(dp3525
g74
(dp3526
g82
I4
ssg83
g3520
sg76
(lp3527
g112
asbasbasbag69
(g85
g71
NtRp3528
(dp3529
g74
(dp3530
sg83
g3437
sg76
(lp3531
g69
(g90
g71
NtRp3532
(dp3533
g74
(dp3534
g94
g95
ssg83
g3528
sg76
(lp3535
S'user'
p3536
asbag69
(g90
g71
NtRp3537
(dp3538
g74
(dp3539
g101
g102
ssg83
g3528
sg76
(lp3540
S':'
asbag69
(g90
g71
NtRp3541
(dp3542
g74
(dp3543
sg83
g3528
sg76
(lp3544
g69
(g70
g71
NtRp3545
(dp3546
g74
(dp3547
g82
I4
ssg83
g3541
sg76
(lp3548
g69
(g78
g71
NtRp3549
(dp3550
g74
(dp3551
g82
I3
ssg83
Nsg76
(lp3552
g69
(g85
g71
NtRp3553
(dp3554
g74
(dp3555
sg83
g3549
sg76
(lp3556
g69
(g90
g71
NtRp3557
(dp3558
g74
(dp3559
g94
g95
ssg83
g3553
sg76
(lp3560
S'email'
p3561
asbag69
(g90
g71
NtRp3562
(dp3563
g74
(dp3564
g101
g102
ssg83
g3553
sg76
(lp3565
S':'
asbag69
(g90
g71
NtRp3566
(dp3567
g74
(dp3568
sg83
g3553
sg76
(lp3569
g69
(g70
g71
NtRp3570
(dp3571
g74
(dp3572
g82
I3
ssg83
g3566
sg76
(lp3573
S'simikedia93@gmail.com'
p3574
asbasbasbag69
(g85
g71
NtRp3575
(dp3576
g74
(dp3577
sg83
g3549
sg76
(lp3578
g69
(g90
g71
NtRp3579
(dp3580
g74
(dp3581
g94
g95
ssg83
g3575
sg76
(lp3582
S'first_name'
p3583
asbag69
(g90
g71
NtRp3584
(dp3585
g74
(dp3586
g101
g102
ssg83
g3575
sg76
(lp3587
S':'
asbag69
(g90
g71
NtRp3588
(dp3589
g74
(dp3590
sg83
g3575
sg76
(lp3591
g69
(g70
g71
NtRp3592
(dp3593
g74
(dp3594
g82
I3
ssg83
g3588
sg76
(lp3595
S'Simran'
p3596
asbasbasbag69
(g85
g71
NtRp3597
(dp3598
g74
(dp3599
sg83
g3549
sg76
(lp3600
g69
(g90
g71
NtRp3601
(dp3602
g74
(dp3603
g94
g95
ssg83
g3597
sg76
(lp3604
S'id'
p3605
asbag69
(g90
g71
NtRp3606
(dp3607
g74
(dp3608
g101
g102
ssg83
g3597
sg76
(lp3609
S':'
asbag69
(g90
g71
NtRp3610
(dp3611
g74
(dp3612
sg83
g3597
sg76
(lp3613
g69
(g70
g71
NtRp3614
(dp3615
g74
(dp3616
g82
I3
ssg83
g3610
sg76
(lp3617
S'17'
p3618
asbasbasbag69
(g85
g71
NtRp3619
(dp3620
g74
(dp3621
sg83
g3549
sg76
(lp3622
g69
(g90
g71
NtRp3623
(dp3624
g74
(dp3625
g94
g95
ssg83
g3619
sg76
(lp3626
S'last_name'
p3627
asbag69
(g90
g71
NtRp3628
(dp3629
g74
(dp3630
g101
g102
ssg83
g3619
sg76
(lp3631
S':'
asbag69
(g90
g71
NtRp3632
(dp3633
g74
(dp3634
sg83
g3619
sg76
(lp3635
g69
(g70
g71
NtRp3636
(dp3637
g74
(dp3638
g82
I3
ssg83
g3632
sg76
(lp3639
S'Kedia'
p3640
asbasbasbag69
(g85
g71
NtRp3641
(dp3642
g74
(dp3643
sg83
g3549
sg76
(lp3644
g69
(g90
g71
NtRp3645
(dp3646
g74
(dp3647
g94
g95
ssg83
g3641
sg76
(lp3648
S'registration_id'
p3649
asbag69
(g90
g71
NtRp3650
(dp3651
g74
(dp3652
g101
g102
ssg83
g3641
sg76
(lp3653
S':'
asbag69
(g90
g71
NtRp3654
(dp3655
g74
(dp3656
sg83
g3641
sg76
(lp3657
g69
(g70
g71
NtRp3658
(dp3659
g74
(dp3660
g82
I3
ssg83
g3654
sg76
(lp3661
S''
asbasbasbag69
(g85
g71
NtRp3662
(dp3663
g74
(dp3664
sg83
g3549
sg76
(lp3665
g69
(g90
g71
NtRp3666
(dp3667
g74
(dp3668
g94
g95
ssg83
g3662
sg76
(lp3669
S'registration_key'
p3670
asbag69
(g90
g71
NtRp3671
(dp3672
g74
(dp3673
g101
g102
ssg83
g3662
sg76
(lp3674
S':'
asbag69
(g90
g71
NtRp3675
(dp3676
g74
(dp3677
sg83
g3662
sg76
(lp3678
g69
(g70
g71
NtRp3679
(dp3680
g74
(dp3681
g82
I3
ssg83
g3675
sg76
(lp3682
S''
asbasbasbag69
(g85
g71
NtRp3683
(dp3684
g74
(dp3685
sg83
g3549
sg76
(lp3686
g69
(g90
g71
NtRp3687
(dp3688
g74
(dp3689
g94
g95
ssg83
g3683
sg76
(lp3690
S'reset_password_key'
p3691
asbag69
(g90
g71
NtRp3692
(dp3693
g74
(dp3694
g101
g102
ssg83
g3683
sg76
(lp3695
S':'
asbag69
(g90
g71
NtRp3696
(dp3697
g74
(dp3698
sg83
g3683
sg76
(lp3699
g69
(g70
g71
NtRp3700
(dp3701
g74
(dp3702
g82
I3
ssg83
g3696
sg76
(lp3703
S''
asbasbasbasbasbasbasbag69
(g85
g71
NtRp3704
(dp3705
g74
(dp3706
sg83
g3437
sg76
(lp3707
g69
(g90
g71
NtRp3708
(dp3709
g74
(dp3710
g94
g95
ssg83
g3704
sg76
(lp3711
S'user_groups'
p3712
asbag69
(g90
g71
NtRp3713
(dp3714
g74
(dp3715
g101
g102
ssg83
g3704
sg76
(lp3716
S':'
asbag69
(g90
g71
NtRp3717
(dp3718
g74
(dp3719
sg83
g3704
sg76
(lp3720
g69
(g70
g71
NtRp3721
(dp3722
g74
(dp3723
g82
I4
ssg83
g3717
sg76
(lp3724
g69
(g78
g71
NtRp3725
(dp3726
g74
(dp3727
g82
I3
ssg83
Nsg76
(lp3728
g69
(g85
g71
NtRp3729
(dp3730
g74
(dp3731
sg83
g3725
sg76
(lp3732
g69
(g90
g71
NtRp3733
(dp3734
g74
(dp3735
g94
g95
ssg83
g3729
sg76
(lp3736
S'17'
p3737
asbag69
(g90
g71
NtRp3738
(dp3739
g74
(dp3740
g101
g102
ssg83
g3729
sg76
(lp3741
S':'
asbag69
(g90
g71
NtRp3742
(dp3743
g74
(dp3744
sg83
g3729
sg76
(lp3745
g69
(g70
g71
NtRp3746
(dp3747
g74
(dp3748
g82
I3
ssg83
g3742
sg76
(lp3749
S'user_17'
p3750
asbasbasbasbasbasbasbasbasbasbasbag69
(g85
g71
NtRp3751
(dp3752
g74
(dp3753
sg83
g3412
sg76
(lp3754
g69
(g90
g71
NtRp3755
(dp3756
g74
(dp3757
g94
g95
ssg83
g3751
sg76
(lp3758
S'flash'
p3759
asbag69
(g90
g71
NtRp3760
(dp3761
g74
(dp3762
g101
g102
ssg83
g3751
sg76
(lp3763
S':'
asbag69
(g90
g71
NtRp3764
(dp3765
g74
(dp3766
sg83
g3751
sg76
(lp3767
g69
(g70
g71
NtRp3768
(dp3769
g74
(dp3770
g82
I5
ssg83
g3764
sg76
(lp3771
S'None'
p3772
asbasbasbag69
(g85
g71
NtRp3773
(dp3774
g74
(dp3775
sg83
g3412
sg76
(lp3776
g69
(g90
g71
NtRp3777
(dp3778
g74
(dp3779
g94
g95
ssg83
g3773
sg76
(lp3780
S'last_orderby'
p3781
asbag69
(g90
g71
NtRp3782
(dp3783
g74
(dp3784
g101
g102
ssg83
g3773
sg76
(lp3785
S':'
asbag69
(g90
g71
NtRp3786
(dp3787
g74
(dp3788
sg83
g3773
sg76
(lp3789
g69
(g70
g71
NtRp3790
(dp3791
g74
(dp3792
g82
I5
ssg83
g3786
sg76
(lp3793
S'None'
p3794
asbasbasbag69
(g85
g71
NtRp3795
(dp3796
g74
(dp3797
sg83
g3412
sg76
(lp3798
g69
(g90
g71
NtRp3799
(dp3800
g74
(dp3801
g94
g95
ssg83
g3795
sg76
(lp3802
S'last_query'
p3803
asbag69
(g90
g71
NtRp3804
(dp3805
g74
(dp3806
g101
g102
ssg83
g3795
sg76
(lp3807
S':'
asbag69
(g90
g71
NtRp3808
(dp3809
g74
(dp3810
sg83
g3795
sg76
(lp3811
g69
(g70
g71
NtRp3812
(dp3813
g74
(dp3814
g82
I5
ssg83
g3808
sg76
(lp3815
S'db.events.id>0'
p3816
asbasbasbasbasbsS'etype'
p3817
S"<type 'exceptions.SyntaxError'>"
p3818
sS'date'
p3819
S'Sun Apr 14 17:58:41 2013'
p3820
sS'response'
p3821
g69
(g70
g71
NtRp3822
(dp3823
g74
(dp3824
sg76
(lp3825
g69
(g78
g71
NtRp3826
(dp3827
g74
(dp3828
g82
I5
ssg83
Nsg76
(lp3829
g69
(g85
g71
NtRp3830
(dp3831
g74
(dp3832
sg83
g3826
sg76
(lp3833
g69
(g90
g71
NtRp3834
(dp3835
g74
(dp3836
g94
g95
ssg83
g3830
sg76
(lp3837
g167
asbag69
(g90
g71
NtRp3838
(dp3839
g74
(dp3840
g101
g102
ssg83
g3830
sg76
(lp3841
S':'
asbag69
(g90
g71
NtRp3842
(dp3843
g74
(dp3844
sg83
g3830
sg76
(lp3845
g69
(g70
g71
NtRp3846
(dp3847
g74
(dp3848
g82
I5
ssg83
g3842
sg76
(lp3849
S'<cStringIO.StringO object at 0x7f6fe01ff9d0>'
p3850
asbasbasbag69
(g85
g71
NtRp3851
(dp3852
g74
(dp3853
sg83
g3826
sg76
(lp3854
g69
(g90
g71
NtRp3855
(dp3856
g74
(dp3857
g94
g95
ssg83
g3851
sg76
(lp3858
g255
asbag69
(g90
g71
NtRp3859
(dp3860
g74
(dp3861
g101
g102
ssg83
g3851
sg76
(lp3862
S':'
asbag69
(g90
g71
NtRp3863
(dp3864
g74
(dp3865
sg83
g3851
sg76
(lp3866
g69
(g70
g71
NtRp3867
(dp3868
g74
(dp3869
g82
I5
ssg83
g3863
sg76
(lp3870
g69
(g78
g71
NtRp3871
(dp3872
g74
(dp3873
g82
I4
ssg83
Nsg76
(lp3874
g69
(g85
g71
NtRp3875
(dp3876
g74
(dp3877
sg83
g3871
sg76
(lp3878
g69
(g90
g71
NtRp3879
(dp3880
g74
(dp3881
g94
g95
ssg83
g3875
sg76
(lp3882
S'session_id_iiit_calendars'
p3883
asbag69
(g90
g71
NtRp3884
(dp3885
g74
(dp3886
g101
g102
ssg83
g3875
sg76
(lp3887
S':'
asbag69
(g90
g71
NtRp3888
(dp3889
g74
(dp3890
sg83
g3875
sg76
(lp3891
g69
(g70
g71
NtRp3892
(dp3893
g74
(dp3894
g82
I4
ssg83
g3888
sg76
(lp3895
g487
ag69
(g78
g71
NtRp3896
(dp3897
g74
(dp3898
g82
I3
ssg83
Nsg76
(lp3899
g69
(g85
g71
NtRp3900
(dp3901
g74
(dp3902
sg83
g3896
sg76
(lp3903
g69
(g90
g71
NtRp3904
(dp3905
g74
(dp3906
g94
g95
ssg83
g3900
sg76
(lp3907
g306
asbag69
(g90
g71
NtRp3908
(dp3909
g74
(dp3910
g101
g102
ssg83
g3900
sg76
(lp3911
S':'
asbag69
(g90
g71
NtRp3912
(dp3913
g74
(dp3914
sg83
g3900
sg76
(lp3915
g69
(g70
g71
NtRp3916
(dp3917
g74
(dp3918
g82
I3
ssg83
g3912
sg76
(lp3919
S''
asbasbasbag69
(g85
g71
NtRp3920
(dp3921
g74
(dp3922
sg83
g3896
sg76
(lp3923
g69
(g90
g71
NtRp3924
(dp3925
g74
(dp3926
g94
g95
ssg83
g3920
sg76
(lp3927
g327
asbag69
(g90
g71
NtRp3928
(dp3929
g74
(dp3930
g101
g102
ssg83
g3920
sg76
(lp3931
S':'
asbag69
(g90
g71
NtRp3932
(dp3933
g74
(dp3934
sg83
g3920
sg76
(lp3935
g69
(g70
g71
NtRp3936
(dp3937
g74
(dp3938
g82
I3
ssg83
g3932
sg76
(lp3939
S''
asbasbasbag69
(g85
g71
NtRp3940
(dp3941
g74
(dp3942
sg83
g3896
sg76
(lp3943
g69
(g90
g71
NtRp3944
(dp3945
g74
(dp3946
g94
g95
ssg83
g3940
sg76
(lp3947
g348
asbag69
(g90
g71
NtRp3948
(dp3949
g74
(dp3950
g101
g102
ssg83
g3940
sg76
(lp3951
S':'
asbag69
(g90
g71
NtRp3952
(dp3953
g74
(dp3954
sg83
g3940
sg76
(lp3955
g69
(g70
g71
NtRp3956
(dp3957
g74
(dp3958
g82
I3
ssg83
g3952
sg76
(lp3959
S''
asbasbasbag69
(g85
g71
NtRp3960
(dp3961
g74
(dp3962
sg83
g3896
sg76
(lp3963
g69
(g90
g71
NtRp3964
(dp3965
g74
(dp3966
g94
g95
ssg83
g3960
sg76
(lp3967
g369
asbag69
(g90
g71
NtRp3968
(dp3969
g74
(dp3970
g101
g102
ssg83
g3960
sg76
(lp3971
S':'
asbag69
(g90
g71
NtRp3972
(dp3973
g74
(dp3974
sg83
g3960
sg76
(lp3975
g69
(g70
g71
NtRp3976
(dp3977
g74
(dp3978
g82
I3
ssg83
g3972
sg76
(lp3979
S''
asbasbasbag69
(g85
g71
NtRp3980
(dp3981
g74
(dp3982
sg83
g3896
sg76
(lp3983
g69
(g90
g71
NtRp3984
(dp3985
g74
(dp3986
g94
g95
ssg83
g3980
sg76
(lp3987
g390
asbag69
(g90
g71
NtRp3988
(dp3989
g74
(dp3990
g101
g102
ssg83
g3980
sg76
(lp3991
S':'
asbag69
(g90
g71
NtRp3992
(dp3993
g74
(dp3994
sg83
g3980
sg76
(lp3995
g69
(g70
g71
NtRp3996
(dp3997
g74
(dp3998
g82
I3
ssg83
g3992
sg76
(lp3999
S''
asbasbasbag69
(g85
g71
NtRp4000
(dp4001
g74
(dp4002
sg83
g3896
sg76
(lp4003
g69
(g90
g71
NtRp4004
(dp4005
g74
(dp4006
g94
g95
ssg83
g4000
sg76
(lp4007
g411
asbag69
(g90
g71
NtRp4008
(dp4009
g74
(dp4010
g101
g102
ssg83
g4000
sg76
(lp4011
S':'
asbag69
(g90
g71
NtRp4012
(dp4013
g74
(dp4014
sg83
g4000
sg76
(lp4015
g69
(g70
g71
NtRp4016
(dp4017
g74
(dp4018
g82
I3
ssg83
g4012
sg76
(lp4019
S'/'
asbasbasbag69
(g85
g71
NtRp4020
(dp4021
g74
(dp4022
sg83
g3896
sg76
(lp4023
g69
(g90
g71
NtRp4024
(dp4025
g74
(dp4026
g94
g95
ssg83
g4020
sg76
(lp4027
g432
asbag69
(g90
g71
NtRp4028
(dp4029
g74
(dp4030
g101
g102
ssg83
g4020
sg76
(lp4031
S':'
asbag69
(g90
g71
NtRp4032
(dp4033
g74
(dp4034
sg83
g4020
sg76
(lp4035
g69
(g70
g71
NtRp4036
(dp4037
g74
(dp4038
g82
I3
ssg83
g4032
sg76
(lp4039
S''
asbasbasbag69
(g85
g71
NtRp4040
(dp4041
g74
(dp4042
sg83
g3896
sg76
(lp4043
g69
(g90
g71
NtRp4044
(dp4045
g74
(dp4046
g94
g95
ssg83
g4040
sg76
(lp4047
g453
asbag69
(g90
g71
NtRp4048
(dp4049
g74
(dp4050
g101
g102
ssg83
g4040
sg76
(lp4051
S':'
asbag69
(g90
g71
NtRp4052
(dp4053
g74
(dp4054
sg83
g4040
sg76
(lp4055
g69
(g70
g71
NtRp4056
(dp4057
g74
(dp4058
g82
I3
ssg83
g4052
sg76
(lp4059
S''
asbasbasbasbasbasbasbasbasbasbasbag69
(g85
g71
NtRp4060
(dp4061
g74
(dp4062
sg83
g3826
sg76
(lp4063
g69
(g90
g71
NtRp4064
(dp4065
g74
(dp4066
g94
g95
ssg83
g4060
sg76
(lp4067
S'delimiters'
p4068
asbag69
(g90
g71
NtRp4069
(dp4070
g74
(dp4071
g101
g102
ssg83
g4060
sg76
(lp4072
S':'
asbag69
(g90
g71
NtRp4073
(dp4074
g74
(dp4075
sg83
g4060
sg76
(lp4076
g69
(g70
g71
NtRp4077
(dp4078
g74
(dp4079
g82
I5
ssg83
g4073
sg76
(lp4080
g69
(g78
g71
NtRp4081
(dp4082
g74
(dp4083
g82
I4
ssg83
Nsg76
(lp4084
g69
(g85
g71
NtRp4085
(dp4086
g74
(dp4087
sg83
g4081
sg76
(lp4088
g69
(g90
g71
NtRp4089
(dp4090
g74
(dp4091
sg83
g4085
sg76
(lp4092
g69
(g70
g71
NtRp4093
(dp4094
g74
(dp4095
g82
I4
ssg83
g4089
sg76
(lp4096
S'{{'
p4097
asbasbasbag69
(g85
g71
NtRp4098
(dp4099
g74
(dp4100
sg83
g4081
sg76
(lp4101
g69
(g90
g71
NtRp4102
(dp4103
g74
(dp4104
sg83
g4098
sg76
(lp4105
g69
(g70
g71
NtRp4106
(dp4107
g74
(dp4108
g82
I4
ssg83
g4102
sg76
(lp4109
S'}}'
p4110
asbasbasbasbasbasbasbag69
(g85
g71
NtRp4111
(dp4112
g74
(dp4113
sg83
g3826
sg76
(lp4114
g69
(g90
g71
NtRp4115
(dp4116
g74
(dp4117
g94
g95
ssg83
g4111
sg76
(lp4118
S'files'
p4119
asbag69
(g90
g71
NtRp4120
(dp4121
g74
(dp4122
g101
g102
ssg83
g4111
sg76
(lp4123
S':'
asbag69
(g90
g71
NtRp4124
(dp4125
g74
(dp4126
sg83
g4111
sg76
(lp4127
g69
(g70
g71
NtRp4128
(dp4129
g74
(dp4130
g82
I5
ssg83
g4124
sg76
(lp4131
g69
(g78
g71
NtRp4132
(dp4133
g74
(dp4134
g82
I4
ssg83
Nsg76
(lp4135
sbasbasbasbag69
(g85
g71
NtRp4136
(dp4137
g74
(dp4138
sg83
g3826
sg76
(lp4139
g69
(g90
g71
NtRp4140
(dp4141
g74
(dp4142
g94
g95
ssg83
g4136
sg76
(lp4143
S'flash'
p4144
asbag69
(g90
g71
NtRp4145
(dp4146
g74
(dp4147
g101
g102
ssg83
g4136
sg76
(lp4148
S':'
asbag69
(g90
g71
NtRp4149
(dp4150
g74
(dp4151
sg83
g4136
sg76
(lp4152
g69
(g70
g71
NtRp4153
(dp4154
g74
(dp4155
g82
I5
ssg83
g4149
sg76
(lp4156
S''
asbasbasbag69
(g85
g71
NtRp4157
(dp4158
g74
(dp4159
sg83
g3826
sg76
(lp4160
g69
(g90
g71
NtRp4161
(dp4162
g74
(dp4163
g94
g95
ssg83
g4157
sg76
(lp4164
S'generic_patterns'
p4165
asbag69
(g90
g71
NtRp4166
(dp4167
g74
(dp4168
g101
g102
ssg83
g4157
sg76
(lp4169
S':'
asbag69
(g90
g71
NtRp4170
(dp4171
g74
(dp4172
sg83
g4157
sg76
(lp4173
g69
(g70
g71
NtRp4174
(dp4175
g74
(dp4176
g82
I5
ssg83
g4170
sg76
(lp4177
g69
(g78
g71
NtRp4178
(dp4179
g74
(dp4180
g82
I4
ssg83
Nsg76
(lp4181
g69
(g85
g71
NtRp4182
(dp4183
g74
(dp4184
sg83
g4178
sg76
(lp4185
g69
(g90
g71
NtRp4186
(dp4187
g74
(dp4188
sg83
g4182
sg76
(lp4189
g69
(g70
g71
NtRp4190
(dp4191
g74
(dp4192
g82
I4
ssg83
g4186
sg76
(lp4193
S'*'
asbasbasbasbasbasbasbag69
(g85
g71
NtRp4194
(dp4195
g74
(dp4196
sg83
g3826
sg76
(lp4197
g69
(g90
g71
NtRp4198
(dp4199
g74
(dp4200
g94
g95
ssg83
g4194
sg76
(lp4201
S'google_analytics_id'
p4202
asbag69
(g90
g71
NtRp4203
(dp4204
g74
(dp4205
g101
g102
ssg83
g4194
sg76
(lp4206
S':'
asbag69
(g90
g71
NtRp4207
(dp4208
g74
(dp4209
sg83
g4194
sg76
(lp4210
g69
(g70
g71
NtRp4211
(dp4212
g74
(dp4213
g82
I5
ssg83
g4207
sg76
(lp4214
S'None'
p4215
asbasbasbag69
(g85
g71
NtRp4216
(dp4217
g74
(dp4218
sg83
g3826
sg76
(lp4219
g69
(g90
g71
NtRp4220
(dp4221
g74
(dp4222
g94
g95
ssg83
g4216
sg76
(lp4223
S'headers'
p4224
asbag69
(g90
g71
NtRp4225
(dp4226
g74
(dp4227
g101
g102
ssg83
g4216
sg76
(lp4228
S':'
asbag69
(g90
g71
NtRp4229
(dp4230
g74
(dp4231
sg83
g4216
sg76
(lp4232
g69
(g70
g71
NtRp4233
(dp4234
g74
(dp4235
g82
I5
ssg83
g4229
sg76
(lp4236
g69
(g78
g71
NtRp4237
(dp4238
g74
(dp4239
g82
I4
ssg83
Nsg76
(lp4240
g69
(g85
g71
NtRp4241
(dp4242
g74
(dp4243
sg83
g4237
sg76
(lp4244
g69
(g90
g71
NtRp4245
(dp4246
g74
(dp4247
g94
g95
ssg83
g4241
sg76
(lp4248
S'X-Powered-By'
p4249
asbag69
(g90
g71
NtRp4250
(dp4251
g74
(dp4252
g101
g102
ssg83
g4241
sg76
(lp4253
S':'
asbag69
(g90
g71
NtRp4254
(dp4255
g74
(dp4256
sg83
g4241
sg76
(lp4257
g69
(g70
g71
NtRp4258
(dp4259
g74
(dp4260
g82
I4
ssg83
g4254
sg76
(lp4261
S'web2py'
p4262
asbasbasbasbasbasbasbag69
(g85
g71
NtRp4263
(dp4264
g74
(dp4265
sg83
g3826
sg76
(lp4266
g69
(g90
g71
NtRp4267
(dp4268
g74
(dp4269
g94
g95
ssg83
g4263
sg76
(lp4270
S'logo'
p4271
asbag69
(g90
g71
NtRp4272
(dp4273
g74
(dp4274
g101
g102
ssg83
g4263
sg76
(lp4275
S':'
asbag69
(g90
g71
NtRp4276
(dp4277
g74
(dp4278
sg83
g4263
sg76
(lp4279
g69
(g70
g71
NtRp4280
(dp4281
g74
(dp4282
g82
I5
ssg83
g4276
sg76
(lp4283
g69
(cgluon.html
A
p4284
g71
NtRp4285
(dp4286
g74
(dp4287
S'_class'
p4288
S'brand'
p4289
sS'_href'
p4290
S'http://www.web2py.com/'
p4291
ssg83
Nsg76
(lp4292
g69
(cgluon.html
B
p4293
g71
NtRp4294
(dp4295
g74
(dp4296
sg83
g4285
sg76
(lp4297
S'web'
p4298
ag69
(cgluon.html
SPAN
p4299
g71
NtRp4300
(dp4301
g74
(dp4302
sg83
g4294
sg76
(lp4303
I2
asbaS'py'
p4304
asbacgluon.html
XML_unpickle
p4305
(S's\r\x00\x00\x00&trade;&nbsp;'
tRp4306
asbasbasbasbag69
(g85
g71
NtRp4307
(dp4308
g74
(dp4309
sg83
g3826
sg76
(lp4310
g69
(g90
g71
NtRp4311
(dp4312
g74
(dp4313
g94
g95
ssg83
g4307
sg76
(lp4314
S'menu'
p4315
asbag69
(g90
g71
NtRp4316
(dp4317
g74
(dp4318
g101
g102
ssg83
g4307
sg76
(lp4319
S':'
asbag69
(g90
g71
NtRp4320
(dp4321
g74
(dp4322
sg83
g4307
sg76
(lp4323
g69
(g70
g71
NtRp4324
(dp4325
g74
(dp4326
g82
I5
ssg83
g4320
sg76
(lp4327
g69
(g78
g71
NtRp4328
(dp4329
g74
(dp4330
g82
I4
ssg83
Nsg76
(lp4331
g69
(g85
g71
NtRp4332
(dp4333
g74
(dp4334
sg83
g4328
sg76
(lp4335
g69
(g90
g71
NtRp4336
(dp4337
g74
(dp4338
sg83
g4332
sg76
(lp4339
g69
(g70
g71
NtRp4340
(dp4341
g74
(dp4342
g82
I4
ssg83
g4336
sg76
(lp4343
g69
(g78
g71
NtRp4344
(dp4345
g74
(dp4346
g82
I3
ssg83
Nsg76
(lp4347
g69
(g85
g71
NtRp4348
(dp4349
g74
(dp4350
sg83
g4344
sg76
(lp4351
g69
(g90
g71
NtRp4352
(dp4353
g74
(dp4354
sg83
g4348
sg76
(lp4355
g69
(g70
g71
NtRp4356
(dp4357
g74
(dp4358
g82
I3
ssg83
g4352
sg76
(lp4359
cgluon.languages
lazyT_unpickle
p4360
(S's\x04\x00\x00\x00Home'
tRp4361
asbasbasbag69
(g85
g71
NtRp4362
(dp4363
g74
(dp4364
sg83
g4344
sg76
(lp4365
g69
(g90
g71
NtRp4366
(dp4367
g74
(dp4368
sg83
g4362
sg76
(lp4369
g69
(g70
g71
NtRp4370
(dp4371
g74
(dp4372
g82
I3
ssg83
g4366
sg76
(lp4373
g112
asbasbasbag69
(g85
g71
NtRp4374
(dp4375
g74
(dp4376
sg83
g4344
sg76
(lp4377
g69
(g90
g71
NtRp4378
(dp4379
g74
(dp4380
sg83
g4374
sg76
(lp4381
g69
(g70
g71
NtRp4382
(dp4383
g74
(dp4384
g82
I3
ssg83
g4378
sg76
(lp4385
S'/IIIT_calendars/default/index'
p4386
asbasbasbag69
(g85
g71
NtRp4387
(dp4388
g74
(dp4389
sg83
g4344
sg76
(lp4390
g69
(g90
g71
NtRp4391
(dp4392
g74
(dp4393
sg83
g4387
sg76
(lp4394
g69
(g70
g71
NtRp4395
(dp4396
g74
(dp4397
g82
I3
ssg83
g4391
sg76
(lp4398
g69
(g78
g71
NtRp4399
(dp4400
g74
(dp4401
g82
I2
ssg83
Nsg76
(lp4402
sbasbasbasbasbasbasbasbag69
(g85
g71
NtRp4403
(dp4404
g74
(dp4405
sg83
g4328
sg76
(lp4406
g69
(g90
g71
NtRp4407
(dp4408
g74
(dp4409
sg83
g4403
sg76
(lp4410
g69
(g70
g71
NtRp4411
(dp4412
g74
(dp4413
g82
I4
ssg83
g4407
sg76
(lp4414
g69
(g78
g71
NtRp4415
(dp4416
g74
(dp4417
g82
I3
ssg83
Nsg76
(lp4418
g69
(g85
g71
NtRp4419
(dp4420
g74
(dp4421
sg83
g4415
sg76
(lp4422
g69
(g90
g71
NtRp4423
(dp4424
g74
(dp4425
sg83
g4419
sg76
(lp4426
g69
(g70
g71
NtRp4427
(dp4428
g74
(dp4429
g82
I3
ssg83
g4423
sg76
(lp4430
g69
(g4299
g71
NtRp4431
(dp4432
g74
(dp4433
g4288
S'highlighted'
p4434
ssg83
Nsg76
(lp4435
g4262
asbasbasbasbag69
(g85
g71
NtRp4436
(dp4437
g74
(dp4438
sg83
g4415
sg76
(lp4439
g69
(g90
g71
NtRp4440
(dp4441
g74
(dp4442
sg83
g4436
sg76
(lp4443
g69
(g70
g71
NtRp4444
(dp4445
g74
(dp4446
g82
I3
ssg83
g4440
sg76
(lp4447
g112
asbasbasbag69
(g85
g71
NtRp4448
(dp4449
g74
(dp4450
sg83
g4415
sg76
(lp4451
g69
(g90
g71
NtRp4452
(dp4453
g74
(dp4454
sg83
g4448
sg76
(lp4455
g69
(g70
g71
NtRp4456
(dp4457
g74
(dp4458
g82
I3
ssg83
g4452
sg76
(lp4459
S'http://web2py.com'
p4460
asbasbasbag69
(g85
g71
NtRp4461
(dp4462
g74
(dp4463
sg83
g4415
sg76
(lp4464
g69
(g90
g71
NtRp4465
(dp4466
g74
(dp4467
sg83
g4461
sg76
(lp4468
g69
(g70
g71
NtRp4469
(dp4470
g74
(dp4471
g82
I3
ssg83
g4465
sg76
(lp4472
g69
(g78
g71
NtRp4473
(dp4474
g74
(dp4475
g82
I2
ssg83
Nsg76
(lp4476
g69
(g85
g71
NtRp4477
(dp4478
g74
(dp4479
sg83
g4473
sg76
(lp4480
g69
(g90
g71
NtRp4481
(dp4482
g74
(dp4483
sg83
g4477
sg76
(lp4484
g69
(g70
g71
NtRp4485
(dp4486
g74
(dp4487
g82
I2
ssg83
g4481
sg76
(lp4488
g69
(g78
g71
NtRp4489
(dp4490
g74
(dp4491
g82
I1
ssg83
Nsg76
(lp4492
g69
(g85
g71
NtRp4493
(dp4494
g74
(dp4495
sg83
g4489
sg76
(lp4496
g69
(g90
g71
NtRp4497
(dp4498
g74
(dp4499
sg83
g4493
sg76
(lp4500
g69
(g70
g71
NtRp4501
(dp4502
g74
(dp4503
g82
I1
ssg83
g4497
sg76
(lp4504
g4360
(S's\x08\x00\x00\x00My Sites'
tRp4505
asbasbasbag69
(g85
g71
NtRp4506
(dp4507
g74
(dp4508
sg83
g4489
sg76
(lp4509
g69
(g90
g71
NtRp4510
(dp4511
g74
(dp4512
sg83
g4506
sg76
(lp4513
g69
(g70
g71
NtRp4514
(dp4515
g74
(dp4516
g82
I1
ssg83
g4510
sg76
(lp4517
I00
asbasbasbag69
(g85
g71
NtRp4518
(dp4519
g74
(dp4520
sg83
g4489
sg76
(lp4521
g69
(g90
g71
NtRp4522
(dp4523
g74
(dp4524
sg83
g4518
sg76
(lp4525
g69
(g70
g71
NtRp4526
(dp4527
g74
(dp4528
g82
I1
ssg83
g4522
sg76
(lp4529
S'/admin/default/site'
p4530
asbasbasbasbasbasbasbag69
(g85
g71
NtRp4531
(dp4532
g74
(dp4533
sg83
g4473
sg76
(lp4534
g69
(g90
g71
NtRp4535
(dp4536
g74
(dp4537
sg83
g4531
sg76
(lp4538
g69
(g70
g71
NtRp4539
(dp4540
g74
(dp4541
g82
I2
ssg83
g4535
sg76
(lp4542
g69
(g78
g71
NtRp4543
(dp4544
g74
(dp4545
g82
I1
ssg83
Nsg76
(lp4546
g69
(g85
g71
NtRp4547
(dp4548
g74
(dp4549
sg83
g4543
sg76
(lp4550
g69
(g90
g71
NtRp4551
(dp4552
g74
(dp4553
sg83
g4547
sg76
(lp4554
g69
(g70
g71
NtRp4555
(dp4556
g74
(dp4557
g82
I1
ssg83
g4551
sg76
(lp4558
g4360
(S's\x08\x00\x00\x00This App'
tRp4559
asbasbasbag69
(g85
g71
NtRp4560
(dp4561
g74
(dp4562
sg83
g4543
sg76
(lp4563
g69
(g90
g71
NtRp4564
(dp4565
g74
(dp4566
sg83
g4560
sg76
(lp4567
g69
(g70
g71
NtRp4568
(dp4569
g74
(dp4570
g82
I1
ssg83
g4564
sg76
(lp4571
I00
asbasbasbag69
(g85
g71
NtRp4572
(dp4573
g74
(dp4574
sg83
g4543
sg76
(lp4575
g69
(g90
g71
NtRp4576
(dp4577
g74
(dp4578
sg83
g4572
sg76
(lp4579
g69
(g70
g71
NtRp4580
(dp4581
g74
(dp4582
g82
I1
ssg83
g4576
sg76
(lp4583
S'/admin/default/design/IIIT_calendars'
p4584
asbasbasbag69
(g85
g71
NtRp4585
(dp4586
g74
(dp4587
sg83
g4543
sg76
(lp4588
g69
(g90
g71
NtRp4589
(dp4590
g74
(dp4591
sg83
g4585
sg76
(lp4592
g69
(g70
g71
NtRp4593
(dp4594
g74
(dp4595
g82
I1
ssg83
g4589
sg76
(lp4596
(lp4597
(g4360
(S's\n\x00\x00\x00Controller'
tRp4598
I00
S'/admin/default/edit/IIIT_calendars/controllers/default.py'
tp4599
a(g4360
(S's\x04\x00\x00\x00View'
tRp4600
I00
S'/admin/default/edit/IIIT_calendars/views/default/editeventdetails.html'
tp4601
a(g4360
(S's\x06\x00\x00\x00Layout'
tRp4602
I00
S'/admin/default/edit/IIIT_calendars/views/layout.html'
tp4603
a(g4360
(S's\n\x00\x00\x00Stylesheet'
tRp4604
I00
S'/admin/default/edit/IIIT_calendars/static/css/web2py.css'
tp4605
a(g4360
(S's\x08\x00\x00\x00DB Model'
tRp4606
I00
S'/admin/default/edit/IIIT_calendars/models/db.py'
tp4607
a(g4360
(S's\n\x00\x00\x00Menu Model'
tRp4608
I00
S'/admin/default/edit/IIIT_calendars/models/menu.py'
tp4609
a(g4360
(S's\x08\x00\x00\x00Database'
tRp4610
I00
S'/IIIT_calendars/appadmin/index'
tp4611
a(g4360
(S's\x06\x00\x00\x00Errors'
tRp4612
I00
S'/admin/default/errors/IIIT_calendars'
tp4613
a(g4360
(S's\x05\x00\x00\x00About'
tRp4614
I00
S'/admin/default/about/IIIT_calendars'
tp4615
aasbasbasbasbasbasbasbag69
(g85
g71
NtRp4616
(dp4617
g74
(dp4618
sg83
g4473
sg76
(lp4619
g69
(g90
g71
NtRp4620
(dp4621
g74
(dp4622
sg83
g4616
sg76
(lp4623
g69
(g70
g71
NtRp4624
(dp4625
g74
(dp4626
g82
I2
ssg83
g4620
sg76
(lp4627
g69
(g78
g71
NtRp4628
(dp4629
g74
(dp4630
g82
I1
ssg83
Nsg76
(lp4631
g69
(g85
g71
NtRp4632
(dp4633
g74
(dp4634
sg83
g4628
sg76
(lp4635
g69
(g90
g71
NtRp4636
(dp4637
g74
(dp4638
sg83
g4632
sg76
(lp4639
g69
(g70
g71
NtRp4640
(dp4641
g74
(dp4642
g82
I1
ssg83
g4636
sg76
(lp4643
S'web2py.com'
p4644
asbasbasbag69
(g85
g71
NtRp4645
(dp4646
g74
(dp4647
sg83
g4628
sg76
(lp4648
g69
(g90
g71
NtRp4649
(dp4650
g74
(dp4651
sg83
g4645
sg76
(lp4652
g69
(g70
g71
NtRp4653
(dp4654
g74
(dp4655
g82
I1
ssg83
g4649
sg76
(lp4656
I00
asbasbasbag69
(g85
g71
NtRp4657
(dp4658
g74
(dp4659
sg83
g4628
sg76
(lp4660
g69
(g90
g71
NtRp4661
(dp4662
g74
(dp4663
sg83
g4657
sg76
(lp4664
g69
(g70
g71
NtRp4665
(dp4666
g74
(dp4667
g82
I1
ssg83
g4661
sg76
(lp4668
S'http://www.web2py.com'
p4669
asbasbasbag69
(g85
g71
NtRp4670
(dp4671
g74
(dp4672
sg83
g4628
sg76
(lp4673
g69
(g90
g71
NtRp4674
(dp4675
g74
(dp4676
sg83
g4670
sg76
(lp4677
g69
(g70
g71
NtRp4678
(dp4679
g74
(dp4680
g82
I1
ssg83
g4674
sg76
(lp4681
(lp4682
(g4360
(S's\x08\x00\x00\x00Download'
tRp4683
I00
S'http://www.web2py.com/examples/default/download'
p4684
tp4685
a(g4360
(S's\x07\x00\x00\x00Support'
tRp4686
I00
S'http://www.web2py.com/examples/default/support'
p4687
tp4688
a(g4360
(S's\x04\x00\x00\x00Demo'
tRp4689
I00
S'http://web2py.com/demo_admin'
p4690
tp4691
a(g4360
(S's\x0e\x00\x00\x00Quick Examples'
tRp4692
I00
S'http://web2py.com/examples/default/examples'
p4693
tp4694
a(g4360
(S's\x03\x00\x00\x00FAQ'
tRp4695
I00
S'http://web2py.com/AlterEgo'
p4696
tp4697
a(g4360
(S's\x06\x00\x00\x00Videos'
tRp4698
I00
S'http://www.web2py.com/examples/default/videos/'
p4699
tp4700
a(g4360
(S's\x11\x00\x00\x00Free Applications'
tRp4701
I00
S'http://web2py.com/appliances'
p4702
tp4703
a(g4360
(S's\x07\x00\x00\x00Plugins'
tRp4704
I00
S'http://web2py.com/plugins'
p4705
tp4706
a(g4360
(S's\x07\x00\x00\x00Layouts'
tRp4707
I00
S'http://web2py.com/layouts'
p4708
tp4709
a(g4360
(S's\x07\x00\x00\x00Recipes'
tRp4710
I00
S'http://web2pyslices.com/'
p4711
tp4712
a(g4360
(S's\x08\x00\x00\x00Semantic'
tRp4713
I00
S'http://web2py.com/semantic'
p4714
tp4715
aasbasbasbasbasbasbasbag69
(g85
g71
NtRp4716
(dp4717
g74
(dp4718
sg83
g4473
sg76
(lp4719
g69
(g90
g71
NtRp4720
(dp4721
g74
(dp4722
sg83
g4716
sg76
(lp4723
g69
(g70
g71
NtRp4724
(dp4725
g74
(dp4726
g82
I2
ssg83
g4720
sg76
(lp4727
g69
(g78
g71
NtRp4728
(dp4729
g74
(dp4730
g82
I1
ssg83
Nsg76
(lp4731
g69
(g85
g71
NtRp4732
(dp4733
g74
(dp4734
sg83
g4728
sg76
(lp4735
g69
(g90
g71
NtRp4736
(dp4737
g74
(dp4738
sg83
g4732
sg76
(lp4739
g69
(g70
g71
NtRp4740
(dp4741
g74
(dp4742
g82
I1
ssg83
g4736
sg76
(lp4743
g4360
(S's\r\x00\x00\x00Documentation'
tRp4744
asbasbasbag69
(g85
g71
NtRp4745
(dp4746
g74
(dp4747
sg83
g4728
sg76
(lp4748
g69
(g90
g71
NtRp4749
(dp4750
g74
(dp4751
sg83
g4745
sg76
(lp4752
g69
(g70
g71
NtRp4753
(dp4754
g74
(dp4755
g82
I1
ssg83
g4749
sg76
(lp4756
I00
asbasbasbag69
(g85
g71
NtRp4757
(dp4758
g74
(dp4759
sg83
g4728
sg76
(lp4760
g69
(g90
g71
NtRp4761
(dp4762
g74
(dp4763
sg83
g4757
sg76
(lp4764
g69
(g70
g71
NtRp4765
(dp4766
g74
(dp4767
g82
I1
ssg83
g4761
sg76
(lp4768
S'http://www.web2py.com/book'
p4769
asbasbasbag69
(g85
g71
NtRp4770
(dp4771
g74
(dp4772
sg83
g4728
sg76
(lp4773
g69
(g90
g71
NtRp4774
(dp4775
g74
(dp4776
sg83
g4770
sg76
(lp4777
g69
(g70
g71
NtRp4778
(dp4779
g74
(dp4780
g82
I1
ssg83
g4774
sg76
(lp4781
(lp4782
(g4360
(S's\x07\x00\x00\x00Preface'
tRp4783
I00
S'http://www.web2py.com/book/default/chapter/00'
p4784
tp4785
a(g4360
(S's\x0c\x00\x00\x00Introduction'
tRp4786
I00
S'http://www.web2py.com/book/default/chapter/01'
p4787
tp4788
a(g4360
(S's\x06\x00\x00\x00Python'
tRp4789
I00
S'http://www.web2py.com/book/default/chapter/02'
p4790
tp4791
a(g4360
(S's\x08\x00\x00\x00Overview'
tRp4792
I00
S'http://www.web2py.com/book/default/chapter/03'
p4793
tp4794
a(g4360
(S's\x08\x00\x00\x00The Core'
tRp4795
I00
S'http://www.web2py.com/book/default/chapter/04'
p4796
tp4797
a(g4360
(S's\t\x00\x00\x00The Views'
tRp4798
I00
S'http://www.web2py.com/book/default/chapter/05'
p4799
tp4800
a(g4360
(S's\x08\x00\x00\x00Database'
tRp4801
I00
S'http://www.web2py.com/book/default/chapter/06'
p4802
tp4803
a(g4360
(S's\x14\x00\x00\x00Forms and Validators'
tRp4804
I00
S'http://www.web2py.com/book/default/chapter/07'
p4805
tp4806
a(g4360
(S's\r\x00\x00\x00Email and SMS'
tRp4807
I00
S'http://www.web2py.com/book/default/chapter/08'
p4808
tp4809
a(g4360
(S's\x0e\x00\x00\x00Access Control'
tRp4810
I00
S'http://www.web2py.com/book/default/chapter/09'
p4811
tp4812
a(g4360
(S's\x08\x00\x00\x00Services'
tRp4813
I00
S'http://www.web2py.com/book/default/chapter/10'
p4814
tp4815
a(g4360
(S's\x0c\x00\x00\x00Ajax Recipes'
tRp4816
I00
S'http://www.web2py.com/book/default/chapter/11'
p4817
tp4818
a(g4360
(S's\x16\x00\x00\x00Components and Plugins'
tRp4819
I00
S'http://www.web2py.com/book/default/chapter/12'
p4820
tp4821
a(g4360
(S's\x12\x00\x00\x00Deployment Recipes'
tRp4822
I00
S'http://www.web2py.com/book/default/chapter/13'
p4823
tp4824
a(g4360
(S's\r\x00\x00\x00Other Recipes'
tRp4825
I00
S'http://www.web2py.com/book/default/chapter/14'
p4826
tp4827
a(g4360
(S's\r\x00\x00\x00Buy this book'
tRp4828
I00
S'http://stores.lulu.com/web2py'
p4829
tp4830
aasbasbasbasbasbasbasbag69
(g85
g71
NtRp4831
(dp4832
g74
(dp4833
sg83
g4473
sg76
(lp4834
g69
(g90
g71
NtRp4835
(dp4836
g74
(dp4837
sg83
g4831
sg76
(lp4838
g69
(g70
g71
NtRp4839
(dp4840
g74
(dp4841
g82
I2
ssg83
g4835
sg76
(lp4842
g69
(g78
g71
NtRp4843
(dp4844
g74
(dp4845
g82
I1
ssg83
Nsg76
(lp4846
g69
(g85
g71
NtRp4847
(dp4848
g74
(dp4849
sg83
g4843
sg76
(lp4850
g69
(g90
g71
NtRp4851
(dp4852
g74
(dp4853
sg83
g4847
sg76
(lp4854
g69
(g70
g71
NtRp4855
(dp4856
g74
(dp4857
g82
I1
ssg83
g4851
sg76
(lp4858
g4360
(S's\t\x00\x00\x00Community'
tRp4859
asbasbasbag69
(g85
g71
NtRp4860
(dp4861
g74
(dp4862
sg83
g4843
sg76
(lp4863
g69
(g90
g71
NtRp4864
(dp4865
g74
(dp4866
sg83
g4860
sg76
(lp4867
g69
(g70
g71
NtRp4868
(dp4869
g74
(dp4870
g82
I1
ssg83
g4864
sg76
(lp4871
I00
asbasbasbag69
(g85
g71
NtRp4872
(dp4873
g74
(dp4874
sg83
g4843
sg76
(lp4875
g69
(g90
g71
NtRp4876
(dp4877
g74
(dp4878
sg83
g4872
sg76
(lp4879
g69
(g70
g71
NtRp4880
(dp4881
g74
(dp4882
g82
I1
ssg83
g4876
sg76
(lp4883
Nasbasbasbag69
(g85
g71
NtRp4884
(dp4885
g74
(dp4886
sg83
g4843
sg76
(lp4887
g69
(g90
g71
NtRp4888
(dp4889
g74
(dp4890
sg83
g4884
sg76
(lp4891
g69
(g70
g71
NtRp4892
(dp4893
g74
(dp4894
g82
I1
ssg83
g4888
sg76
(lp4895
(lp4896
(g4360
(S's\x06\x00\x00\x00Groups'
tRp4897
I00
S'http://www.web2py.com/examples/default/usergroups'
p4898
tp4899
a(g4360
(S's\x07\x00\x00\x00Twitter'
tRp4900
I00
S'http://twitter.com/web2py'
p4901
tp4902
a(g4360
(S's\t\x00\x00\x00Live Chat'
tRp4903
I00
S'http://webchat.freenode.net/?channels=web2py'
p4904
tp4905
aasbasbasbasbasbasbasbag69
(g85
g71
NtRp4906
(dp4907
g74
(dp4908
sg83
g4473
sg76
(lp4909
g69
(g90
g71
NtRp4910
(dp4911
g74
(dp4912
sg83
g4906
sg76
(lp4913
g69
(g70
g71
NtRp4914
(dp4915
g74
(dp4916
g82
I2
ssg83
g4910
sg76
(lp4917
g69
(g78
g71
NtRp4918
(dp4919
g74
(dp4920
g82
I1
ssg83
Nsg76
(lp4921
g69
(g85
g71
NtRp4922
(dp4923
g74
(dp4924
sg83
g4918
sg76
(lp4925
g69
(g90
g71
NtRp4926
(dp4927
g74
(dp4928
sg83
g4922
sg76
(lp4929
g69
(g70
g71
NtRp4930
(dp4931
g74
(dp4932
g82
I1
ssg83
g4926
sg76
(lp4933
g4360
(S's\x07\x00\x00\x00Plugins'
tRp4934
asbasbasbag69
(g85
g71
NtRp4935
(dp4936
g74
(dp4937
sg83
g4918
sg76
(lp4938
g69
(g90
g71
NtRp4939
(dp4940
g74
(dp4941
sg83
g4935
sg76
(lp4942
g69
(g70
g71
NtRp4943
(dp4944
g74
(dp4945
g82
I1
ssg83
g4939
sg76
(lp4946
I00
asbasbasbag69
(g85
g71
NtRp4947
(dp4948
g74
(dp4949
sg83
g4918
sg76
(lp4950
g69
(g90
g71
NtRp4951
(dp4952
g74
(dp4953
sg83
g4947
sg76
(lp4954
g69
(g70
g71
NtRp4955
(dp4956
g74
(dp4957
g82
I1
ssg83
g4951
sg76
(lp4958
Nasbasbasbag69
(g85
g71
NtRp4959
(dp4960
g74
(dp4961
sg83
g4918
sg76
(lp4962
g69
(g90
g71
NtRp4963
(dp4964
g74
(dp4965
sg83
g4959
sg76
(lp4966
g69
(g70
g71
NtRp4967
(dp4968
g74
(dp4969
g82
I1
ssg83
g4963
sg76
(lp4970
(lp4971
(S'plugin_wiki'
p4972
I00
S'http://web2py.com/examples/default/download'
p4973
tp4974
a(g4360
(S's\r\x00\x00\x00Other Plugins'
tRp4975
I00
g4705
tp4976
a(g4360
(S's\x0e\x00\x00\x00Layout Plugins'
tRp4977
I00
g4708
tp4978
aasbasbasbasbasbasbasbasbasbasbasbasbasbasbasbasbasbasbasbag69
(g85
g71
NtRp4979
(dp4980
g74
(dp4981
sg83
g3826
sg76
(lp4982
g69
(g90
g71
NtRp4983
(dp4984
g74
(dp4985
g94
g95
ssg83
g4979
sg76
(lp4986
S'meta'
p4987
asbag69
(g90
g71
NtRp4988
(dp4989
g74
(dp4990
g101
g102
ssg83
g4979
sg76
(lp4991
S':'
asbag69
(g90
g71
NtRp4992
(dp4993
g74
(dp4994
sg83
g4979
sg76
(lp4995
g69
(g70
g71
NtRp4996
(dp4997
g74
(dp4998
g82
I5
ssg83
g4992
sg76
(lp4999
g69
(g78
g71
NtRp5000
(dp5001
g74
(dp5002
g82
I4
ssg83
Nsg76
(lp5003
g69
(g85
g71
NtRp5004
(dp5005
g74
(dp5006
sg83
g5000
sg76
(lp5007
g69
(g90
g71
NtRp5008
(dp5009
g74
(dp5010
g94
g95
ssg83
g5004
sg76
(lp5011
S'author'
p5012
asbag69
(g90
g71
NtRp5013
(dp5014
g74
(dp5015
g101
g102
ssg83
g5004
sg76
(lp5016
S':'
asbag69
(g90
g71
NtRp5017
(dp5018
g74
(dp5019
sg83
g5004
sg76
(lp5020
g69
(g70
g71
NtRp5021
(dp5022
g74
(dp5023
g82
I4
ssg83
g5017
sg76
(lp5024
S'Your Name <you@example.com>'
p5025
asbasbasbag69
(g85
g71
NtRp5026
(dp5027
g74
(dp5028
sg83
g5000
sg76
(lp5029
g69
(g90
g71
NtRp5030
(dp5031
g74
(dp5032
g94
g95
ssg83
g5026
sg76
(lp5033
S'description'
p5034
asbag69
(g90
g71
NtRp5035
(dp5036
g74
(dp5037
g101
g102
ssg83
g5026
sg76
(lp5038
S':'
asbag69
(g90
g71
NtRp5039
(dp5040
g74
(dp5041
sg83
g5026
sg76
(lp5042
g69
(g70
g71
NtRp5043
(dp5044
g74
(dp5045
g82
I4
ssg83
g5039
sg76
(lp5046
S'a cool new app'
p5047
asbasbasbag69
(g85
g71
NtRp5048
(dp5049
g74
(dp5050
sg83
g5000
sg76
(lp5051
g69
(g90
g71
NtRp5052
(dp5053
g74
(dp5054
g94
g95
ssg83
g5048
sg76
(lp5055
S'generator'
p5056
asbag69
(g90
g71
NtRp5057
(dp5058
g74
(dp5059
g101
g102
ssg83
g5048
sg76
(lp5060
S':'
asbag69
(g90
g71
NtRp5061
(dp5062
g74
(dp5063
sg83
g5048
sg76
(lp5064
g69
(g70
g71
NtRp5065
(dp5066
g74
(dp5067
g82
I4
ssg83
g5061
sg76
(lp5068
S'Web2py Web Framework'
p5069
asbasbasbag69
(g85
g71
NtRp5070
(dp5071
g74
(dp5072
sg83
g5000
sg76
(lp5073
g69
(g90
g71
NtRp5074
(dp5075
g74
(dp5076
g94
g95
ssg83
g5070
sg76
(lp5077
S'keywords'
p5078
asbag69
(g90
g71
NtRp5079
(dp5080
g74
(dp5081
g101
g102
ssg83
g5070
sg76
(lp5082
S':'
asbag69
(g90
g71
NtRp5083
(dp5084
g74
(dp5085
sg83
g5070
sg76
(lp5086
g69
(g70
g71
NtRp5087
(dp5088
g74
(dp5089
g82
I4
ssg83
g5083
sg76
(lp5090
S'web2py, python, framework'
p5091
asbasbasbasbasbasbasbag69
(g85
g71
NtRp5092
(dp5093
g74
(dp5094
sg83
g3826
sg76
(lp5095
g69
(g90
g71
NtRp5096
(dp5097
g74
(dp5098
g94
g95
ssg83
g5092
sg76
(lp5099
S'models_to_run'
p5100
asbag69
(g90
g71
NtRp5101
(dp5102
g74
(dp5103
g101
g102
ssg83
g5092
sg76
(lp5104
S':'
asbag69
(g90
g71
NtRp5105
(dp5106
g74
(dp5107
sg83
g5092
sg76
(lp5108
g69
(g70
g71
NtRp5109
(dp5110
g74
(dp5111
g82
I5
ssg83
g5105
sg76
(lp5112
g69
(g78
g71
NtRp5113
(dp5114
g74
(dp5115
g82
I4
ssg83
Nsg76
(lp5116
g69
(g85
g71
NtRp5117
(dp5118
g74
(dp5119
sg83
g5113
sg76
(lp5120
g69
(g90
g71
NtRp5121
(dp5122
g74
(dp5123
sg83
g5117
sg76
(lp5124
g69
(g70
g71
NtRp5125
(dp5126
g74
(dp5127
g82
I4
ssg83
g5121
sg76
(lp5128
S'^\\w+\\.py$'
p5129
asbasbasbag69
(g85
g71
NtRp5130
(dp5131
g74
(dp5132
sg83
g5113
sg76
(lp5133
g69
(g90
g71
NtRp5134
(dp5135
g74
(dp5136
sg83
g5130
sg76
(lp5137
g69
(g70
g71
NtRp5138
(dp5139
g74
(dp5140
g82
I4
ssg83
g5134
sg76
(lp5141
S'^default/\\w+\\.py$'
p5142
asbasbasbag69
(g85
g71
NtRp5143
(dp5144
g74
(dp5145
sg83
g5113
sg76
(lp5146
g69
(g90
g71
NtRp5147
(dp5148
g74
(dp5149
sg83
g5143
sg76
(lp5150
g69
(g70
g71
NtRp5151
(dp5152
g74
(dp5153
g82
I4
ssg83
g5147
sg76
(lp5154
S'^default/editeventdetails/\\w+\\.py$'
p5155
asbasbasbasbasbasbasbag69
(g85
g71
NtRp5156
(dp5157
g74
(dp5158
sg83
g3826
sg76
(lp5159
g69
(g90
g71
NtRp5160
(dp5161
g74
(dp5162
g94
g95
ssg83
g5156
sg76
(lp5163
S'postprocessing'
p5164
asbag69
(g90
g71
NtRp5165
(dp5166
g74
(dp5167
g101
g102
ssg83
g5156
sg76
(lp5168
S':'
asbag69
(g90
g71
NtRp5169
(dp5170
g74
(dp5171
sg83
g5156
sg76
(lp5172
g69
(g70
g71
NtRp5173
(dp5174
g74
(dp5175
g82
I5
ssg83
g5169
sg76
(lp5176
g69
(g78
g71
NtRp5177
(dp5178
g74
(dp5179
g82
I4
ssg83
Nsg76
(lp5180
sbasbasbasbag69
(g85
g71
NtRp5181
(dp5182
g74
(dp5183
sg83
g3826
sg76
(lp5184
g69
(g90
g71
NtRp5185
(dp5186
g74
(dp5187
g94
g95
ssg83
g5181
sg76
(lp5188
S'session_cookie_expires'
p5189
asbag69
(g90
g71
NtRp5190
(dp5191
g74
(dp5192
g101
g102
ssg83
g5181
sg76
(lp5193
S':'
asbag69
(g90
g71
NtRp5194
(dp5195
g74
(dp5196
sg83
g5181
sg76
(lp5197
g69
(g70
g71
NtRp5198
(dp5199
g74
(dp5200
g82
I5
ssg83
g5194
sg76
(lp5201
S'None'
p5202
asbasbasbag69
(g85
g71
NtRp5203
(dp5204
g74
(dp5205
sg83
g3826
sg76
(lp5206
g69
(g90
g71
NtRp5207
(dp5208
g74
(dp5209
g94
g95
ssg83
g5203
sg76
(lp5210
S'session_data_name'
p5211
asbag69
(g90
g71
NtRp5212
(dp5213
g74
(dp5214
g101
g102
ssg83
g5203
sg76
(lp5215
S':'
asbag69
(g90
g71
NtRp5216
(dp5217
g74
(dp5218
sg83
g5203
sg76
(lp5219
g69
(g70
g71
NtRp5220
(dp5221
g74
(dp5222
g82
I5
ssg83
g5216
sg76
(lp5223
S'session_data_iiit_calendars'
p5224
asbasbasbag69
(g85
g71
NtRp5225
(dp5226
g74
(dp5227
sg83
g3826
sg76
(lp5228
g69
(g90
g71
NtRp5229
(dp5230
g74
(dp5231
g94
g95
ssg83
g5225
sg76
(lp5232
S'session_file'
p5233
asbag69
(g90
g71
NtRp5234
(dp5235
g74
(dp5236
g101
g102
ssg83
g5225
sg76
(lp5237
S':'
asbag69
(g90
g71
NtRp5238
(dp5239
g74
(dp5240
sg83
g5225
sg76
(lp5241
g69
(g70
g71
NtRp5242
(dp5243
g74
(dp5244
g82
I5
ssg83
g5238
sg76
(lp5245
S"<open file '/home/simran/web2py/applications/IIIT_calendars/sessions/127.0.0.1-b512d376-91dc-477e-99ca-2b27d7ad4a7a', mode 'rb+' at 0x7f6fe016ac00>"
p5246
asbasbasbag69
(g85
g71
NtRp5247
(dp5248
g74
(dp5249
sg83
g3826
sg76
(lp5250
g69
(g90
g71
NtRp5251
(dp5252
g74
(dp5253
g94
g95
ssg83
g5247
sg76
(lp5254
S'session_filename'
p5255
asbag69
(g90
g71
NtRp5256
(dp5257
g74
(dp5258
g101
g102
ssg83
g5247
sg76
(lp5259
S':'
asbag69
(g90
g71
NtRp5260
(dp5261
g74
(dp5262
sg83
g5247
sg76
(lp5263
g69
(g70
g71
NtRp5264
(dp5265
g74
(dp5266
g82
I5
ssg83
g5260
sg76
(lp5267
S'/home/simran/web2py/applications/IIIT_calendars/sessions/127.0.0.1-b512d376-91dc-477e-99ca-2b27d7ad4a7a'
p5268
asbasbasbag69
(g85
g71
NtRp5269
(dp5270
g74
(dp5271
sg83
g3826
sg76
(lp5272
g69
(g90
g71
NtRp5273
(dp5274
g74
(dp5275
g94
g95
ssg83
g5269
sg76
(lp5276
S'session_id'
p5277
asbag69
(g90
g71
NtRp5278
(dp5279
g74
(dp5280
g101
g102
ssg83
g5269
sg76
(lp5281
S':'
asbag69
(g90
g71
NtRp5282
(dp5283
g74
(dp5284
sg83
g5269
sg76
(lp5285
g69
(g70
g71
NtRp5286
(dp5287
g74
(dp5288
g82
I5
ssg83
g5282
sg76
(lp5289
g487
asbasbasbag69
(g85
g71
NtRp5290
(dp5291
g74
(dp5292
sg83
g3826
sg76
(lp5293
g69
(g90
g71
NtRp5294
(dp5295
g74
(dp5296
g94
g95
ssg83
g5290
sg76
(lp5297
S'session_id_name'
p5298
asbag69
(g90
g71
NtRp5299
(dp5300
g74
(dp5301
g101
g102
ssg83
g5290
sg76
(lp5302
S':'
asbag69
(g90
g71
NtRp5303
(dp5304
g74
(dp5305
sg83
g5290
sg76
(lp5306
g69
(g70
g71
NtRp5307
(dp5308
g74
(dp5309
g82
I5
ssg83
g5303
sg76
(lp5310
g3883
asbasbasbag69
(g85
g71
NtRp5311
(dp5312
g74
(dp5313
sg83
g3826
sg76
(lp5314
g69
(g90
g71
NtRp5315
(dp5316
g74
(dp5317
g94
g95
ssg83
g5311
sg76
(lp5318
S'session_locked'
p5319
asbag69
(g90
g71
NtRp5320
(dp5321
g74
(dp5322
g101
g102
ssg83
g5311
sg76
(lp5323
S':'
asbag69
(g90
g71
NtRp5324
(dp5325
g74
(dp5326
sg83
g5311
sg76
(lp5327
g69
(g70
g71
NtRp5328
(dp5329
g74
(dp5330
g82
I5
ssg83
g5324
sg76
(lp5331
g1945
asbasbasbag69
(g85
g71
NtRp5332
(dp5333
g74
(dp5334
sg83
g3826
sg76
(lp5335
g69
(g90
g71
NtRp5336
(dp5337
g74
(dp5338
g94
g95
ssg83
g5332
sg76
(lp5339
S'session_new'
p5340
asbag69
(g90
g71
NtRp5341
(dp5342
g74
(dp5343
g101
g102
ssg83
g5332
sg76
(lp5344
S':'
asbag69
(g90
g71
NtRp5345
(dp5346
g74
(dp5347
sg83
g5332
sg76
(lp5348
g69
(g70
g71
NtRp5349
(dp5350
g74
(dp5351
g82
I5
ssg83
g5345
sg76
(lp5352
g112
asbasbasbag69
(g85
g71
NtRp5353
(dp5354
g74
(dp5355
sg83
g3826
sg76
(lp5356
g69
(g90
g71
NtRp5357
(dp5358
g74
(dp5359
g94
g95
ssg83
g5353
sg76
(lp5360
S'session_storage_type'
p5361
asbag69
(g90
g71
NtRp5362
(dp5363
g74
(dp5364
g101
g102
ssg83
g5353
sg76
(lp5365
S':'
asbag69
(g90
g71
NtRp5366
(dp5367
g74
(dp5368
sg83
g5353
sg76
(lp5369
g69
(g70
g71
NtRp5370
(dp5371
g74
(dp5372
g82
I5
ssg83
g5366
sg76
(lp5373
g3354
asbasbasbag69
(g85
g71
NtRp5374
(dp5375
g74
(dp5376
sg83
g3826
sg76
(lp5377
g69
(g90
g71
NtRp5378
(dp5379
g74
(dp5380
g94
g95
ssg83
g5374
sg76
(lp5381
S'status'
p5382
asbag69
(g90
g71
NtRp5383
(dp5384
g74
(dp5385
g101
g102
ssg83
g5374
sg76
(lp5386
S':'
asbag69
(g90
g71
NtRp5387
(dp5388
g74
(dp5389
sg83
g5374
sg76
(lp5390
g69
(g70
g71
NtRp5391
(dp5392
g74
(dp5393
g82
I5
ssg83
g5387
sg76
(lp5394
S'200'
p5395
asbasbasbag69
(g85
g71
NtRp5396
(dp5397
g74
(dp5398
sg83
g3826
sg76
(lp5399
g69
(g90
g71
NtRp5400
(dp5401
g74
(dp5402
g94
g95
ssg83
g5396
sg76
(lp5403
S'subtitle'
p5404
asbag69
(g90
g71
NtRp5405
(dp5406
g74
(dp5407
g101
g102
ssg83
g5396
sg76
(lp5408
S':'
asbag69
(g90
g71
NtRp5409
(dp5410
g74
(dp5411
sg83
g5396
sg76
(lp5412
g69
(g70
g71
NtRp5413
(dp5414
g74
(dp5415
g82
I5
ssg83
g5409
sg76
(lp5416
g4360
(S's\r\x00\x00\x00customize me!'
tRp5417
asbasbasbag69
(g85
g71
NtRp5418
(dp5419
g74
(dp5420
sg83
g3826
sg76
(lp5421
g69
(g90
g71
NtRp5422
(dp5423
g74
(dp5424
g94
g95
ssg83
g5418
sg76
(lp5425
S'title'
p5426
asbag69
(g90
g71
NtRp5427
(dp5428
g74
(dp5429
g101
g102
ssg83
g5418
sg76
(lp5430
S':'
asbag69
(g90
g71
NtRp5431
(dp5432
g74
(dp5433
sg83
g5418
sg76
(lp5434
g69
(g70
g71
NtRp5435
(dp5436
g74
(dp5437
g82
I5
ssg83
g5431
sg76
(lp5438
S'Iiit Calendars'
p5439
asbasbasbag69
(g85
g71
NtRp5440
(dp5441
g74
(dp5442
sg83
g3826
sg76
(lp5443
g69
(g90
g71
NtRp5444
(dp5445
g74
(dp5446
g94
g95
ssg83
g5440
sg76
(lp5447
S'view'
p5448
asbag69
(g90
g71
NtRp5449
(dp5450
g74
(dp5451
g101
g102
ssg83
g5440
sg76
(lp5452
S':'
asbag69
(g90
g71
NtRp5453
(dp5454
g74
(dp5455
sg83
g5440
sg76
(lp5456
g69
(g70
g71
NtRp5457
(dp5458
g74
(dp5459
g82
I5
ssg83
g5453
sg76
(lp5460
S'default/editeventdetails.html'
p5461
asbasbasbasbasbsS'locals'
p5462
(dp5463
g4
S"'/home/simran/web2py/applications/IIIT_calendars/views/default/editeventdetails.html'"
p5464
sg6
S'\'response.write(\\\'<!DOCTYPE html>\\\\n<!-- paulirish....(\\\'"></script>\\\\n</body>\\\\n</html>\\\\n\\\', escape=False)\''
p5465
sssS'traceback'
p5466
S'Traceback (most recent call last):\n  File "/home/simran/web2py/gluon/restricted.py", line 211, in restricted\n    ccode = compile2(code, layer)\n  File "/home/simran/web2py/gluon/restricted.py", line 194, in compile2\n    return compile(code.rstrip().replace(\'\\r\\n\', \'\\n\') + \'\\n\', layer, \'exec\')\n  File "/home/simran/web2py/applications/IIIT_calendars/views/default/editeventdetails.html", line 75\n    \nSyntaxError: keyword can\'t be an expression\n'
p5467
s.