(dp1
S'output'
p2
S"<type 'exceptions.SyntaxError'> invalid syntax (index.html, line 3)"
p3
sS'layer'
p4
S'/home/user/Documents/2nd sem/ITWS-2/web2py/applications/IIIT_calendars/views/default/index.html'
p5
sS'code'
p6
S'response.write(\'<!DOCTYPE html PUBLIC "-//W3C//DTD XHTML 1.0 Transitional//EN" "http://www.w3.org/TR/xhtml1/DTD/xhtml1-transitional.dtd">\\r\\n<html xmlns="http://www.w3.org/1999/xhtml">\\r\\n<head>\\r\\n<meta http-equiv="Content-Type" content="text/html; charset=utf-8" />\\r\\n<title>free blog template - green web blog</title>\\r\\n<meta name="keywords" content="free blog template, css template, CSS, HTML" />\\r\\n<meta name="description" content="Green Web Blog - free blog template provided by templatemo.com" />\\r\\n<link href="\', escape=False)\nresponse.write(URL(\'static\',\'templatemo_style.css\')\nresponse.write(\'" rel="stylesheet" type="text/css" />\\r\\n<!--  Designed by w w w . t e m p l a t e m o . c o m  -->\\r\\n</head>\\r\\n\\r\\n<body>\\r\\n\\r\\n\\t<div id="templatemo_menu_panel">\\r\\n    \\t<div id="templatemo_menu_section">\\r\\n            <ul>\\r\\n                <li><a href="#" class="current">Home</a></li>\\r\\n                <li><a href="#">Photos</a></li>\\r\\n                <li><a href="#">Videos</a></li>\\r\\n                <li><a href="#">Archives</a></li>  \\r\\n                <li><a href="#">Links</a></li> \\r\\n                <li><a href="#">Contact</a></li>                     \\r\\n            </ul> \\r\\n\\t\\t</div>\\r\\n    </div> <!-- end of menu -->\\r\\n\\r\\n\\r\\n<div id="templatemo_header_content_container">\\r\\n    \\r\\n        <div id="templatemo_header_section">\\r\\n            <div id="templatemo_title_section">\\r\\n            GREEN BLOG\\r\\n            </div>\\r\\n            <div id="templatemo_search_section">\\r\\n                <form method="get" action="#">\\r\\n                    <input type="radio" name="search" value="thissite" />this site <input type="radio" name="search" value="theweb" checked="checked" /> the web <br />\\r\\n                    <input type="text" name="q" size="10" id="searchfield" title="searchfield" />\\r\\n                    <input type="submit" name="Search" value="Search" alt="Search" id="searchbutton" title="Search" />\\r\\n                </form>\\r\\n            </div>\\r\\n        </div> <!-- end of templatemo header panel -->\\r\\n      \', escape=False)\nresponse.write(\'\\n<body>\\n\\n<div style="text-align:center">\\n<br/> <br/> <br/> <br>\\n    <a href="calendar.html" class="btn btn-primary"> View Calendar <i class="icon-eye-open icon-white"> </i> </a> <br />\\n</div>\\n<br /> <br />\\n<div class="btn-toolbar pagination-centered">\\n<div class="btn-group">\\n<a class="btn btn-inverse" href="#"><i class="icon-th-list icon-white"></i> Events </a>\\n<a class="btn btn-inverse dropdown-toggle" data-toggle="dropdown" href="#"><span class="caret"></span></a>\\n<ul class="dropdown-menu">\\n    <li><a href="editeventdetails.html"><i class="icon-pencil"></i> Edit</a></li>\\n<li><a href="delete_eventdetails.html"><i class="icon-trash"></i> Delete</a></li>\\n<li><a href="add_events.html"><i class="icon-plus"></i> Add</a></li>\\n</ul>\\n</div>\\n</div>\\n<br/><br/>\\n<div class="btn-toolbar pagination-centered">\\n<div class="btn-group">\\n<a class="btn btn-danger" href="#"><i class="icon-th-list icon-white"></i> Tasks </a>\\n<a class="btn btn-danger dropdown-toggle" data-toggle="dropdown" href="#"><span class="caret"></span></a>\\n<ul class="dropdown-menu">\\n<li><a href="edittaskdetails.html"><i class="icon-pencil"></i> Edit</a></li>\\n<li><a href="delete_taskdetails.html"><i class="icon-trash"></i> Delete</a></li>\\n<li><a href="add_tasks.html"><i class="icon-plus"></i> Add</a></li>\\n<li><a href="taskdonedetails.html"><i class="icon-check"></i> Mark as done</a></li>\\n<li><a href="taskstat.html"><i class="icon-check"></i> Task Statistics</a></li>\\n</ul>\\n</div>\\n</div>\\n</body>\\n\', escape=False)\nresponse.write(\'  \\r\\n        <div id="templatemo_content">\\r\\n            <div id="templatemo_content_left">\\r\\n\\t\\t\\t\\t\\r\\n                <div class="templatemo_post">\\r\\n                    <div class="post_title">\\r\\n                    \\tFree Blog Template\\r\\n                    \\t  <div class="post_info">\\r\\n                    \\t\\tPosted by <a href="http://www.templatemo.com" target="_parent">TemplateMo.com</a>, December 7, 2024 at 2:13 am, in <a href="#">Web Template.</a>\\r\\n\\t                    </div>\\r\\n                    </div>\\r\\n                    \\r\\n                    <div class="post_body">\\r\\n                        <img src="images/templatemo_image_01.jpg" alt="Web Template" />\\r\\n                        <p>This is a free blog template provided by <a href="http://www.templatemo.com" target="_parent">TemplateMo.com</a> website. You may download, modify and apply this CSS layout for your personal or business websites.</p>\\r\\n                        <p>Credit goes to <a href="http://www.photovaco.com" target="_blank">photovaco.com</a> for photos.</p>\\r\\n                      \\r\\n                    </div>\\r\\n                    <div class="post_comment">\\r\\n                    \\t<a href="#">12 comments</a></div>\\r\\n                </div> <!-- end of post two -->\\r\\n                \\r\\n                <div class="templatemo_post">\\r\\n                    <div class="post_title">\\r\\n                    \\tHTML CSS Website Layout\\r\\n                    \\t  <div class="post_info">\\r\\n                    \\t\\tPosted by <a href="http://www.templatemo.com" target="_parent">TemplateMo.com</a>, December 2, 2024 at 6:45 am, in <a href="#">Web Template.</a>\\r\\n\\t                    </div>\\r\\n                    </div>\\r\\n                    \\r\\n                    <div class="post_body">\\r\\n                        <img src="images/templatemo_image_02.jpg" alt="CSS Template" />\\r\\n                        <p>Lorem ipsum dolor sit amet, consectetuer adipiscing elit. Nunc quis sem nec tellus blandit tincidunt. Suspendisse hendrerit turpis id augue.</p>\\r\\n                        <p>Suspendisse at pede vel lorem pulvinar laoreet. Etiam et neque. Donec dapibus viverra est. Maecenas dignissim, quam a posuere scelerisque, ligula arcu dictum turpis, id tempus turpis erat at nulla.</p>\\r\\n                    </div>\\r\\n                    <div class="post_comment">\\r\\n                    \\t<a href="#">No comment</a></div>\\r\\n                </div> <!-- end of post two -->\\r\\n\\r\\n                \\r\\n            </div> <!-- end of content left -->\\r\\n        \\r\\n            <div id="templatemo_content_right">\\r\\n            \\r\\n            \\t<div class="templatemo_right_section">\\r\\n                \\t<h2>Categories</h2>\\r\\n\\t\\t\\t\\t\\t<ul>\\r\\n                        <li><a href="#">Morbi nec magna pulvinar</a></li>\\r\\n                        <li><a href="#">Suspendisse rhoncus lectus</a></li>\\r\\n                        <li><a href="#">Pellentesque rutrum est</a></li>\\r\\n                        <li><a href="#">Nunc blandit orci</a></li>\\r\\n                    </ul>    \\r\\n                </div>\\r\\n                \\r\\n                <div class="templatemo_right_section">\\r\\n                \\t<h2>Archives</h2>\\r\\n\\t\\t\\t\\t\\t<ul>\\r\\n                        <li><a href="#">January 2024</a></li>\\r\\n                        <li><a href="#">December 2023</a></li>\\r\\n                        <li><a href="#">November 2023</a></li>\\r\\n                        <li><a href="#">October 2023</a></li>\\r\\n                        <li><a href="#">September 2023</a></li>\\r\\n                    </ul>  \\r\\n                </div>\\r\\n                \\r\\n                 <div class="templatemo_right_section">\\r\\n\\t                <h2>Popular Posts</h2>\\r\\n                \\t<ul class="popular_post">\\t\\r\\n                        <li><a href="#">Donec mollis aliquet</a><br />Author 1 - Oct 14, 2024 <span class="comment">12 replies</span></li>\\r\\n                        <li><a href="#">Aliquam tristique lacust</a><br />Author 2 - Oct 14, 2024 <span class="comment">8 replies</span></li>\\r\\n                        <li><a href="#">Suspendisse potent</a><br />Author 3 - Oct 14, 2024 <span class="comment">10 replies</span></li>\\r\\n                        <li><a href="#">Nullam vitae tellus</a><br />Author 4 - Oct 14, 2024 <span class="comment">30 replies</span></li>\\r\\n                    </ul>\\r\\n                </div>\\r\\n                \\r\\n                <div class="templatemo_right_section">\\r\\n\\t                <h2>Recent Comments</h2>\\r\\n                \\t<ul>\\t\\r\\n                        <li>Lorem Ipsum on <a href="#">Donec mollis aliquet</a></li>\\r\\n                        <li>Consectetuer on <a href="#">Suspendisse a nibh</a></li>\\r\\n                        <li>Sed on <a href="#">Pellentesque vitae magna</a></li>\\r\\n                        <li>Vitae Neque on <a href="#">Nunc blandit orci sit amet</a></li>\\r\\n                      <li>Donec Mollis on <a href="#">Maecenas adipiscing</a></li>\\r\\n                  </ul>\\r\\n                </div>\\r\\n                \\r\\n            </div> <!-- end of right content -->\\r\\n\\t    </div> <!-- end of content -->\\r\\n    </div> <!-- end of content container -->\\r\\n\\r\\n\\t<div id="templatemo_bottom_panel">\\r\\n    \\t<div id="templatemo_bottom_section">\\r\\n        \\r\\n\\t        <div class="templatemo_bottom_section_content">\\r\\n                <h3>Gallery</h3>\\r\\n                <ul class="gallery">\\r\\n                \\t<li><a href="#"><img src="images/templatemo_thumb_01.jpg" alt="image name" /></a></li>\\r\\n                    <li><a href="#"><img src="images/templatemo_thumb_02.jpg" alt="image name" /></a></li>\\r\\n                    <li><a href="#"><img src="images/templatemo_thumb_03.jpg" alt="image name" /></a></li>\\r\\n                    <li><a href="http://www.templatemo.com" target="_blank"><img src="images/templatemo_thumb_04.jpg" alt="Free CSS" /></a></li>\\r\\n                    <li><a href="http://www.flashmo.com" target="_blank"><img src="images/templatemo_thumb_05.jpg" alt="Free Flash" /></a></li>\\r\\n                    <li><a href="http://www.webdesignmo.com" target="_blank"><img src="images/templatemo_thumb_06.jpg" alt="Web Design" /></a></li>\\r\\n                </ul>\\r\\n            </div>\\r\\n          \\r\\n            <div class="templatemo_bottom_section_content">\\r\\n                <h3>Friends</h3>\\r\\n                <ul class="list_section">\\r\\n                    <li><a href="#">Lorem ipsum</a></li>\\r\\n                    <li><a href="#">Duis mollis</a></li>\\r\\n                    <li><a href="#">Maecenas adipiscing</a></li>\\r\\n                    <li><a href="#">Nunc blandit orci</a></li>\\r\\n                    <li><a href="#">Cum sociis natoque</a></li>\\r\\n                </ul>\\r\\n            </div>\\r\\n            \\r\\n            <div class="templatemo_bottom_section_content">\\r\\n                <h3>Other Links</h3>\\r\\n                 <ul class="list_section">\\r\\n                    \\r\\n                    <li><a href="#">About</a></li>                 \\r\\n                    <li><a href="#">Contact</a></li>\\r\\n                    <li><a href="#">Privacy</a></li>\\r\\n                    <li><a href="#">Terms</a></li>\\r\\n                    \\r\\n                </ul>\\r\\n                <a href="http://validator.w3.org/check?uri=referer"><img style="border:0;width:88px;height:31px" src="http://www.w3.org/Icons/valid-xhtml10" alt="Valid XHTML 1.0 Transitional" width="88" height="31" vspace="8" border="0" /></a>\\r\\n<a href="http://jigsaw.w3.org/css-validator/check/referer"><img style="border:0;width:88px;height:31px"  src="http://jigsaw.w3.org/css-validator/images/vcss-blue" alt="Valid CSS!" vspace="8" border="0" /></a> \\r\\n            </div>\\r\\n            \\r\\n        </div> <!-- end of templatemo bottom section -->\\r\\n    </div> <!-- end of templatemo bottom panel -->\\r\\n  <!--  Designed by w w w . t e m p l a t e m o . c o m  -->  \\r\\n<div id="templatemo_footer_panel">\\r\\n    \\t<div id="templatemo_footer_section">\\r\\n\\t\\t\\tCopyright \\xc2\\xa9 2024 <a href="#">Your Company Name</a> | Designed by <a href="http://www.templatemo.com" target="_parent">Free CSS Templates</a>\\r\\n        </div>\\r\\n    </div>\\r\\n\\r\\n</body>\\r\\n</html>\\r\\n\', escape=False)'
p7
sS'snapshot'
p8
(dp9
S'exception'
p10
(dp11
S'__getslice__'
p12
S"<method-wrapper '__getslice__' of exceptions.SyntaxError object>"
p13
sS'text'
p14
S'\'response.write(\\\'" rel="stylesheet" type="text/cs...atemo header panel -->\\\\r\\\\n      \\\', escape=False)\\n\''
p15
sS'__str__'
p16
S"<method-wrapper '__str__' of exceptions.SyntaxError object>"
p17
sS'__reduce__'
p18
S'<built-in method __reduce__ of exceptions.SyntaxError object>'
p19
sS'__dict__'
p20
S'{}'
p21
sS'__sizeof__'
p22
S'<built-in method __sizeof__ of exceptions.SyntaxError object>'
p23
sS'__init__'
p24
S"<method-wrapper '__init__' of exceptions.SyntaxError object>"
p25
sS'__setattr__'
p26
S"<method-wrapper '__setattr__' of exceptions.SyntaxError object>"
p27
sS'__reduce_ex__'
p28
S'<built-in method __reduce_ex__ of exceptions.SyntaxError object>'
p29
sS'__new__'
p30
S'<built-in method __new__ of type object>'
p31
sS'__format__'
p32
S'<built-in method __format__ of exceptions.SyntaxError object>'
p33
sS'__class__'
p34
S"<type 'exceptions.SyntaxError'>"
p35
sS'filename'
p36
S"'/home/user/Documents/2nd sem/ITWS-2/web2py/applications/IIIT_calendars/views/default/index.html'"
p37
sS'lineno'
p38
S'3'
sS'msg'
p39
S"'invalid syntax'"
p40
sS'__doc__'
p41
S"'Invalid syntax.'"
p42
sS'__getitem__'
p43
S"<method-wrapper '__getitem__' of exceptions.SyntaxError object>"
p44
sS'__setstate__'
p45
S'<built-in method __setstate__ of exceptions.SyntaxError object>'
p46
sS'__getattribute__'
p47
S"<method-wrapper '__getattribute__' of exceptions.SyntaxError object>"
p48
sS'print_file_and_line'
p49
S'None'
p50
sS'args'
p51
S'(\'invalid syntax\', (\'/home/user/Documents/2nd sem/ITWS-2/web2py/applications/IIIT_calendars/views/default/index.html\', 3, 8, \'response.write(\\\'" rel="stylesheet" type="text/cs...atemo header panel -->\\\\r\\\\n      \\\', escape=False)\\n\'))'
p52
sS'__subclasshook__'
p53
S'<built-in method __subclasshook__ of type object>'
p54
sS'offset'
p55
S'8'
sS'__unicode__'
p56
S'<built-in method __unicode__ of exceptions.SyntaxError object>'
p57
sS'__delattr__'
p58
S"<method-wrapper '__delattr__' of exceptions.SyntaxError object>"
p59
sS'__repr__'
p60
S"<method-wrapper '__repr__' of exceptions.SyntaxError object>"
p61
sS'__hash__'
p62
S"<method-wrapper '__hash__' of exceptions.SyntaxError object>"
p63
ssS'evalue'
p64
S'invalid syntax (index.html, line 3)'
p65
sS'request'
p66
ccopy_reg
_reconstructor
p67
(cgluon.html
BEAUTIFY
p68
c__builtin__
object
p69
NtRp70
(dp71
S'attributes'
p72
(dp73
sS'components'
p74
(lp75
g67
(cgluon.html
TABLE
p76
g69
NtRp77
(dp78
g72
(dp79
S'level'
p80
I5
ssS'parent'
p81
Nsg74
(lp82
g67
(cgluon.html
TR
p83
g69
NtRp84
(dp85
g72
(dp86
sg81
g77
sg74
(lp87
g67
(cgluon.html
TD
p88
g69
NtRp89
(dp90
g72
(dp91
S'_style'
p92
S'font-weight:bold;vertical-align:top'
p93
ssg81
g84
sg74
(lp94
S'ajax'
p95
asbag67
(g88
g69
NtRp96
(dp97
g72
(dp98
S'_valign'
p99
S'top'
p100
ssg81
g84
sg74
(lp101
S':'
asbag67
(g88
g69
NtRp102
(dp103
g72
(dp104
sg81
g84
sg74
(lp105
g67
(g68
g69
NtRp106
(dp107
g72
(dp108
g80
I5
ssg81
g102
sg74
(lp109
S'False'
p110
asbasbasbag67
(g83
g69
NtRp111
(dp112
g72
(dp113
sg81
g77
sg74
(lp114
g67
(g88
g69
NtRp115
(dp116
g72
(dp117
g92
g93
ssg81
g111
sg74
(lp118
S'application'
p119
asbag67
(g88
g69
NtRp120
(dp121
g72
(dp122
g99
g100
ssg81
g111
sg74
(lp123
S':'
asbag67
(g88
g69
NtRp124
(dp125
g72
(dp126
sg81
g111
sg74
(lp127
g67
(g68
g69
NtRp128
(dp129
g72
(dp130
g80
I5
ssg81
g124
sg74
(lp131
S'IIIT_calendars'
p132
asbasbasbag67
(g83
g69
NtRp133
(dp134
g72
(dp135
sg81
g77
sg74
(lp136
g67
(g88
g69
NtRp137
(dp138
g72
(dp139
g92
g93
ssg81
g133
sg74
(lp140
g51
asbag67
(g88
g69
NtRp141
(dp142
g72
(dp143
g99
g100
ssg81
g133
sg74
(lp144
S':'
asbag67
(g88
g69
NtRp145
(dp146
g72
(dp147
sg81
g133
sg74
(lp148
g67
(g68
g69
NtRp149
(dp150
g72
(dp151
g80
I5
ssg81
g145
sg74
(lp152
g67
(g76
g69
NtRp153
(dp154
g72
(dp155
g80
I4
ssg81
Nsg74
(lp156
sbasbasbasbag67
(g83
g69
NtRp157
(dp158
g72
(dp159
sg81
g77
sg74
(lp160
g67
(g88
g69
NtRp161
(dp162
g72
(dp163
g92
g93
ssg81
g157
sg74
(lp164
S'body'
p165
asbag67
(g88
g69
NtRp166
(dp167
g72
(dp168
g99
g100
ssg81
g157
sg74
(lp169
S':'
asbag67
(g88
g69
NtRp170
(dp171
g72
(dp172
sg81
g157
sg74
(lp173
g67
(g68
g69
NtRp174
(dp175
g72
(dp176
g80
I5
ssg81
g170
sg74
(lp177
S'<cStringIO.StringO object at 0xacb7d6e0>'
p178
asbasbasbag67
(g83
g69
NtRp179
(dp180
g72
(dp181
sg81
g77
sg74
(lp182
g67
(g88
g69
NtRp183
(dp184
g72
(dp185
g92
g93
ssg81
g179
sg74
(lp186
S'cid'
p187
asbag67
(g88
g69
NtRp188
(dp189
g72
(dp190
g99
g100
ssg81
g179
sg74
(lp191
S':'
asbag67
(g88
g69
NtRp192
(dp193
g72
(dp194
sg81
g179
sg74
(lp195
g67
(g68
g69
NtRp196
(dp197
g72
(dp198
g80
I5
ssg81
g192
sg74
(lp199
S'None'
p200
asbasbasbag67
(g83
g69
NtRp201
(dp202
g72
(dp203
sg81
g77
sg74
(lp204
g67
(g88
g69
NtRp205
(dp206
g72
(dp207
g92
g93
ssg81
g201
sg74
(lp208
S'client'
p209
asbag67
(g88
g69
NtRp210
(dp211
g72
(dp212
g99
g100
ssg81
g201
sg74
(lp213
S':'
asbag67
(g88
g69
NtRp214
(dp215
g72
(dp216
sg81
g201
sg74
(lp217
g67
(g68
g69
NtRp218
(dp219
g72
(dp220
g80
I5
ssg81
g214
sg74
(lp221
S'127.0.0.1'
p222
asbasbasbag67
(g83
g69
NtRp223
(dp224
g72
(dp225
sg81
g77
sg74
(lp226
g67
(g88
g69
NtRp227
(dp228
g72
(dp229
g92
g93
ssg81
g223
sg74
(lp230
S'controller'
p231
asbag67
(g88
g69
NtRp232
(dp233
g72
(dp234
g99
g100
ssg81
g223
sg74
(lp235
S':'
asbag67
(g88
g69
NtRp236
(dp237
g72
(dp238
sg81
g223
sg74
(lp239
g67
(g68
g69
NtRp240
(dp241
g72
(dp242
g80
I5
ssg81
g236
sg74
(lp243
S'default'
p244
asbasbasbag67
(g83
g69
NtRp245
(dp246
g72
(dp247
sg81
g77
sg74
(lp248
g67
(g88
g69
NtRp249
(dp250
g72
(dp251
g92
g93
ssg81
g245
sg74
(lp252
S'cookies'
p253
asbag67
(g88
g69
NtRp254
(dp255
g72
(dp256
g99
g100
ssg81
g245
sg74
(lp257
S':'
asbag67
(g88
g69
NtRp258
(dp259
g72
(dp260
sg81
g245
sg74
(lp261
g67
(g68
g69
NtRp262
(dp263
g72
(dp264
g80
I5
ssg81
g258
sg74
(lp265
g67
(g76
g69
NtRp266
(dp267
g72
(dp268
g80
I4
ssg81
Nsg74
(lp269
g67
(g83
g69
NtRp270
(dp271
g72
(dp272
sg81
g266
sg74
(lp273
g67
(g88
g69
NtRp274
(dp275
g72
(dp276
g92
g93
ssg81
g270
sg74
(lp277
S'session_id_admin'
p278
asbag67
(g88
g69
NtRp279
(dp280
g72
(dp281
g99
g100
ssg81
g270
sg74
(lp282
S':'
asbag67
(g88
g69
NtRp283
(dp284
g72
(dp285
sg81
g270
sg74
(lp286
g67
(g68
g69
NtRp287
(dp288
g72
(dp289
g80
I4
ssg81
g283
sg74
(lp290
S'127.0.0.1-9fa83068-fcde-451a-8806-f90332c0862d'
p291
ag67
(g76
g69
NtRp292
(dp293
g72
(dp294
g80
I3
ssg81
Nsg74
(lp295
g67
(g83
g69
NtRp296
(dp297
g72
(dp298
sg81
g292
sg74
(lp299
g67
(g88
g69
NtRp300
(dp301
g72
(dp302
g92
g93
ssg81
g296
sg74
(lp303
S'comment'
p304
asbag67
(g88
g69
NtRp305
(dp306
g72
(dp307
g99
g100
ssg81
g296
sg74
(lp308
S':'
asbag67
(g88
g69
NtRp309
(dp310
g72
(dp311
sg81
g296
sg74
(lp312
g67
(g68
g69
NtRp313
(dp314
g72
(dp315
g80
I3
ssg81
g309
sg74
(lp316
S''
asbasbasbag67
(g83
g69
NtRp317
(dp318
g72
(dp319
sg81
g292
sg74
(lp320
g67
(g88
g69
NtRp321
(dp322
g72
(dp323
g92
g93
ssg81
g317
sg74
(lp324
S'domain'
p325
asbag67
(g88
g69
NtRp326
(dp327
g72
(dp328
g99
g100
ssg81
g317
sg74
(lp329
S':'
asbag67
(g88
g69
NtRp330
(dp331
g72
(dp332
sg81
g317
sg74
(lp333
g67
(g68
g69
NtRp334
(dp335
g72
(dp336
g80
I3
ssg81
g330
sg74
(lp337
S''
asbasbasbag67
(g83
g69
NtRp338
(dp339
g72
(dp340
sg81
g292
sg74
(lp341
g67
(g88
g69
NtRp342
(dp343
g72
(dp344
g92
g93
ssg81
g338
sg74
(lp345
S'expires'
p346
asbag67
(g88
g69
NtRp347
(dp348
g72
(dp349
g99
g100
ssg81
g338
sg74
(lp350
S':'
asbag67
(g88
g69
NtRp351
(dp352
g72
(dp353
sg81
g338
sg74
(lp354
g67
(g68
g69
NtRp355
(dp356
g72
(dp357
g80
I3
ssg81
g351
sg74
(lp358
S''
asbasbasbag67
(g83
g69
NtRp359
(dp360
g72
(dp361
sg81
g292
sg74
(lp362
g67
(g88
g69
NtRp363
(dp364
g72
(dp365
g92
g93
ssg81
g359
sg74
(lp366
S'httponly'
p367
asbag67
(g88
g69
NtRp368
(dp369
g72
(dp370
g99
g100
ssg81
g359
sg74
(lp371
S':'
asbag67
(g88
g69
NtRp372
(dp373
g72
(dp374
sg81
g359
sg74
(lp375
g67
(g68
g69
NtRp376
(dp377
g72
(dp378
g80
I3
ssg81
g372
sg74
(lp379
S''
asbasbasbag67
(g83
g69
NtRp380
(dp381
g72
(dp382
sg81
g292
sg74
(lp383
g67
(g88
g69
NtRp384
(dp385
g72
(dp386
g92
g93
ssg81
g380
sg74
(lp387
S'max-age'
p388
asbag67
(g88
g69
NtRp389
(dp390
g72
(dp391
g99
g100
ssg81
g380
sg74
(lp392
S':'
asbag67
(g88
g69
NtRp393
(dp394
g72
(dp395
sg81
g380
sg74
(lp396
g67
(g68
g69
NtRp397
(dp398
g72
(dp399
g80
I3
ssg81
g393
sg74
(lp400
S''
asbasbasbag67
(g83
g69
NtRp401
(dp402
g72
(dp403
sg81
g292
sg74
(lp404
g67
(g88
g69
NtRp405
(dp406
g72
(dp407
g92
g93
ssg81
g401
sg74
(lp408
S'path'
p409
asbag67
(g88
g69
NtRp410
(dp411
g72
(dp412
g99
g100
ssg81
g401
sg74
(lp413
S':'
asbag67
(g88
g69
NtRp414
(dp415
g72
(dp416
sg81
g401
sg74
(lp417
g67
(g68
g69
NtRp418
(dp419
g72
(dp420
g80
I3
ssg81
g414
sg74
(lp421
S''
asbasbasbag67
(g83
g69
NtRp422
(dp423
g72
(dp424
sg81
g292
sg74
(lp425
g67
(g88
g69
NtRp426
(dp427
g72
(dp428
g92
g93
ssg81
g422
sg74
(lp429
S'secure'
p430
asbag67
(g88
g69
NtRp431
(dp432
g72
(dp433
g99
g100
ssg81
g422
sg74
(lp434
S':'
asbag67
(g88
g69
NtRp435
(dp436
g72
(dp437
sg81
g422
sg74
(lp438
g67
(g68
g69
NtRp439
(dp440
g72
(dp441
g80
I3
ssg81
g435
sg74
(lp442
S''
asbasbasbag67
(g83
g69
NtRp443
(dp444
g72
(dp445
sg81
g292
sg74
(lp446
g67
(g88
g69
NtRp447
(dp448
g72
(dp449
g92
g93
ssg81
g443
sg74
(lp450
S'version'
p451
asbag67
(g88
g69
NtRp452
(dp453
g72
(dp454
g99
g100
ssg81
g443
sg74
(lp455
S':'
asbag67
(g88
g69
NtRp456
(dp457
g72
(dp458
sg81
g443
sg74
(lp459
g67
(g68
g69
NtRp460
(dp461
g72
(dp462
g80
I3
ssg81
g456
sg74
(lp463
S''
asbasbasbasbasbasbasbag67
(g83
g69
NtRp464
(dp465
g72
(dp466
sg81
g266
sg74
(lp467
g67
(g88
g69
NtRp468
(dp469
g72
(dp470
g92
g93
ssg81
g464
sg74
(lp471
S'session_id_iiit_calendars'
p472
asbag67
(g88
g69
NtRp473
(dp474
g72
(dp475
g99
g100
ssg81
g464
sg74
(lp476
S':'
asbag67
(g88
g69
NtRp477
(dp478
g72
(dp479
sg81
g464
sg74
(lp480
g67
(g68
g69
NtRp481
(dp482
g72
(dp483
g80
I4
ssg81
g477
sg74
(lp484
S'127.0.0.1-ef46ca7d-688b-4464-b69a-9ebd5cac3e72'
p485
ag67
(g76
g69
NtRp486
(dp487
g72
(dp488
g80
I3
ssg81
Nsg74
(lp489
g67
(g83
g69
NtRp490
(dp491
g72
(dp492
sg81
g486
sg74
(lp493
g67
(g88
g69
NtRp494
(dp495
g72
(dp496
g92
g93
ssg81
g490
sg74
(lp497
g304
asbag67
(g88
g69
NtRp498
(dp499
g72
(dp500
g99
g100
ssg81
g490
sg74
(lp501
S':'
asbag67
(g88
g69
NtRp502
(dp503
g72
(dp504
sg81
g490
sg74
(lp505
g67
(g68
g69
NtRp506
(dp507
g72
(dp508
g80
I3
ssg81
g502
sg74
(lp509
S''
asbasbasbag67
(g83
g69
NtRp510
(dp511
g72
(dp512
sg81
g486
sg74
(lp513
g67
(g88
g69
NtRp514
(dp515
g72
(dp516
g92
g93
ssg81
g510
sg74
(lp517
g325
asbag67
(g88
g69
NtRp518
(dp519
g72
(dp520
g99
g100
ssg81
g510
sg74
(lp521
S':'
asbag67
(g88
g69
NtRp522
(dp523
g72
(dp524
sg81
g510
sg74
(lp525
g67
(g68
g69
NtRp526
(dp527
g72
(dp528
g80
I3
ssg81
g522
sg74
(lp529
S''
asbasbasbag67
(g83
g69
NtRp530
(dp531
g72
(dp532
sg81
g486
sg74
(lp533
g67
(g88
g69
NtRp534
(dp535
g72
(dp536
g92
g93
ssg81
g530
sg74
(lp537
g346
asbag67
(g88
g69
NtRp538
(dp539
g72
(dp540
g99
g100
ssg81
g530
sg74
(lp541
S':'
asbag67
(g88
g69
NtRp542
(dp543
g72
(dp544
sg81
g530
sg74
(lp545
g67
(g68
g69
NtRp546
(dp547
g72
(dp548
g80
I3
ssg81
g542
sg74
(lp549
S''
asbasbasbag67
(g83
g69
NtRp550
(dp551
g72
(dp552
sg81
g486
sg74
(lp553
g67
(g88
g69
NtRp554
(dp555
g72
(dp556
g92
g93
ssg81
g550
sg74
(lp557
g367
asbag67
(g88
g69
NtRp558
(dp559
g72
(dp560
g99
g100
ssg81
g550
sg74
(lp561
S':'
asbag67
(g88
g69
NtRp562
(dp563
g72
(dp564
sg81
g550
sg74
(lp565
g67
(g68
g69
NtRp566
(dp567
g72
(dp568
g80
I3
ssg81
g562
sg74
(lp569
S''
asbasbasbag67
(g83
g69
NtRp570
(dp571
g72
(dp572
sg81
g486
sg74
(lp573
g67
(g88
g69
NtRp574
(dp575
g72
(dp576
g92
g93
ssg81
g570
sg74
(lp577
g388
asbag67
(g88
g69
NtRp578
(dp579
g72
(dp580
g99
g100
ssg81
g570
sg74
(lp581
S':'
asbag67
(g88
g69
NtRp582
(dp583
g72
(dp584
sg81
g570
sg74
(lp585
g67
(g68
g69
NtRp586
(dp587
g72
(dp588
g80
I3
ssg81
g582
sg74
(lp589
S''
asbasbasbag67
(g83
g69
NtRp590
(dp591
g72
(dp592
sg81
g486
sg74
(lp593
g67
(g88
g69
NtRp594
(dp595
g72
(dp596
g92
g93
ssg81
g590
sg74
(lp597
g409
asbag67
(g88
g69
NtRp598
(dp599
g72
(dp600
g99
g100
ssg81
g590
sg74
(lp601
S':'
asbag67
(g88
g69
NtRp602
(dp603
g72
(dp604
sg81
g590
sg74
(lp605
g67
(g68
g69
NtRp606
(dp607
g72
(dp608
g80
I3
ssg81
g602
sg74
(lp609
S''
asbasbasbag67
(g83
g69
NtRp610
(dp611
g72
(dp612
sg81
g486
sg74
(lp613
g67
(g88
g69
NtRp614
(dp615
g72
(dp616
g92
g93
ssg81
g610
sg74
(lp617
g430
asbag67
(g88
g69
NtRp618
(dp619
g72
(dp620
g99
g100
ssg81
g610
sg74
(lp621
S':'
asbag67
(g88
g69
NtRp622
(dp623
g72
(dp624
sg81
g610
sg74
(lp625
g67
(g68
g69
NtRp626
(dp627
g72
(dp628
g80
I3
ssg81
g622
sg74
(lp629
S''
asbasbasbag67
(g83
g69
NtRp630
(dp631
g72
(dp632
sg81
g486
sg74
(lp633
g67
(g88
g69
NtRp634
(dp635
g72
(dp636
g92
g93
ssg81
g630
sg74
(lp637
g451
asbag67
(g88
g69
NtRp638
(dp639
g72
(dp640
g99
g100
ssg81
g630
sg74
(lp641
S':'
asbag67
(g88
g69
NtRp642
(dp643
g72
(dp644
sg81
g630
sg74
(lp645
g67
(g68
g69
NtRp646
(dp647
g72
(dp648
g80
I3
ssg81
g642
sg74
(lp649
S''
asbasbasbasbasbasbasbag67
(g83
g69
NtRp650
(dp651
g72
(dp652
sg81
g266
sg74
(lp653
g67
(g88
g69
NtRp654
(dp655
g72
(dp656
g92
g93
ssg81
g650
sg74
(lp657
S'session_id_welcome'
p658
asbag67
(g88
g69
NtRp659
(dp660
g72
(dp661
g99
g100
ssg81
g650
sg74
(lp662
S':'
asbag67
(g88
g69
NtRp663
(dp664
g72
(dp665
sg81
g650
sg74
(lp666
g67
(g68
g69
NtRp667
(dp668
g72
(dp669
g80
I4
ssg81
g663
sg74
(lp670
S'127.0.0.1-34f5d876-bf24-46c6-bb48-7f2919bef1e7'
p671
ag67
(g76
g69
NtRp672
(dp673
g72
(dp674
g80
I3
ssg81
Nsg74
(lp675
g67
(g83
g69
NtRp676
(dp677
g72
(dp678
sg81
g672
sg74
(lp679
g67
(g88
g69
NtRp680
(dp681
g72
(dp682
g92
g93
ssg81
g676
sg74
(lp683
g304
asbag67
(g88
g69
NtRp684
(dp685
g72
(dp686
g99
g100
ssg81
g676
sg74
(lp687
S':'
asbag67
(g88
g69
NtRp688
(dp689
g72
(dp690
sg81
g676
sg74
(lp691
g67
(g68
g69
NtRp692
(dp693
g72
(dp694
g80
I3
ssg81
g688
sg74
(lp695
S''
asbasbasbag67
(g83
g69
NtRp696
(dp697
g72
(dp698
sg81
g672
sg74
(lp699
g67
(g88
g69
NtRp700
(dp701
g72
(dp702
g92
g93
ssg81
g696
sg74
(lp703
g325
asbag67
(g88
g69
NtRp704
(dp705
g72
(dp706
g99
g100
ssg81
g696
sg74
(lp707
S':'
asbag67
(g88
g69
NtRp708
(dp709
g72
(dp710
sg81
g696
sg74
(lp711
g67
(g68
g69
NtRp712
(dp713
g72
(dp714
g80
I3
ssg81
g708
sg74
(lp715
S''
asbasbasbag67
(g83
g69
NtRp716
(dp717
g72
(dp718
sg81
g672
sg74
(lp719
g67
(g88
g69
NtRp720
(dp721
g72
(dp722
g92
g93
ssg81
g716
sg74
(lp723
g346
asbag67
(g88
g69
NtRp724
(dp725
g72
(dp726
g99
g100
ssg81
g716
sg74
(lp727
S':'
asbag67
(g88
g69
NtRp728
(dp729
g72
(dp730
sg81
g716
sg74
(lp731
g67
(g68
g69
NtRp732
(dp733
g72
(dp734
g80
I3
ssg81
g728
sg74
(lp735
S''
asbasbasbag67
(g83
g69
NtRp736
(dp737
g72
(dp738
sg81
g672
sg74
(lp739
g67
(g88
g69
NtRp740
(dp741
g72
(dp742
g92
g93
ssg81
g736
sg74
(lp743
g367
asbag67
(g88
g69
NtRp744
(dp745
g72
(dp746
g99
g100
ssg81
g736
sg74
(lp747
S':'
asbag67
(g88
g69
NtRp748
(dp749
g72
(dp750
sg81
g736
sg74
(lp751
g67
(g68
g69
NtRp752
(dp753
g72
(dp754
g80
I3
ssg81
g748
sg74
(lp755
S''
asbasbasbag67
(g83
g69
NtRp756
(dp757
g72
(dp758
sg81
g672
sg74
(lp759
g67
(g88
g69
NtRp760
(dp761
g72
(dp762
g92
g93
ssg81
g756
sg74
(lp763
g388
asbag67
(g88
g69
NtRp764
(dp765
g72
(dp766
g99
g100
ssg81
g756
sg74
(lp767
S':'
asbag67
(g88
g69
NtRp768
(dp769
g72
(dp770
sg81
g756
sg74
(lp771
g67
(g68
g69
NtRp772
(dp773
g72
(dp774
g80
I3
ssg81
g768
sg74
(lp775
S''
asbasbasbag67
(g83
g69
NtRp776
(dp777
g72
(dp778
sg81
g672
sg74
(lp779
g67
(g88
g69
NtRp780
(dp781
g72
(dp782
g92
g93
ssg81
g776
sg74
(lp783
g409
asbag67
(g88
g69
NtRp784
(dp785
g72
(dp786
g99
g100
ssg81
g776
sg74
(lp787
S':'
asbag67
(g88
g69
NtRp788
(dp789
g72
(dp790
sg81
g776
sg74
(lp791
g67
(g68
g69
NtRp792
(dp793
g72
(dp794
g80
I3
ssg81
g788
sg74
(lp795
S''
asbasbasbag67
(g83
g69
NtRp796
(dp797
g72
(dp798
sg81
g672
sg74
(lp799
g67
(g88
g69
NtRp800
(dp801
g72
(dp802
g92
g93
ssg81
g796
sg74
(lp803
g430
asbag67
(g88
g69
NtRp804
(dp805
g72
(dp806
g99
g100
ssg81
g796
sg74
(lp807
S':'
asbag67
(g88
g69
NtRp808
(dp809
g72
(dp810
sg81
g796
sg74
(lp811
g67
(g68
g69
NtRp812
(dp813
g72
(dp814
g80
I3
ssg81
g808
sg74
(lp815
S''
asbasbasbag67
(g83
g69
NtRp816
(dp817
g72
(dp818
sg81
g672
sg74
(lp819
g67
(g88
g69
NtRp820
(dp821
g72
(dp822
g92
g93
ssg81
g816
sg74
(lp823
g451
asbag67
(g88
g69
NtRp824
(dp825
g72
(dp826
g99
g100
ssg81
g816
sg74
(lp827
S':'
asbag67
(g88
g69
NtRp828
(dp829
g72
(dp830
sg81
g816
sg74
(lp831
g67
(g68
g69
NtRp832
(dp833
g72
(dp834
g80
I3
ssg81
g828
sg74
(lp835
S''
asbasbasbasbasbasbasbasbasbasbasbag67
(g83
g69
NtRp836
(dp837
g72
(dp838
sg81
g77
sg74
(lp839
g67
(g88
g69
NtRp840
(dp841
g72
(dp842
g92
g93
ssg81
g836
sg74
(lp843
S'env'
p844
asbag67
(g88
g69
NtRp845
(dp846
g72
(dp847
g99
g100
ssg81
g836
sg74
(lp848
S':'
asbag67
(g88
g69
NtRp849
(dp850
g72
(dp851
sg81
g836
sg74
(lp852
g67
(g68
g69
NtRp853
(dp854
g72
(dp855
g80
I5
ssg81
g849
sg74
(lp856
g67
(g76
g69
NtRp857
(dp858
g72
(dp859
g80
I4
ssg81
Nsg74
(lp860
g67
(g83
g69
NtRp861
(dp862
g72
(dp863
sg81
g857
sg74
(lp864
g67
(g88
g69
NtRp865
(dp866
g72
(dp867
g92
g93
ssg81
g861
sg74
(lp868
S'app_folders'
p869
asbag67
(g88
g69
NtRp870
(dp871
g72
(dp872
g99
g100
ssg81
g861
sg74
(lp873
S':'
asbag67
(g88
g69
NtRp874
(dp875
g72
(dp876
sg81
g861
sg74
(lp877
g67
(g68
g69
NtRp878
(dp879
g72
(dp880
g80
I4
ssg81
g874
sg74
(lp881
S"set(['/home/user/Documents/2nd sem/ITWS-2/web2py/applications/IIIT_calendars/', '/home/user/Documents/2nd sem/ITWS-2/web2py/applications/welcome/', '/home/user/Documents/2nd sem/ITWS-2/web2py/applications/admin/'])"
p882
asbasbasbag67
(g83
g69
NtRp883
(dp884
g72
(dp885
sg81
g857
sg74
(lp886
g67
(g88
g69
NtRp887
(dp888
g72
(dp889
g92
g93
ssg81
g883
sg74
(lp890
S'applications_parent'
p891
asbag67
(g88
g69
NtRp892
(dp893
g72
(dp894
g99
g100
ssg81
g883
sg74
(lp895
S':'
asbag67
(g88
g69
NtRp896
(dp897
g72
(dp898
sg81
g883
sg74
(lp899
g67
(g68
g69
NtRp900
(dp901
g72
(dp902
g80
I4
ssg81
g896
sg74
(lp903
S'/home/user/Documents/2nd sem/ITWS-2/web2py'
p904
asbasbasbag67
(g83
g69
NtRp905
(dp906
g72
(dp907
sg81
g857
sg74
(lp908
g67
(g88
g69
NtRp909
(dp910
g72
(dp911
g92
g93
ssg81
g905
sg74
(lp912
S'cmd_args'
p913
asbag67
(g88
g69
NtRp914
(dp915
g72
(dp916
g99
g100
ssg81
g905
sg74
(lp917
S':'
asbag67
(g88
g69
NtRp918
(dp919
g72
(dp920
sg81
g905
sg74
(lp921
g67
(g68
g69
NtRp922
(dp923
g72
(dp924
g80
I4
ssg81
g918
sg74
(lp925
g67
(g76
g69
NtRp926
(dp927
g72
(dp928
g80
I3
ssg81
Nsg74
(lp929
sbasbasbasbag67
(g83
g69
NtRp930
(dp931
g72
(dp932
sg81
g857
sg74
(lp933
g67
(g88
g69
NtRp934
(dp935
g72
(dp936
g92
g93
ssg81
g930
sg74
(lp937
S'cmd_options'
p938
asbag67
(g88
g69
NtRp939
(dp940
g72
(dp941
g99
g100
ssg81
g930
sg74
(lp942
S':'
asbag67
(g88
g69
NtRp943
(dp944
g72
(dp945
sg81
g930
sg74
(lp946
g67
(g68
g69
NtRp947
(dp948
g72
(dp949
g80
I4
ssg81
g943
sg74
(lp950
S"<Values at 0xa056e6c: {'verbose': False, 'ip': '127.0.0.1', 'with_scheduler': False, 'ips': [], 'shutdown_timeout': 5, 'taskbar': False, 'port': 8000, 'maxthreads': None, 'softcron': False, 'server_name': 'computer123', 'bpython': False, 'nogui': False, 'pid_filename': 'httpserver.pid', 'extcron': False, 'runcron': False, 'run_system_tests': False, 'test': None, 'folder': '/home/user/Documents/2nd sem/ITWS-2/web2py', 'config': '', 'import_models': False, 'winservice': '', 'shell': None, 'run': '', 'log_filename': 'httpserver.log', 'debuglevel': 30, 'args': [''], 'socket_timeout': 5, 'ssl_ca_certificate': None, 'scheduler': None, 'profiler_filename': None, 'ssl_private_key': '', 'scheduler_groups': None, 'password': '<ask>', 'request_queue_size': 5, 'ssl_certificate': '', 'cronjob': False, 'numthreads': None, 'quiet': False, 'interfaces': None, 'minthreads': None, 'timeout': 10, 'plain': False, 'nobanner': False}>"
p951
asbasbasbag67
(g83
g69
NtRp952
(dp953
g72
(dp954
sg81
g857
sg74
(lp955
g67
(g88
g69
NtRp956
(dp957
g72
(dp958
g92
g93
ssg81
g952
sg74
(lp959
S'db_sessions'
p960
asbag67
(g88
g69
NtRp961
(dp962
g72
(dp963
g99
g100
ssg81
g952
sg74
(lp964
S':'
asbag67
(g88
g69
NtRp965
(dp966
g72
(dp967
sg81
g952
sg74
(lp968
g67
(g68
g69
NtRp969
(dp970
g72
(dp971
g80
I4
ssg81
g965
sg74
(lp972
S'set([])'
p973
asbasbasbag67
(g83
g69
NtRp974
(dp975
g72
(dp976
sg81
g857
sg74
(lp977
g67
(g88
g69
NtRp978
(dp979
g72
(dp980
g92
g93
ssg81
g974
sg74
(lp981
S'debugging'
p982
asbag67
(g88
g69
NtRp983
(dp984
g72
(dp985
g99
g100
ssg81
g974
sg74
(lp986
S':'
asbag67
(g88
g69
NtRp987
(dp988
g72
(dp989
sg81
g974
sg74
(lp990
g67
(g68
g69
NtRp991
(dp992
g72
(dp993
g80
I4
ssg81
g987
sg74
(lp994
g110
asbasbasbag67
(g83
g69
NtRp995
(dp996
g72
(dp997
sg81
g857
sg74
(lp998
g67
(g88
g69
NtRp999
(dp1000
g72
(dp1001
g92
g93
ssg81
g995
sg74
(lp1002
S'gluon_parent'
p1003
asbag67
(g88
g69
NtRp1004
(dp1005
g72
(dp1006
g99
g100
ssg81
g995
sg74
(lp1007
S':'
asbag67
(g88
g69
NtRp1008
(dp1009
g72
(dp1010
sg81
g995
sg74
(lp1011
g67
(g68
g69
NtRp1012
(dp1013
g72
(dp1014
g80
I4
ssg81
g1008
sg74
(lp1015
S'/home/user/Documents/2nd sem/ITWS-2/web2py'
p1016
asbasbasbag67
(g83
g69
NtRp1017
(dp1018
g72
(dp1019
sg81
g857
sg74
(lp1020
g67
(g88
g69
NtRp1021
(dp1022
g72
(dp1023
g92
g93
ssg81
g1017
sg74
(lp1024
S'http_accept'
p1025
asbag67
(g88
g69
NtRp1026
(dp1027
g72
(dp1028
g99
g100
ssg81
g1017
sg74
(lp1029
S':'
asbag67
(g88
g69
NtRp1030
(dp1031
g72
(dp1032
sg81
g1017
sg74
(lp1033
g67
(g68
g69
NtRp1034
(dp1035
g72
(dp1036
g80
I4
ssg81
g1030
sg74
(lp1037
S'text/html,application/xhtml+xml,application/xml;q=0.9,*/*;q=0.8'
p1038
asbasbasbag67
(g83
g69
NtRp1039
(dp1040
g72
(dp1041
sg81
g857
sg74
(lp1042
g67
(g88
g69
NtRp1043
(dp1044
g72
(dp1045
g92
g93
ssg81
g1039
sg74
(lp1046
S'http_accept_encoding'
p1047
asbag67
(g88
g69
NtRp1048
(dp1049
g72
(dp1050
g99
g100
ssg81
g1039
sg74
(lp1051
S':'
asbag67
(g88
g69
NtRp1052
(dp1053
g72
(dp1054
sg81
g1039
sg74
(lp1055
g67
(g68
g69
NtRp1056
(dp1057
g72
(dp1058
g80
I4
ssg81
g1052
sg74
(lp1059
S'gzip, deflate'
p1060
asbasbasbag67
(g83
g69
NtRp1061
(dp1062
g72
(dp1063
sg81
g857
sg74
(lp1064
g67
(g88
g69
NtRp1065
(dp1066
g72
(dp1067
g92
g93
ssg81
g1061
sg74
(lp1068
S'http_accept_language'
p1069
asbag67
(g88
g69
NtRp1070
(dp1071
g72
(dp1072
g99
g100
ssg81
g1061
sg74
(lp1073
S':'
asbag67
(g88
g69
NtRp1074
(dp1075
g72
(dp1076
sg81
g1061
sg74
(lp1077
g67
(g68
g69
NtRp1078
(dp1079
g72
(dp1080
g80
I4
ssg81
g1074
sg74
(lp1081
S'en-US,en;q=0.5'
p1082
asbasbasbag67
(g83
g69
NtRp1083
(dp1084
g72
(dp1085
sg81
g857
sg74
(lp1086
g67
(g88
g69
NtRp1087
(dp1088
g72
(dp1089
g92
g93
ssg81
g1083
sg74
(lp1090
S'http_connection'
p1091
asbag67
(g88
g69
NtRp1092
(dp1093
g72
(dp1094
g99
g100
ssg81
g1083
sg74
(lp1095
S':'
asbag67
(g88
g69
NtRp1096
(dp1097
g72
(dp1098
sg81
g1083
sg74
(lp1099
g67
(g68
g69
NtRp1100
(dp1101
g72
(dp1102
g80
I4
ssg81
g1096
sg74
(lp1103
S'keep-alive'
p1104
asbasbasbag67
(g83
g69
NtRp1105
(dp1106
g72
(dp1107
sg81
g857
sg74
(lp1108
g67
(g88
g69
NtRp1109
(dp1110
g72
(dp1111
g92
g93
ssg81
g1105
sg74
(lp1112
S'http_cookie'
p1113
asbag67
(g88
g69
NtRp1114
(dp1115
g72
(dp1116
g99
g100
ssg81
g1105
sg74
(lp1117
S':'
asbag67
(g88
g69
NtRp1118
(dp1119
g72
(dp1120
sg81
g1105
sg74
(lp1121
g67
(g68
g69
NtRp1122
(dp1123
g72
(dp1124
g80
I4
ssg81
g1118
sg74
(lp1125
S'session_id_welcome=127.0.0.1-34f5d876-bf24-46c6-bb48-7f2919bef1e7; session_id_admin=127.0.0.1-9fa83068-fcde-451a-8806-f90332c0862d; session_id_iiit_calendars=127.0.0.1-ef46ca7d-688b-4464-b69a-9ebd5cac3e72'
p1126
asbasbasbag67
(g83
g69
NtRp1127
(dp1128
g72
(dp1129
sg81
g857
sg74
(lp1130
g67
(g88
g69
NtRp1131
(dp1132
g72
(dp1133
g92
g93
ssg81
g1127
sg74
(lp1134
S'http_host'
p1135
asbag67
(g88
g69
NtRp1136
(dp1137
g72
(dp1138
g99
g100
ssg81
g1127
sg74
(lp1139
S':'
asbag67
(g88
g69
NtRp1140
(dp1141
g72
(dp1142
sg81
g1127
sg74
(lp1143
g67
(g68
g69
NtRp1144
(dp1145
g72
(dp1146
g80
I4
ssg81
g1140
sg74
(lp1147
S'127.0.0.1:8000'
p1148
asbasbasbag67
(g83
g69
NtRp1149
(dp1150
g72
(dp1151
sg81
g857
sg74
(lp1152
g67
(g88
g69
NtRp1153
(dp1154
g72
(dp1155
g92
g93
ssg81
g1149
sg74
(lp1156
S'http_referer'
p1157
asbag67
(g88
g69
NtRp1158
(dp1159
g72
(dp1160
g99
g100
ssg81
g1149
sg74
(lp1161
S':'
asbag67
(g88
g69
NtRp1162
(dp1163
g72
(dp1164
sg81
g1149
sg74
(lp1165
g67
(g68
g69
NtRp1166
(dp1167
g72
(dp1168
g80
I4
ssg81
g1162
sg74
(lp1169
S'http://127.0.0.1:8000/IIIT_calendars/default/user/login?_next=/IIIT_calendars/default/index'
p1170
asbasbasbag67
(g83
g69
NtRp1171
(dp1172
g72
(dp1173
sg81
g857
sg74
(lp1174
g67
(g88
g69
NtRp1175
(dp1176
g72
(dp1177
g92
g93
ssg81
g1171
sg74
(lp1178
S'http_user_agent'
p1179
asbag67
(g88
g69
NtRp1180
(dp1181
g72
(dp1182
g99
g100
ssg81
g1171
sg74
(lp1183
S':'
asbag67
(g88
g69
NtRp1184
(dp1185
g72
(dp1186
sg81
g1171
sg74
(lp1187
g67
(g68
g69
NtRp1188
(dp1189
g72
(dp1190
g80
I4
ssg81
g1184
sg74
(lp1191
S'Mozilla/5.0 (X11; Ubuntu; Linux i686; rv:20.0) Gecko/20100101 Firefox/20.0'
p1192
asbasbasbag67
(g83
g69
NtRp1193
(dp1194
g72
(dp1195
sg81
g857
sg74
(lp1196
g67
(g88
g69
NtRp1197
(dp1198
g72
(dp1199
g92
g93
ssg81
g1193
sg74
(lp1200
S'is_jython'
p1201
asbag67
(g88
g69
NtRp1202
(dp1203
g72
(dp1204
g99
g100
ssg81
g1193
sg74
(lp1205
S':'
asbag67
(g88
g69
NtRp1206
(dp1207
g72
(dp1208
sg81
g1193
sg74
(lp1209
g67
(g68
g69
NtRp1210
(dp1211
g72
(dp1212
g80
I4
ssg81
g1206
sg74
(lp1213
g110
asbasbasbag67
(g83
g69
NtRp1214
(dp1215
g72
(dp1216
sg81
g857
sg74
(lp1217
g67
(g88
g69
NtRp1218
(dp1219
g72
(dp1220
g92
g93
ssg81
g1214
sg74
(lp1221
S'is_pypy'
p1222
asbag67
(g88
g69
NtRp1223
(dp1224
g72
(dp1225
g99
g100
ssg81
g1214
sg74
(lp1226
S':'
asbag67
(g88
g69
NtRp1227
(dp1228
g72
(dp1229
sg81
g1214
sg74
(lp1230
g67
(g68
g69
NtRp1231
(dp1232
g72
(dp1233
g80
I4
ssg81
g1227
sg74
(lp1234
g110
asbasbasbag67
(g83
g69
NtRp1235
(dp1236
g72
(dp1237
sg81
g857
sg74
(lp1238
g67
(g88
g69
NtRp1239
(dp1240
g72
(dp1241
g92
g93
ssg81
g1235
sg74
(lp1242
S'local_hosts'
p1243
asbag67
(g88
g69
NtRp1244
(dp1245
g72
(dp1246
g99
g100
ssg81
g1235
sg74
(lp1247
S':'
asbag67
(g88
g69
NtRp1248
(dp1249
g72
(dp1250
sg81
g1235
sg74
(lp1251
g67
(g68
g69
NtRp1252
(dp1253
g72
(dp1254
g80
I4
ssg81
g1248
sg74
(lp1255
g67
(g76
g69
NtRp1256
(dp1257
g72
(dp1258
g80
I3
ssg81
Nsg74
(lp1259
g67
(g83
g69
NtRp1260
(dp1261
g72
(dp1262
sg81
g1256
sg74
(lp1263
g67
(g88
g69
NtRp1264
(dp1265
g72
(dp1266
sg81
g1260
sg74
(lp1267
g67
(g68
g69
NtRp1268
(dp1269
g72
(dp1270
g80
I3
ssg81
g1264
sg74
(lp1271
S'computer123'
p1272
asbasbasbag67
(g83
g69
NtRp1273
(dp1274
g72
(dp1275
sg81
g1256
sg74
(lp1276
g67
(g88
g69
NtRp1277
(dp1278
g72
(dp1279
sg81
g1273
sg74
(lp1280
g67
(g68
g69
NtRp1281
(dp1282
g72
(dp1283
g80
I3
ssg81
g1277
sg74
(lp1284
S'::1'
p1285
asbasbasbag67
(g83
g69
NtRp1286
(dp1287
g72
(dp1288
sg81
g1256
sg74
(lp1289
g67
(g88
g69
NtRp1290
(dp1291
g72
(dp1292
sg81
g1286
sg74
(lp1293
g67
(g68
g69
NtRp1294
(dp1295
g72
(dp1296
g80
I3
ssg81
g1290
sg74
(lp1297
S'127.0.1.1'
p1298
asbasbasbag67
(g83
g69
NtRp1299
(dp1300
g72
(dp1301
sg81
g1256
sg74
(lp1302
g67
(g88
g69
NtRp1303
(dp1304
g72
(dp1305
sg81
g1299
sg74
(lp1306
g67
(g68
g69
NtRp1307
(dp1308
g72
(dp1309
g80
I3
ssg81
g1303
sg74
(lp1310
S'::ffff:127.0.0.1'
p1311
asbasbasbag67
(g83
g69
NtRp1312
(dp1313
g72
(dp1314
sg81
g1256
sg74
(lp1315
g67
(g88
g69
NtRp1316
(dp1317
g72
(dp1318
sg81
g1312
sg74
(lp1319
g67
(g68
g69
NtRp1320
(dp1321
g72
(dp1322
g80
I3
ssg81
g1316
sg74
(lp1323
S'127.0.0.1'
p1324
asbasbasbasbasbasbasbag67
(g83
g69
NtRp1325
(dp1326
g72
(dp1327
sg81
g857
sg74
(lp1328
g67
(g88
g69
NtRp1329
(dp1330
g72
(dp1331
g92
g93
ssg81
g1325
sg74
(lp1332
S'path_info'
p1333
asbag67
(g88
g69
NtRp1334
(dp1335
g72
(dp1336
g99
g100
ssg81
g1325
sg74
(lp1337
S':'
asbag67
(g88
g69
NtRp1338
(dp1339
g72
(dp1340
sg81
g1325
sg74
(lp1341
g67
(g68
g69
NtRp1342
(dp1343
g72
(dp1344
g80
I4
ssg81
g1338
sg74
(lp1345
S'/IIIT_calendars/default/index'
p1346
asbasbasbag67
(g83
g69
NtRp1347
(dp1348
g72
(dp1349
sg81
g857
sg74
(lp1350
g67
(g88
g69
NtRp1351
(dp1352
g72
(dp1353
g92
g93
ssg81
g1347
sg74
(lp1354
S'query_string'
p1355
asbag67
(g88
g69
NtRp1356
(dp1357
g72
(dp1358
g99
g100
ssg81
g1347
sg74
(lp1359
S':'
asbag67
(g88
g69
NtRp1360
(dp1361
g72
(dp1362
sg81
g1347
sg74
(lp1363
g67
(g68
g69
NtRp1364
(dp1365
g72
(dp1366
g80
I4
ssg81
g1360
sg74
(lp1367
S''
asbasbasbag67
(g83
g69
NtRp1368
(dp1369
g72
(dp1370
sg81
g857
sg74
(lp1371
g67
(g88
g69
NtRp1372
(dp1373
g72
(dp1374
g92
g93
ssg81
g1368
sg74
(lp1375
S'remote_addr'
p1376
asbag67
(g88
g69
NtRp1377
(dp1378
g72
(dp1379
g99
g100
ssg81
g1368
sg74
(lp1380
S':'
asbag67
(g88
g69
NtRp1381
(dp1382
g72
(dp1383
sg81
g1368
sg74
(lp1384
g67
(g68
g69
NtRp1385
(dp1386
g72
(dp1387
g80
I4
ssg81
g1381
sg74
(lp1388
g222
asbasbasbag67
(g83
g69
NtRp1389
(dp1390
g72
(dp1391
sg81
g857
sg74
(lp1392
g67
(g88
g69
NtRp1393
(dp1394
g72
(dp1395
g92
g93
ssg81
g1389
sg74
(lp1396
S'remote_port'
p1397
asbag67
(g88
g69
NtRp1398
(dp1399
g72
(dp1400
g99
g100
ssg81
g1389
sg74
(lp1401
S':'
asbag67
(g88
g69
NtRp1402
(dp1403
g72
(dp1404
sg81
g1389
sg74
(lp1405
g67
(g68
g69
NtRp1406
(dp1407
g72
(dp1408
g80
I4
ssg81
g1402
sg74
(lp1409
S'47877'
p1410
asbasbasbag67
(g83
g69
NtRp1411
(dp1412
g72
(dp1413
sg81
g857
sg74
(lp1414
g67
(g88
g69
NtRp1415
(dp1416
g72
(dp1417
g92
g93
ssg81
g1411
sg74
(lp1418
S'request_method'
p1419
asbag67
(g88
g69
NtRp1420
(dp1421
g72
(dp1422
g99
g100
ssg81
g1411
sg74
(lp1423
S':'
asbag67
(g88
g69
NtRp1424
(dp1425
g72
(dp1426
sg81
g1411
sg74
(lp1427
g67
(g68
g69
NtRp1428
(dp1429
g72
(dp1430
g80
I4
ssg81
g1424
sg74
(lp1431
S'GET'
p1432
asbasbasbag67
(g83
g69
NtRp1433
(dp1434
g72
(dp1435
sg81
g857
sg74
(lp1436
g67
(g88
g69
NtRp1437
(dp1438
g72
(dp1439
g92
g93
ssg81
g1433
sg74
(lp1440
S'request_uri'
p1441
asbag67
(g88
g69
NtRp1442
(dp1443
g72
(dp1444
g99
g100
ssg81
g1433
sg74
(lp1445
S':'
asbag67
(g88
g69
NtRp1446
(dp1447
g72
(dp1448
sg81
g1433
sg74
(lp1449
g67
(g68
g69
NtRp1450
(dp1451
g72
(dp1452
g80
I4
ssg81
g1446
sg74
(lp1453
g1346
asbasbasbag67
(g83
g69
NtRp1454
(dp1455
g72
(dp1456
sg81
g857
sg74
(lp1457
g67
(g88
g69
NtRp1458
(dp1459
g72
(dp1460
g92
g93
ssg81
g1454
sg74
(lp1461
S'script_name'
p1462
asbag67
(g88
g69
NtRp1463
(dp1464
g72
(dp1465
g99
g100
ssg81
g1454
sg74
(lp1466
S':'
asbag67
(g88
g69
NtRp1467
(dp1468
g72
(dp1469
sg81
g1454
sg74
(lp1470
g67
(g68
g69
NtRp1471
(dp1472
g72
(dp1473
g80
I4
ssg81
g1467
sg74
(lp1474
S''
asbasbasbag67
(g83
g69
NtRp1475
(dp1476
g72
(dp1477
sg81
g857
sg74
(lp1478
g67
(g88
g69
NtRp1479
(dp1480
g72
(dp1481
g92
g93
ssg81
g1475
sg74
(lp1482
S'server_name'
p1483
asbag67
(g88
g69
NtRp1484
(dp1485
g72
(dp1486
g99
g100
ssg81
g1475
sg74
(lp1487
S':'
asbag67
(g88
g69
NtRp1488
(dp1489
g72
(dp1490
sg81
g1475
sg74
(lp1491
g67
(g68
g69
NtRp1492
(dp1493
g72
(dp1494
g80
I4
ssg81
g1488
sg74
(lp1495
S'computer123'
p1496
asbasbasbag67
(g83
g69
NtRp1497
(dp1498
g72
(dp1499
sg81
g857
sg74
(lp1500
g67
(g88
g69
NtRp1501
(dp1502
g72
(dp1503
g92
g93
ssg81
g1497
sg74
(lp1504
S'server_port'
p1505
asbag67
(g88
g69
NtRp1506
(dp1507
g72
(dp1508
g99
g100
ssg81
g1497
sg74
(lp1509
S':'
asbag67
(g88
g69
NtRp1510
(dp1511
g72
(dp1512
sg81
g1497
sg74
(lp1513
g67
(g68
g69
NtRp1514
(dp1515
g72
(dp1516
g80
I4
ssg81
g1510
sg74
(lp1517
S'8000'
p1518
asbasbasbag67
(g83
g69
NtRp1519
(dp1520
g72
(dp1521
sg81
g857
sg74
(lp1522
g67
(g88
g69
NtRp1523
(dp1524
g72
(dp1525
g92
g93
ssg81
g1519
sg74
(lp1526
S'server_protocol'
p1527
asbag67
(g88
g69
NtRp1528
(dp1529
g72
(dp1530
g99
g100
ssg81
g1519
sg74
(lp1531
S':'
asbag67
(g88
g69
NtRp1532
(dp1533
g72
(dp1534
sg81
g1519
sg74
(lp1535
g67
(g68
g69
NtRp1536
(dp1537
g72
(dp1538
g80
I4
ssg81
g1532
sg74
(lp1539
S'HTTP/1.1'
p1540
asbasbasbag67
(g83
g69
NtRp1541
(dp1542
g72
(dp1543
sg81
g857
sg74
(lp1544
g67
(g88
g69
NtRp1545
(dp1546
g72
(dp1547
g92
g93
ssg81
g1541
sg74
(lp1548
S'server_software'
p1549
asbag67
(g88
g69
NtRp1550
(dp1551
g72
(dp1552
g99
g100
ssg81
g1541
sg74
(lp1553
S':'
asbag67
(g88
g69
NtRp1554
(dp1555
g72
(dp1556
sg81
g1541
sg74
(lp1557
g67
(g68
g69
NtRp1558
(dp1559
g72
(dp1560
g80
I4
ssg81
g1554
sg74
(lp1561
S'Rocket 1.2.6'
p1562
asbasbasbag67
(g83
g69
NtRp1563
(dp1564
g72
(dp1565
sg81
g857
sg74
(lp1566
g67
(g88
g69
NtRp1567
(dp1568
g72
(dp1569
g92
g93
ssg81
g1563
sg74
(lp1570
S'web2py_path'
p1571
asbag67
(g88
g69
NtRp1572
(dp1573
g72
(dp1574
g99
g100
ssg81
g1563
sg74
(lp1575
S':'
asbag67
(g88
g69
NtRp1576
(dp1577
g72
(dp1578
sg81
g1563
sg74
(lp1579
g67
(g68
g69
NtRp1580
(dp1581
g72
(dp1582
g80
I4
ssg81
g1576
sg74
(lp1583
g904
asbasbasbag67
(g83
g69
NtRp1584
(dp1585
g72
(dp1586
sg81
g857
sg74
(lp1587
g67
(g88
g69
NtRp1588
(dp1589
g72
(dp1590
g92
g93
ssg81
g1584
sg74
(lp1591
S'web2py_version'
p1592
asbag67
(g88
g69
NtRp1593
(dp1594
g72
(dp1595
g99
g100
ssg81
g1584
sg74
(lp1596
S':'
asbag67
(g88
g69
NtRp1597
(dp1598
g72
(dp1599
sg81
g1584
sg74
(lp1600
g67
(g68
g69
NtRp1601
(dp1602
g72
(dp1603
g80
I4
ssg81
g1597
sg74
(lp1604
g67
(g76
g69
NtRp1605
(dp1606
g72
(dp1607
g80
I3
ssg81
Nsg74
(lp1608
g67
(g83
g69
NtRp1609
(dp1610
g72
(dp1611
sg81
g1605
sg74
(lp1612
g67
(g88
g69
NtRp1613
(dp1614
g72
(dp1615
sg81
g1609
sg74
(lp1616
g67
(g68
g69
NtRp1617
(dp1618
g72
(dp1619
g80
I3
ssg81
g1613
sg74
(lp1620
S'2'
asbasbasbag67
(g83
g69
NtRp1621
(dp1622
g72
(dp1623
sg81
g1605
sg74
(lp1624
g67
(g88
g69
NtRp1625
(dp1626
g72
(dp1627
sg81
g1621
sg74
(lp1628
g67
(g68
g69
NtRp1629
(dp1630
g72
(dp1631
g80
I3
ssg81
g1625
sg74
(lp1632
S'3'
asbasbasbag67
(g83
g69
NtRp1633
(dp1634
g72
(dp1635
sg81
g1605
sg74
(lp1636
g67
(g88
g69
NtRp1637
(dp1638
g72
(dp1639
sg81
g1633
sg74
(lp1640
g67
(g68
g69
NtRp1641
(dp1642
g72
(dp1643
g80
I3
ssg81
g1637
sg74
(lp1644
S'2'
asbasbasbag67
(g83
g69
NtRp1645
(dp1646
g72
(dp1647
sg81
g1605
sg74
(lp1648
g67
(g88
g69
NtRp1649
(dp1650
g72
(dp1651
sg81
g1645
sg74
(lp1652
g67
(g68
g69
NtRp1653
(dp1654
g72
(dp1655
g80
I3
ssg81
g1649
sg74
(lp1656
S'datetime.datetime(2012, 12, 17, 15, 3, 30)'
p1657
asbasbasbag67
(g83
g69
NtRp1658
(dp1659
g72
(dp1660
sg81
g1605
sg74
(lp1661
g67
(g88
g69
NtRp1662
(dp1663
g72
(dp1664
sg81
g1658
sg74
(lp1665
g67
(g68
g69
NtRp1666
(dp1667
g72
(dp1668
g80
I3
ssg81
g1662
sg74
(lp1669
S'stable'
p1670
asbasbasbasbasbasbasbag67
(g83
g69
NtRp1671
(dp1672
g72
(dp1673
sg81
g857
sg74
(lp1674
g67
(g88
g69
NtRp1675
(dp1676
g72
(dp1677
g92
g93
ssg81
g1671
sg74
(lp1678
S'wsgi_errors'
p1679
asbag67
(g88
g69
NtRp1680
(dp1681
g72
(dp1682
g99
g100
ssg81
g1671
sg74
(lp1683
S':'
asbag67
(g88
g69
NtRp1684
(dp1685
g72
(dp1686
sg81
g1671
sg74
(lp1687
g67
(g68
g69
NtRp1688
(dp1689
g72
(dp1690
g80
I4
ssg81
g1684
sg74
(lp1691
S"<open file '<stderr>', mode 'w' at 0xb730d0d0>"
p1692
asbasbasbag67
(g83
g69
NtRp1693
(dp1694
g72
(dp1695
sg81
g857
sg74
(lp1696
g67
(g88
g69
NtRp1697
(dp1698
g72
(dp1699
g92
g93
ssg81
g1693
sg74
(lp1700
S'wsgi_file_wrapper'
p1701
asbag67
(g88
g69
NtRp1702
(dp1703
g72
(dp1704
g99
g100
ssg81
g1693
sg74
(lp1705
S':'
asbag67
(g88
g69
NtRp1706
(dp1707
g72
(dp1708
sg81
g1693
sg74
(lp1709
g67
(g68
g69
NtRp1710
(dp1711
g72
(dp1712
g80
I4
ssg81
g1706
sg74
(lp1713
S'<class wsgiref.util.FileWrapper at 0xa00ff8c>'
p1714
asbasbasbag67
(g83
g69
NtRp1715
(dp1716
g72
(dp1717
sg81
g857
sg74
(lp1718
g67
(g88
g69
NtRp1719
(dp1720
g72
(dp1721
g92
g93
ssg81
g1715
sg74
(lp1722
S'wsgi_input'
p1723
asbag67
(g88
g69
NtRp1724
(dp1725
g72
(dp1726
g99
g100
ssg81
g1715
sg74
(lp1727
S':'
asbag67
(g88
g69
NtRp1728
(dp1729
g72
(dp1730
sg81
g1715
sg74
(lp1731
g67
(g68
g69
NtRp1732
(dp1733
g72
(dp1734
g80
I4
ssg81
g1728
sg74
(lp1735
S'<socket._fileobject object at 0xacc45c2c>'
p1736
asbasbasbag67
(g83
g69
NtRp1737
(dp1738
g72
(dp1739
sg81
g857
sg74
(lp1740
g67
(g88
g69
NtRp1741
(dp1742
g72
(dp1743
g92
g93
ssg81
g1737
sg74
(lp1744
S'wsgi_multiprocess'
p1745
asbag67
(g88
g69
NtRp1746
(dp1747
g72
(dp1748
g99
g100
ssg81
g1737
sg74
(lp1749
S':'
asbag67
(g88
g69
NtRp1750
(dp1751
g72
(dp1752
sg81
g1737
sg74
(lp1753
g67
(g68
g69
NtRp1754
(dp1755
g72
(dp1756
g80
I4
ssg81
g1750
sg74
(lp1757
g110
asbasbasbag67
(g83
g69
NtRp1758
(dp1759
g72
(dp1760
sg81
g857
sg74
(lp1761
g67
(g88
g69
NtRp1762
(dp1763
g72
(dp1764
g92
g93
ssg81
g1758
sg74
(lp1765
S'wsgi_multithread'
p1766
asbag67
(g88
g69
NtRp1767
(dp1768
g72
(dp1769
g99
g100
ssg81
g1758
sg74
(lp1770
S':'
asbag67
(g88
g69
NtRp1771
(dp1772
g72
(dp1773
sg81
g1758
sg74
(lp1774
g67
(g68
g69
NtRp1775
(dp1776
g72
(dp1777
g80
I4
ssg81
g1771
sg74
(lp1778
S'True'
p1779
asbasbasbag67
(g83
g69
NtRp1780
(dp1781
g72
(dp1782
sg81
g857
sg74
(lp1783
g67
(g88
g69
NtRp1784
(dp1785
g72
(dp1786
g92
g93
ssg81
g1780
sg74
(lp1787
S'wsgi_run_once'
p1788
asbag67
(g88
g69
NtRp1789
(dp1790
g72
(dp1791
g99
g100
ssg81
g1780
sg74
(lp1792
S':'
asbag67
(g88
g69
NtRp1793
(dp1794
g72
(dp1795
sg81
g1780
sg74
(lp1796
g67
(g68
g69
NtRp1797
(dp1798
g72
(dp1799
g80
I4
ssg81
g1793
sg74
(lp1800
g110
asbasbasbag67
(g83
g69
NtRp1801
(dp1802
g72
(dp1803
sg81
g857
sg74
(lp1804
g67
(g88
g69
NtRp1805
(dp1806
g72
(dp1807
g92
g93
ssg81
g1801
sg74
(lp1808
S'wsgi_url_scheme'
p1809
asbag67
(g88
g69
NtRp1810
(dp1811
g72
(dp1812
g99
g100
ssg81
g1801
sg74
(lp1813
S':'
asbag67
(g88
g69
NtRp1814
(dp1815
g72
(dp1816
sg81
g1801
sg74
(lp1817
g67
(g68
g69
NtRp1818
(dp1819
g72
(dp1820
g80
I4
ssg81
g1814
sg74
(lp1821
S'http'
p1822
asbasbasbag67
(g83
g69
NtRp1823
(dp1824
g72
(dp1825
sg81
g857
sg74
(lp1826
g67
(g88
g69
NtRp1827
(dp1828
g72
(dp1829
g92
g93
ssg81
g1823
sg74
(lp1830
S'wsgi_version'
p1831
asbag67
(g88
g69
NtRp1832
(dp1833
g72
(dp1834
g99
g100
ssg81
g1823
sg74
(lp1835
S':'
asbag67
(g88
g69
NtRp1836
(dp1837
g72
(dp1838
sg81
g1823
sg74
(lp1839
g67
(g68
g69
NtRp1840
(dp1841
g72
(dp1842
g80
I4
ssg81
g1836
sg74
(lp1843
g67
(g76
g69
NtRp1844
(dp1845
g72
(dp1846
g80
I3
ssg81
Nsg74
(lp1847
g67
(g83
g69
NtRp1848
(dp1849
g72
(dp1850
sg81
g1844
sg74
(lp1851
g67
(g88
g69
NtRp1852
(dp1853
g72
(dp1854
sg81
g1848
sg74
(lp1855
g67
(g68
g69
NtRp1856
(dp1857
g72
(dp1858
g80
I3
ssg81
g1852
sg74
(lp1859
S'1'
asbasbasbag67
(g83
g69
NtRp1860
(dp1861
g72
(dp1862
sg81
g1844
sg74
(lp1863
g67
(g88
g69
NtRp1864
(dp1865
g72
(dp1866
sg81
g1860
sg74
(lp1867
g67
(g68
g69
NtRp1868
(dp1869
g72
(dp1870
g80
I3
ssg81
g1864
sg74
(lp1871
S'0'
asbasbasbasbasbasbasbasbasbasbasbag67
(g83
g69
NtRp1872
(dp1873
g72
(dp1874
sg81
g77
sg74
(lp1875
g67
(g88
g69
NtRp1876
(dp1877
g72
(dp1878
g92
g93
ssg81
g1872
sg74
(lp1879
S'extension'
p1880
asbag67
(g88
g69
NtRp1881
(dp1882
g72
(dp1883
g99
g100
ssg81
g1872
sg74
(lp1884
S':'
asbag67
(g88
g69
NtRp1885
(dp1886
g72
(dp1887
sg81
g1872
sg74
(lp1888
g67
(g68
g69
NtRp1889
(dp1890
g72
(dp1891
g80
I5
ssg81
g1885
sg74
(lp1892
S'html'
p1893
asbasbasbag67
(g83
g69
NtRp1894
(dp1895
g72
(dp1896
sg81
g77
sg74
(lp1897
g67
(g88
g69
NtRp1898
(dp1899
g72
(dp1900
g92
g93
ssg81
g1894
sg74
(lp1901
S'folder'
p1902
asbag67
(g88
g69
NtRp1903
(dp1904
g72
(dp1905
g99
g100
ssg81
g1894
sg74
(lp1906
S':'
asbag67
(g88
g69
NtRp1907
(dp1908
g72
(dp1909
sg81
g1894
sg74
(lp1910
g67
(g68
g69
NtRp1911
(dp1912
g72
(dp1913
g80
I5
ssg81
g1907
sg74
(lp1914
S'/home/user/Documents/2nd sem/ITWS-2/web2py/applications/IIIT_calendars/'
p1915
asbasbasbag67
(g83
g69
NtRp1916
(dp1917
g72
(dp1918
sg81
g77
sg74
(lp1919
g67
(g88
g69
NtRp1920
(dp1921
g72
(dp1922
g92
g93
ssg81
g1916
sg74
(lp1923
S'function'
p1924
asbag67
(g88
g69
NtRp1925
(dp1926
g72
(dp1927
g99
g100
ssg81
g1916
sg74
(lp1928
S':'
asbag67
(g88
g69
NtRp1929
(dp1930
g72
(dp1931
sg81
g1916
sg74
(lp1932
g67
(g68
g69
NtRp1933
(dp1934
g72
(dp1935
g80
I5
ssg81
g1929
sg74
(lp1936
S'index'
p1937
asbasbasbag67
(g83
g69
NtRp1938
(dp1939
g72
(dp1940
sg81
g77
sg74
(lp1941
g67
(g88
g69
NtRp1942
(dp1943
g72
(dp1944
g92
g93
ssg81
g1938
sg74
(lp1945
S'get_vars'
p1946
asbag67
(g88
g69
NtRp1947
(dp1948
g72
(dp1949
g99
g100
ssg81
g1938
sg74
(lp1950
S':'
asbag67
(g88
g69
NtRp1951
(dp1952
g72
(dp1953
sg81
g1938
sg74
(lp1954
g67
(g68
g69
NtRp1955
(dp1956
g72
(dp1957
g80
I5
ssg81
g1951
sg74
(lp1958
g67
(g76
g69
NtRp1959
(dp1960
g72
(dp1961
g80
I4
ssg81
Nsg74
(lp1962
sbasbasbasbag67
(g83
g69
NtRp1963
(dp1964
g72
(dp1965
sg81
g77
sg74
(lp1966
g67
(g88
g69
NtRp1967
(dp1968
g72
(dp1969
g92
g93
ssg81
g1963
sg74
(lp1970
S'global_settings'
p1971
asbag67
(g88
g69
NtRp1972
(dp1973
g72
(dp1974
g99
g100
ssg81
g1963
sg74
(lp1975
S':'
asbag67
(g88
g69
NtRp1976
(dp1977
g72
(dp1978
sg81
g1963
sg74
(lp1979
g67
(g68
g69
NtRp1980
(dp1981
g72
(dp1982
g80
I5
ssg81
g1976
sg74
(lp1983
g67
(g76
g69
NtRp1984
(dp1985
g72
(dp1986
g80
I4
ssg81
Nsg74
(lp1987
g67
(g83
g69
NtRp1988
(dp1989
g72
(dp1990
sg81
g1984
sg74
(lp1991
g67
(g88
g69
NtRp1992
(dp1993
g72
(dp1994
g92
g93
ssg81
g1988
sg74
(lp1995
g869
asbag67
(g88
g69
NtRp1996
(dp1997
g72
(dp1998
g99
g100
ssg81
g1988
sg74
(lp1999
S':'
asbag67
(g88
g69
NtRp2000
(dp2001
g72
(dp2002
sg81
g1988
sg74
(lp2003
g67
(g68
g69
NtRp2004
(dp2005
g72
(dp2006
g80
I4
ssg81
g2000
sg74
(lp2007
S"set(['/home/user/Documents/2nd sem/ITWS-2/web2py/applications/IIIT_calendars/', '/home/user/Documents/2nd sem/ITWS-2/web2py/applications/welcome/', '/home/user/Documents/2nd sem/ITWS-2/web2py/applications/admin/'])"
p2008
asbasbasbag67
(g83
g69
NtRp2009
(dp2010
g72
(dp2011
sg81
g1984
sg74
(lp2012
g67
(g88
g69
NtRp2013
(dp2014
g72
(dp2015
g92
g93
ssg81
g2009
sg74
(lp2016
g891
asbag67
(g88
g69
NtRp2017
(dp2018
g72
(dp2019
g99
g100
ssg81
g2009
sg74
(lp2020
S':'
asbag67
(g88
g69
NtRp2021
(dp2022
g72
(dp2023
sg81
g2009
sg74
(lp2024
g67
(g68
g69
NtRp2025
(dp2026
g72
(dp2027
g80
I4
ssg81
g2021
sg74
(lp2028
g904
asbasbasbag67
(g83
g69
NtRp2029
(dp2030
g72
(dp2031
sg81
g1984
sg74
(lp2032
g67
(g88
g69
NtRp2033
(dp2034
g72
(dp2035
g92
g93
ssg81
g2029
sg74
(lp2036
g913
asbag67
(g88
g69
NtRp2037
(dp2038
g72
(dp2039
g99
g100
ssg81
g2029
sg74
(lp2040
S':'
asbag67
(g88
g69
NtRp2041
(dp2042
g72
(dp2043
sg81
g2029
sg74
(lp2044
g67
(g68
g69
NtRp2045
(dp2046
g72
(dp2047
g80
I4
ssg81
g2041
sg74
(lp2048
g67
(g76
g69
NtRp2049
(dp2050
g72
(dp2051
g80
I3
ssg81
Nsg74
(lp2052
sbasbasbasbag67
(g83
g69
NtRp2053
(dp2054
g72
(dp2055
sg81
g1984
sg74
(lp2056
g67
(g88
g69
NtRp2057
(dp2058
g72
(dp2059
g92
g93
ssg81
g2053
sg74
(lp2060
g938
asbag67
(g88
g69
NtRp2061
(dp2062
g72
(dp2063
g99
g100
ssg81
g2053
sg74
(lp2064
S':'
asbag67
(g88
g69
NtRp2065
(dp2066
g72
(dp2067
sg81
g2053
sg74
(lp2068
g67
(g68
g69
NtRp2069
(dp2070
g72
(dp2071
g80
I4
ssg81
g2065
sg74
(lp2072
S"<Values at 0xa056e6c: {'verbose': False, 'ip': '127.0.0.1', 'with_scheduler': False, 'ips': [], 'shutdown_timeout': 5, 'taskbar': False, 'port': 8000, 'maxthreads': None, 'softcron': False, 'server_name': 'computer123', 'bpython': False, 'nogui': False, 'pid_filename': 'httpserver.pid', 'extcron': False, 'runcron': False, 'run_system_tests': False, 'test': None, 'folder': '/home/user/Documents/2nd sem/ITWS-2/web2py', 'config': '', 'import_models': False, 'winservice': '', 'shell': None, 'run': '', 'log_filename': 'httpserver.log', 'debuglevel': 30, 'args': [''], 'socket_timeout': 5, 'ssl_ca_certificate': None, 'scheduler': None, 'profiler_filename': None, 'ssl_private_key': '', 'scheduler_groups': None, 'password': '<ask>', 'request_queue_size': 5, 'ssl_certificate': '', 'cronjob': False, 'numthreads': None, 'quiet': False, 'interfaces': None, 'minthreads': None, 'timeout': 10, 'plain': False, 'nobanner': False}>"
p2073
asbasbasbag67
(g83
g69
NtRp2074
(dp2075
g72
(dp2076
sg81
g1984
sg74
(lp2077
g67
(g88
g69
NtRp2078
(dp2079
g72
(dp2080
g92
g93
ssg81
g2074
sg74
(lp2081
g960
asbag67
(g88
g69
NtRp2082
(dp2083
g72
(dp2084
g99
g100
ssg81
g2074
sg74
(lp2085
S':'
asbag67
(g88
g69
NtRp2086
(dp2087
g72
(dp2088
sg81
g2074
sg74
(lp2089
g67
(g68
g69
NtRp2090
(dp2091
g72
(dp2092
g80
I4
ssg81
g2086
sg74
(lp2093
S'set([])'
p2094
asbasbasbag67
(g83
g69
NtRp2095
(dp2096
g72
(dp2097
sg81
g1984
sg74
(lp2098
g67
(g88
g69
NtRp2099
(dp2100
g72
(dp2101
g92
g93
ssg81
g2095
sg74
(lp2102
g982
asbag67
(g88
g69
NtRp2103
(dp2104
g72
(dp2105
g99
g100
ssg81
g2095
sg74
(lp2106
S':'
asbag67
(g88
g69
NtRp2107
(dp2108
g72
(dp2109
sg81
g2095
sg74
(lp2110
g67
(g68
g69
NtRp2111
(dp2112
g72
(dp2113
g80
I4
ssg81
g2107
sg74
(lp2114
g110
asbasbasbag67
(g83
g69
NtRp2115
(dp2116
g72
(dp2117
sg81
g1984
sg74
(lp2118
g67
(g88
g69
NtRp2119
(dp2120
g72
(dp2121
g92
g93
ssg81
g2115
sg74
(lp2122
g1003
asbag67
(g88
g69
NtRp2123
(dp2124
g72
(dp2125
g99
g100
ssg81
g2115
sg74
(lp2126
S':'
asbag67
(g88
g69
NtRp2127
(dp2128
g72
(dp2129
sg81
g2115
sg74
(lp2130
g67
(g68
g69
NtRp2131
(dp2132
g72
(dp2133
g80
I4
ssg81
g2127
sg74
(lp2134
g1016
asbasbasbag67
(g83
g69
NtRp2135
(dp2136
g72
(dp2137
sg81
g1984
sg74
(lp2138
g67
(g88
g69
NtRp2139
(dp2140
g72
(dp2141
g92
g93
ssg81
g2135
sg74
(lp2142
g1201
asbag67
(g88
g69
NtRp2143
(dp2144
g72
(dp2145
g99
g100
ssg81
g2135
sg74
(lp2146
S':'
asbag67
(g88
g69
NtRp2147
(dp2148
g72
(dp2149
sg81
g2135
sg74
(lp2150
g67
(g68
g69
NtRp2151
(dp2152
g72
(dp2153
g80
I4
ssg81
g2147
sg74
(lp2154
g110
asbasbasbag67
(g83
g69
NtRp2155
(dp2156
g72
(dp2157
sg81
g1984
sg74
(lp2158
g67
(g88
g69
NtRp2159
(dp2160
g72
(dp2161
g92
g93
ssg81
g2155
sg74
(lp2162
g1222
asbag67
(g88
g69
NtRp2163
(dp2164
g72
(dp2165
g99
g100
ssg81
g2155
sg74
(lp2166
S':'
asbag67
(g88
g69
NtRp2167
(dp2168
g72
(dp2169
sg81
g2155
sg74
(lp2170
g67
(g68
g69
NtRp2171
(dp2172
g72
(dp2173
g80
I4
ssg81
g2167
sg74
(lp2174
g110
asbasbasbag67
(g83
g69
NtRp2175
(dp2176
g72
(dp2177
sg81
g1984
sg74
(lp2178
g67
(g88
g69
NtRp2179
(dp2180
g72
(dp2181
g92
g93
ssg81
g2175
sg74
(lp2182
g1243
asbag67
(g88
g69
NtRp2183
(dp2184
g72
(dp2185
g99
g100
ssg81
g2175
sg74
(lp2186
S':'
asbag67
(g88
g69
NtRp2187
(dp2188
g72
(dp2189
sg81
g2175
sg74
(lp2190
g67
(g68
g69
NtRp2191
(dp2192
g72
(dp2193
g80
I4
ssg81
g2187
sg74
(lp2194
g67
(g76
g69
NtRp2195
(dp2196
g72
(dp2197
g80
I3
ssg81
Nsg74
(lp2198
g67
(g83
g69
NtRp2199
(dp2200
g72
(dp2201
sg81
g2195
sg74
(lp2202
g67
(g88
g69
NtRp2203
(dp2204
g72
(dp2205
sg81
g2199
sg74
(lp2206
g67
(g68
g69
NtRp2207
(dp2208
g72
(dp2209
g80
I3
ssg81
g2203
sg74
(lp2210
g1272
asbasbasbag67
(g83
g69
NtRp2211
(dp2212
g72
(dp2213
sg81
g2195
sg74
(lp2214
g67
(g88
g69
NtRp2215
(dp2216
g72
(dp2217
sg81
g2211
sg74
(lp2218
g67
(g68
g69
NtRp2219
(dp2220
g72
(dp2221
g80
I3
ssg81
g2215
sg74
(lp2222
g1285
asbasbasbag67
(g83
g69
NtRp2223
(dp2224
g72
(dp2225
sg81
g2195
sg74
(lp2226
g67
(g88
g69
NtRp2227
(dp2228
g72
(dp2229
sg81
g2223
sg74
(lp2230
g67
(g68
g69
NtRp2231
(dp2232
g72
(dp2233
g80
I3
ssg81
g2227
sg74
(lp2234
g1298
asbasbasbag67
(g83
g69
NtRp2235
(dp2236
g72
(dp2237
sg81
g2195
sg74
(lp2238
g67
(g88
g69
NtRp2239
(dp2240
g72
(dp2241
sg81
g2235
sg74
(lp2242
g67
(g68
g69
NtRp2243
(dp2244
g72
(dp2245
g80
I3
ssg81
g2239
sg74
(lp2246
g1311
asbasbasbag67
(g83
g69
NtRp2247
(dp2248
g72
(dp2249
sg81
g2195
sg74
(lp2250
g67
(g88
g69
NtRp2251
(dp2252
g72
(dp2253
sg81
g2247
sg74
(lp2254
g67
(g68
g69
NtRp2255
(dp2256
g72
(dp2257
g80
I3
ssg81
g2251
sg74
(lp2258
g1324
asbasbasbasbasbasbasbag67
(g83
g69
NtRp2259
(dp2260
g72
(dp2261
sg81
g1984
sg74
(lp2262
g67
(g88
g69
NtRp2263
(dp2264
g72
(dp2265
g92
g93
ssg81
g2259
sg74
(lp2266
g1592
asbag67
(g88
g69
NtRp2267
(dp2268
g72
(dp2269
g99
g100
ssg81
g2259
sg74
(lp2270
S':'
asbag67
(g88
g69
NtRp2271
(dp2272
g72
(dp2273
sg81
g2259
sg74
(lp2274
g67
(g68
g69
NtRp2275
(dp2276
g72
(dp2277
g80
I4
ssg81
g2271
sg74
(lp2278
g67
(g76
g69
NtRp2279
(dp2280
g72
(dp2281
g80
I3
ssg81
Nsg74
(lp2282
g67
(g83
g69
NtRp2283
(dp2284
g72
(dp2285
sg81
g2279
sg74
(lp2286
g67
(g88
g69
NtRp2287
(dp2288
g72
(dp2289
sg81
g2283
sg74
(lp2290
g67
(g68
g69
NtRp2291
(dp2292
g72
(dp2293
g80
I3
ssg81
g2287
sg74
(lp2294
S'2'
asbasbasbag67
(g83
g69
NtRp2295
(dp2296
g72
(dp2297
sg81
g2279
sg74
(lp2298
g67
(g88
g69
NtRp2299
(dp2300
g72
(dp2301
sg81
g2295
sg74
(lp2302
g67
(g68
g69
NtRp2303
(dp2304
g72
(dp2305
g80
I3
ssg81
g2299
sg74
(lp2306
S'3'
asbasbasbag67
(g83
g69
NtRp2307
(dp2308
g72
(dp2309
sg81
g2279
sg74
(lp2310
g67
(g88
g69
NtRp2311
(dp2312
g72
(dp2313
sg81
g2307
sg74
(lp2314
g67
(g68
g69
NtRp2315
(dp2316
g72
(dp2317
g80
I3
ssg81
g2311
sg74
(lp2318
S'2'
asbasbasbag67
(g83
g69
NtRp2319
(dp2320
g72
(dp2321
sg81
g2279
sg74
(lp2322
g67
(g88
g69
NtRp2323
(dp2324
g72
(dp2325
sg81
g2319
sg74
(lp2326
g67
(g68
g69
NtRp2327
(dp2328
g72
(dp2329
g80
I3
ssg81
g2323
sg74
(lp2330
S'datetime.datetime(2012, 12, 17, 15, 3, 30)'
p2331
asbasbasbag67
(g83
g69
NtRp2332
(dp2333
g72
(dp2334
sg81
g2279
sg74
(lp2335
g67
(g88
g69
NtRp2336
(dp2337
g72
(dp2338
sg81
g2332
sg74
(lp2339
g67
(g68
g69
NtRp2340
(dp2341
g72
(dp2342
g80
I3
ssg81
g2336
sg74
(lp2343
g1670
asbasbasbasbasbasbasbasbasbasbasbag67
(g83
g69
NtRp2344
(dp2345
g72
(dp2346
sg81
g77
sg74
(lp2347
g67
(g88
g69
NtRp2348
(dp2349
g72
(dp2350
g92
g93
ssg81
g2344
sg74
(lp2351
S'is_https'
p2352
asbag67
(g88
g69
NtRp2353
(dp2354
g72
(dp2355
g99
g100
ssg81
g2344
sg74
(lp2356
S':'
asbag67
(g88
g69
NtRp2357
(dp2358
g72
(dp2359
sg81
g2344
sg74
(lp2360
g67
(g68
g69
NtRp2361
(dp2362
g72
(dp2363
g80
I5
ssg81
g2357
sg74
(lp2364
g110
asbasbasbag67
(g83
g69
NtRp2365
(dp2366
g72
(dp2367
sg81
g77
sg74
(lp2368
g67
(g88
g69
NtRp2369
(dp2370
g72
(dp2371
g92
g93
ssg81
g2365
sg74
(lp2372
S'is_local'
p2373
asbag67
(g88
g69
NtRp2374
(dp2375
g72
(dp2376
g99
g100
ssg81
g2365
sg74
(lp2377
S':'
asbag67
(g88
g69
NtRp2378
(dp2379
g72
(dp2380
sg81
g2365
sg74
(lp2381
g67
(g68
g69
NtRp2382
(dp2383
g72
(dp2384
g80
I5
ssg81
g2378
sg74
(lp2385
g1779
asbasbasbag67
(g83
g69
NtRp2386
(dp2387
g72
(dp2388
sg81
g77
sg74
(lp2389
g67
(g88
g69
NtRp2390
(dp2391
g72
(dp2392
g92
g93
ssg81
g2386
sg74
(lp2393
S'is_restful'
p2394
asbag67
(g88
g69
NtRp2395
(dp2396
g72
(dp2397
g99
g100
ssg81
g2386
sg74
(lp2398
S':'
asbag67
(g88
g69
NtRp2399
(dp2400
g72
(dp2401
sg81
g2386
sg74
(lp2402
g67
(g68
g69
NtRp2403
(dp2404
g72
(dp2405
g80
I5
ssg81
g2399
sg74
(lp2406
g110
asbasbasbag67
(g83
g69
NtRp2407
(dp2408
g72
(dp2409
sg81
g77
sg74
(lp2410
g67
(g88
g69
NtRp2411
(dp2412
g72
(dp2413
g92
g93
ssg81
g2407
sg74
(lp2414
S'now'
p2415
asbag67
(g88
g69
NtRp2416
(dp2417
g72
(dp2418
g99
g100
ssg81
g2407
sg74
(lp2419
S':'
asbag67
(g88
g69
NtRp2420
(dp2421
g72
(dp2422
sg81
g2407
sg74
(lp2423
g67
(g68
g69
NtRp2424
(dp2425
g72
(dp2426
g80
I5
ssg81
g2420
sg74
(lp2427
S'datetime.datetime(2013, 4, 17, 1, 54, 17, 365148)'
p2428
asbasbasbag67
(g83
g69
NtRp2429
(dp2430
g72
(dp2431
sg81
g77
sg74
(lp2432
g67
(g88
g69
NtRp2433
(dp2434
g72
(dp2435
g92
g93
ssg81
g2429
sg74
(lp2436
S'post_vars'
p2437
asbag67
(g88
g69
NtRp2438
(dp2439
g72
(dp2440
g99
g100
ssg81
g2429
sg74
(lp2441
S':'
asbag67
(g88
g69
NtRp2442
(dp2443
g72
(dp2444
sg81
g2429
sg74
(lp2445
g67
(g68
g69
NtRp2446
(dp2447
g72
(dp2448
g80
I5
ssg81
g2442
sg74
(lp2449
g67
(g76
g69
NtRp2450
(dp2451
g72
(dp2452
g80
I4
ssg81
Nsg74
(lp2453
sbasbasbasbag67
(g83
g69
NtRp2454
(dp2455
g72
(dp2456
sg81
g77
sg74
(lp2457
g67
(g88
g69
NtRp2458
(dp2459
g72
(dp2460
g92
g93
ssg81
g2454
sg74
(lp2461
S'raw_args'
p2462
asbag67
(g88
g69
NtRp2463
(dp2464
g72
(dp2465
g99
g100
ssg81
g2454
sg74
(lp2466
S':'
asbag67
(g88
g69
NtRp2467
(dp2468
g72
(dp2469
sg81
g2454
sg74
(lp2470
g67
(g68
g69
NtRp2471
(dp2472
g72
(dp2473
g80
I5
ssg81
g2467
sg74
(lp2474
S''
asbasbasbag67
(g83
g69
NtRp2475
(dp2476
g72
(dp2477
sg81
g77
sg74
(lp2478
g67
(g88
g69
NtRp2479
(dp2480
g72
(dp2481
g92
g93
ssg81
g2475
sg74
(lp2482
S'raw_extension'
p2483
asbag67
(g88
g69
NtRp2484
(dp2485
g72
(dp2486
g99
g100
ssg81
g2475
sg74
(lp2487
S':'
asbag67
(g88
g69
NtRp2488
(dp2489
g72
(dp2490
sg81
g2475
sg74
(lp2491
g67
(g68
g69
NtRp2492
(dp2493
g72
(dp2494
g80
I5
ssg81
g2488
sg74
(lp2495
S'None'
p2496
asbasbasbag67
(g83
g69
NtRp2497
(dp2498
g72
(dp2499
sg81
g77
sg74
(lp2500
g67
(g88
g69
NtRp2501
(dp2502
g72
(dp2503
g92
g93
ssg81
g2497
sg74
(lp2504
S'url'
p2505
asbag67
(g88
g69
NtRp2506
(dp2507
g72
(dp2508
g99
g100
ssg81
g2497
sg74
(lp2509
S':'
asbag67
(g88
g69
NtRp2510
(dp2511
g72
(dp2512
sg81
g2497
sg74
(lp2513
g67
(g68
g69
NtRp2514
(dp2515
g72
(dp2516
g80
I5
ssg81
g2510
sg74
(lp2517
g1346
asbasbasbag67
(g83
g69
NtRp2518
(dp2519
g72
(dp2520
sg81
g77
sg74
(lp2521
g67
(g88
g69
NtRp2522
(dp2523
g72
(dp2524
g92
g93
ssg81
g2518
sg74
(lp2525
S'utcnow'
p2526
asbag67
(g88
g69
NtRp2527
(dp2528
g72
(dp2529
g99
g100
ssg81
g2518
sg74
(lp2530
S':'
asbag67
(g88
g69
NtRp2531
(dp2532
g72
(dp2533
sg81
g2518
sg74
(lp2534
g67
(g68
g69
NtRp2535
(dp2536
g72
(dp2537
g80
I5
ssg81
g2531
sg74
(lp2538
S'datetime.datetime(2013, 4, 16, 20, 24, 17, 365192)'
p2539
asbasbasbag67
(g83
g69
NtRp2540
(dp2541
g72
(dp2542
sg81
g77
sg74
(lp2543
g67
(g88
g69
NtRp2544
(dp2545
g72
(dp2546
g92
g93
ssg81
g2540
sg74
(lp2547
S'uuid'
p2548
asbag67
(g88
g69
NtRp2549
(dp2550
g72
(dp2551
g99
g100
ssg81
g2540
sg74
(lp2552
S':'
asbag67
(g88
g69
NtRp2553
(dp2554
g72
(dp2555
sg81
g2540
sg74
(lp2556
g67
(g68
g69
NtRp2557
(dp2558
g72
(dp2559
g80
I5
ssg81
g2553
sg74
(lp2560
S'IIIT_calendars/127.0.0.1.2013-04-17.01-54-17.2a028f47-10cf-4af1-b56d-d09a571c27c0'
p2561
asbasbasbag67
(g83
g69
NtRp2562
(dp2563
g72
(dp2564
sg81
g77
sg74
(lp2565
g67
(g88
g69
NtRp2566
(dp2567
g72
(dp2568
g92
g93
ssg81
g2562
sg74
(lp2569
S'vars'
p2570
asbag67
(g88
g69
NtRp2571
(dp2572
g72
(dp2573
g99
g100
ssg81
g2562
sg74
(lp2574
S':'
asbag67
(g88
g69
NtRp2575
(dp2576
g72
(dp2577
sg81
g2562
sg74
(lp2578
g67
(g68
g69
NtRp2579
(dp2580
g72
(dp2581
g80
I5
ssg81
g2575
sg74
(lp2582
g67
(g76
g69
NtRp2583
(dp2584
g72
(dp2585
g80
I4
ssg81
Nsg74
(lp2586
sbasbasbasbag67
(g83
g69
NtRp2587
(dp2588
g72
(dp2589
sg81
g77
sg74
(lp2590
g67
(g88
g69
NtRp2591
(dp2592
g72
(dp2593
g92
g93
ssg81
g2587
sg74
(lp2594
S'wsgi'
p2595
asbag67
(g88
g69
NtRp2596
(dp2597
g72
(dp2598
g99
g100
ssg81
g2587
sg74
(lp2599
S':'
asbag67
(g88
g69
NtRp2600
(dp2601
g72
(dp2602
sg81
g2587
sg74
(lp2603
g67
(g68
g69
NtRp2604
(dp2605
g72
(dp2606
g80
I5
ssg81
g2600
sg74
(lp2607
g67
(g76
g69
NtRp2608
(dp2609
g72
(dp2610
g80
I4
ssg81
Nsg74
(lp2611
g67
(g83
g69
NtRp2612
(dp2613
g72
(dp2614
sg81
g2608
sg74
(lp2615
g67
(g88
g69
NtRp2616
(dp2617
g72
(dp2618
g92
g93
ssg81
g2612
sg74
(lp2619
S'environ'
p2620
asbag67
(g88
g69
NtRp2621
(dp2622
g72
(dp2623
g99
g100
ssg81
g2612
sg74
(lp2624
S':'
asbag67
(g88
g69
NtRp2625
(dp2626
g72
(dp2627
sg81
g2612
sg74
(lp2628
g67
(g68
g69
NtRp2629
(dp2630
g72
(dp2631
g80
I4
ssg81
g2625
sg74
(lp2632
g67
(g76
g69
NtRp2633
(dp2634
g72
(dp2635
g80
I3
ssg81
Nsg74
(lp2636
g67
(g83
g69
NtRp2637
(dp2638
g72
(dp2639
sg81
g2633
sg74
(lp2640
g67
(g88
g69
NtRp2641
(dp2642
g72
(dp2643
g92
g93
ssg81
g2637
sg74
(lp2644
S'HTTP_ACCEPT'
p2645
asbag67
(g88
g69
NtRp2646
(dp2647
g72
(dp2648
g99
g100
ssg81
g2637
sg74
(lp2649
S':'
asbag67
(g88
g69
NtRp2650
(dp2651
g72
(dp2652
sg81
g2637
sg74
(lp2653
g67
(g68
g69
NtRp2654
(dp2655
g72
(dp2656
g80
I3
ssg81
g2650
sg74
(lp2657
g1038
asbasbasbag67
(g83
g69
NtRp2658
(dp2659
g72
(dp2660
sg81
g2633
sg74
(lp2661
g67
(g88
g69
NtRp2662
(dp2663
g72
(dp2664
g92
g93
ssg81
g2658
sg74
(lp2665
S'HTTP_ACCEPT_ENCODING'
p2666
asbag67
(g88
g69
NtRp2667
(dp2668
g72
(dp2669
g99
g100
ssg81
g2658
sg74
(lp2670
S':'
asbag67
(g88
g69
NtRp2671
(dp2672
g72
(dp2673
sg81
g2658
sg74
(lp2674
g67
(g68
g69
NtRp2675
(dp2676
g72
(dp2677
g80
I3
ssg81
g2671
sg74
(lp2678
g1060
asbasbasbag67
(g83
g69
NtRp2679
(dp2680
g72
(dp2681
sg81
g2633
sg74
(lp2682
g67
(g88
g69
NtRp2683
(dp2684
g72
(dp2685
g92
g93
ssg81
g2679
sg74
(lp2686
S'HTTP_ACCEPT_LANGUAGE'
p2687
asbag67
(g88
g69
NtRp2688
(dp2689
g72
(dp2690
g99
g100
ssg81
g2679
sg74
(lp2691
S':'
asbag67
(g88
g69
NtRp2692
(dp2693
g72
(dp2694
sg81
g2679
sg74
(lp2695
g67
(g68
g69
NtRp2696
(dp2697
g72
(dp2698
g80
I3
ssg81
g2692
sg74
(lp2699
g1082
asbasbasbag67
(g83
g69
NtRp2700
(dp2701
g72
(dp2702
sg81
g2633
sg74
(lp2703
g67
(g88
g69
NtRp2704
(dp2705
g72
(dp2706
g92
g93
ssg81
g2700
sg74
(lp2707
S'HTTP_CONNECTION'
p2708
asbag67
(g88
g69
NtRp2709
(dp2710
g72
(dp2711
g99
g100
ssg81
g2700
sg74
(lp2712
S':'
asbag67
(g88
g69
NtRp2713
(dp2714
g72
(dp2715
sg81
g2700
sg74
(lp2716
g67
(g68
g69
NtRp2717
(dp2718
g72
(dp2719
g80
I3
ssg81
g2713
sg74
(lp2720
g1104
asbasbasbag67
(g83
g69
NtRp2721
(dp2722
g72
(dp2723
sg81
g2633
sg74
(lp2724
g67
(g88
g69
NtRp2725
(dp2726
g72
(dp2727
g92
g93
ssg81
g2721
sg74
(lp2728
S'HTTP_COOKIE'
p2729
asbag67
(g88
g69
NtRp2730
(dp2731
g72
(dp2732
g99
g100
ssg81
g2721
sg74
(lp2733
S':'
asbag67
(g88
g69
NtRp2734
(dp2735
g72
(dp2736
sg81
g2721
sg74
(lp2737
g67
(g68
g69
NtRp2738
(dp2739
g72
(dp2740
g80
I3
ssg81
g2734
sg74
(lp2741
g1126
asbasbasbag67
(g83
g69
NtRp2742
(dp2743
g72
(dp2744
sg81
g2633
sg74
(lp2745
g67
(g88
g69
NtRp2746
(dp2747
g72
(dp2748
g92
g93
ssg81
g2742
sg74
(lp2749
S'HTTP_HOST'
p2750
asbag67
(g88
g69
NtRp2751
(dp2752
g72
(dp2753
g99
g100
ssg81
g2742
sg74
(lp2754
S':'
asbag67
(g88
g69
NtRp2755
(dp2756
g72
(dp2757
sg81
g2742
sg74
(lp2758
g67
(g68
g69
NtRp2759
(dp2760
g72
(dp2761
g80
I3
ssg81
g2755
sg74
(lp2762
g1148
asbasbasbag67
(g83
g69
NtRp2763
(dp2764
g72
(dp2765
sg81
g2633
sg74
(lp2766
g67
(g88
g69
NtRp2767
(dp2768
g72
(dp2769
g92
g93
ssg81
g2763
sg74
(lp2770
S'HTTP_REFERER'
p2771
asbag67
(g88
g69
NtRp2772
(dp2773
g72
(dp2774
g99
g100
ssg81
g2763
sg74
(lp2775
S':'
asbag67
(g88
g69
NtRp2776
(dp2777
g72
(dp2778
sg81
g2763
sg74
(lp2779
g67
(g68
g69
NtRp2780
(dp2781
g72
(dp2782
g80
I3
ssg81
g2776
sg74
(lp2783
g1170
asbasbasbag67
(g83
g69
NtRp2784
(dp2785
g72
(dp2786
sg81
g2633
sg74
(lp2787
g67
(g88
g69
NtRp2788
(dp2789
g72
(dp2790
g92
g93
ssg81
g2784
sg74
(lp2791
S'HTTP_USER_AGENT'
p2792
asbag67
(g88
g69
NtRp2793
(dp2794
g72
(dp2795
g99
g100
ssg81
g2784
sg74
(lp2796
S':'
asbag67
(g88
g69
NtRp2797
(dp2798
g72
(dp2799
sg81
g2784
sg74
(lp2800
g67
(g68
g69
NtRp2801
(dp2802
g72
(dp2803
g80
I3
ssg81
g2797
sg74
(lp2804
g1192
asbasbasbag67
(g83
g69
NtRp2805
(dp2806
g72
(dp2807
sg81
g2633
sg74
(lp2808
g67
(g88
g69
NtRp2809
(dp2810
g72
(dp2811
g92
g93
ssg81
g2805
sg74
(lp2812
S'PATH_INFO'
p2813
asbag67
(g88
g69
NtRp2814
(dp2815
g72
(dp2816
g99
g100
ssg81
g2805
sg74
(lp2817
S':'
asbag67
(g88
g69
NtRp2818
(dp2819
g72
(dp2820
sg81
g2805
sg74
(lp2821
g67
(g68
g69
NtRp2822
(dp2823
g72
(dp2824
g80
I3
ssg81
g2818
sg74
(lp2825
g1346
asbasbasbag67
(g83
g69
NtRp2826
(dp2827
g72
(dp2828
sg81
g2633
sg74
(lp2829
g67
(g88
g69
NtRp2830
(dp2831
g72
(dp2832
g92
g93
ssg81
g2826
sg74
(lp2833
S'QUERY_STRING'
p2834
asbag67
(g88
g69
NtRp2835
(dp2836
g72
(dp2837
g99
g100
ssg81
g2826
sg74
(lp2838
S':'
asbag67
(g88
g69
NtRp2839
(dp2840
g72
(dp2841
sg81
g2826
sg74
(lp2842
g67
(g68
g69
NtRp2843
(dp2844
g72
(dp2845
g80
I3
ssg81
g2839
sg74
(lp2846
S''
asbasbasbag67
(g83
g69
NtRp2847
(dp2848
g72
(dp2849
sg81
g2633
sg74
(lp2850
g67
(g88
g69
NtRp2851
(dp2852
g72
(dp2853
g92
g93
ssg81
g2847
sg74
(lp2854
S'REMOTE_ADDR'
p2855
asbag67
(g88
g69
NtRp2856
(dp2857
g72
(dp2858
g99
g100
ssg81
g2847
sg74
(lp2859
S':'
asbag67
(g88
g69
NtRp2860
(dp2861
g72
(dp2862
sg81
g2847
sg74
(lp2863
g67
(g68
g69
NtRp2864
(dp2865
g72
(dp2866
g80
I3
ssg81
g2860
sg74
(lp2867
g222
asbasbasbag67
(g83
g69
NtRp2868
(dp2869
g72
(dp2870
sg81
g2633
sg74
(lp2871
g67
(g88
g69
NtRp2872
(dp2873
g72
(dp2874
g92
g93
ssg81
g2868
sg74
(lp2875
S'REMOTE_PORT'
p2876
asbag67
(g88
g69
NtRp2877
(dp2878
g72
(dp2879
g99
g100
ssg81
g2868
sg74
(lp2880
S':'
asbag67
(g88
g69
NtRp2881
(dp2882
g72
(dp2883
sg81
g2868
sg74
(lp2884
g67
(g68
g69
NtRp2885
(dp2886
g72
(dp2887
g80
I3
ssg81
g2881
sg74
(lp2888
g1410
asbasbasbag67
(g83
g69
NtRp2889
(dp2890
g72
(dp2891
sg81
g2633
sg74
(lp2892
g67
(g88
g69
NtRp2893
(dp2894
g72
(dp2895
g92
g93
ssg81
g2889
sg74
(lp2896
S'REQUEST_METHOD'
p2897
asbag67
(g88
g69
NtRp2898
(dp2899
g72
(dp2900
g99
g100
ssg81
g2889
sg74
(lp2901
S':'
asbag67
(g88
g69
NtRp2902
(dp2903
g72
(dp2904
sg81
g2889
sg74
(lp2905
g67
(g68
g69
NtRp2906
(dp2907
g72
(dp2908
g80
I3
ssg81
g2902
sg74
(lp2909
g1432
asbasbasbag67
(g83
g69
NtRp2910
(dp2911
g72
(dp2912
sg81
g2633
sg74
(lp2913
g67
(g88
g69
NtRp2914
(dp2915
g72
(dp2916
g92
g93
ssg81
g2910
sg74
(lp2917
S'REQUEST_URI'
p2918
asbag67
(g88
g69
NtRp2919
(dp2920
g72
(dp2921
g99
g100
ssg81
g2910
sg74
(lp2922
S':'
asbag67
(g88
g69
NtRp2923
(dp2924
g72
(dp2925
sg81
g2910
sg74
(lp2926
g67
(g68
g69
NtRp2927
(dp2928
g72
(dp2929
g80
I3
ssg81
g2923
sg74
(lp2930
g1346
asbasbasbag67
(g83
g69
NtRp2931
(dp2932
g72
(dp2933
sg81
g2633
sg74
(lp2934
g67
(g88
g69
NtRp2935
(dp2936
g72
(dp2937
g92
g93
ssg81
g2931
sg74
(lp2938
S'SCRIPT_NAME'
p2939
asbag67
(g88
g69
NtRp2940
(dp2941
g72
(dp2942
g99
g100
ssg81
g2931
sg74
(lp2943
S':'
asbag67
(g88
g69
NtRp2944
(dp2945
g72
(dp2946
sg81
g2931
sg74
(lp2947
g67
(g68
g69
NtRp2948
(dp2949
g72
(dp2950
g80
I3
ssg81
g2944
sg74
(lp2951
S''
asbasbasbag67
(g83
g69
NtRp2952
(dp2953
g72
(dp2954
sg81
g2633
sg74
(lp2955
g67
(g88
g69
NtRp2956
(dp2957
g72
(dp2958
g92
g93
ssg81
g2952
sg74
(lp2959
S'SERVER_NAME'
p2960
asbag67
(g88
g69
NtRp2961
(dp2962
g72
(dp2963
g99
g100
ssg81
g2952
sg74
(lp2964
S':'
asbag67
(g88
g69
NtRp2965
(dp2966
g72
(dp2967
sg81
g2952
sg74
(lp2968
g67
(g68
g69
NtRp2969
(dp2970
g72
(dp2971
g80
I3
ssg81
g2965
sg74
(lp2972
g1496
asbasbasbag67
(g83
g69
NtRp2973
(dp2974
g72
(dp2975
sg81
g2633
sg74
(lp2976
g67
(g88
g69
NtRp2977
(dp2978
g72
(dp2979
g92
g93
ssg81
g2973
sg74
(lp2980
S'SERVER_PORT'
p2981
asbag67
(g88
g69
NtRp2982
(dp2983
g72
(dp2984
g99
g100
ssg81
g2973
sg74
(lp2985
S':'
asbag67
(g88
g69
NtRp2986
(dp2987
g72
(dp2988
sg81
g2973
sg74
(lp2989
g67
(g68
g69
NtRp2990
(dp2991
g72
(dp2992
g80
I3
ssg81
g2986
sg74
(lp2993
g1518
asbasbasbag67
(g83
g69
NtRp2994
(dp2995
g72
(dp2996
sg81
g2633
sg74
(lp2997
g67
(g88
g69
NtRp2998
(dp2999
g72
(dp3000
g92
g93
ssg81
g2994
sg74
(lp3001
S'SERVER_PROTOCOL'
p3002
asbag67
(g88
g69
NtRp3003
(dp3004
g72
(dp3005
g99
g100
ssg81
g2994
sg74
(lp3006
S':'
asbag67
(g88
g69
NtRp3007
(dp3008
g72
(dp3009
sg81
g2994
sg74
(lp3010
g67
(g68
g69
NtRp3011
(dp3012
g72
(dp3013
g80
I3
ssg81
g3007
sg74
(lp3014
g1540
asbasbasbag67
(g83
g69
NtRp3015
(dp3016
g72
(dp3017
sg81
g2633
sg74
(lp3018
g67
(g88
g69
NtRp3019
(dp3020
g72
(dp3021
g92
g93
ssg81
g3015
sg74
(lp3022
S'SERVER_SOFTWARE'
p3023
asbag67
(g88
g69
NtRp3024
(dp3025
g72
(dp3026
g99
g100
ssg81
g3015
sg74
(lp3027
S':'
asbag67
(g88
g69
NtRp3028
(dp3029
g72
(dp3030
sg81
g3015
sg74
(lp3031
g67
(g68
g69
NtRp3032
(dp3033
g72
(dp3034
g80
I3
ssg81
g3028
sg74
(lp3035
g1562
asbasbasbag67
(g83
g69
NtRp3036
(dp3037
g72
(dp3038
sg81
g2633
sg74
(lp3039
g67
(g88
g69
NtRp3040
(dp3041
g72
(dp3042
g92
g93
ssg81
g3036
sg74
(lp3043
S'wsgi.errors'
p3044
asbag67
(g88
g69
NtRp3045
(dp3046
g72
(dp3047
g99
g100
ssg81
g3036
sg74
(lp3048
S':'
asbag67
(g88
g69
NtRp3049
(dp3050
g72
(dp3051
sg81
g3036
sg74
(lp3052
g67
(g68
g69
NtRp3053
(dp3054
g72
(dp3055
g80
I3
ssg81
g3049
sg74
(lp3056
S"<open file '<stderr>', mode 'w' at 0xb730d0d0>"
p3057
asbasbasbag67
(g83
g69
NtRp3058
(dp3059
g72
(dp3060
sg81
g2633
sg74
(lp3061
g67
(g88
g69
NtRp3062
(dp3063
g72
(dp3064
g92
g93
ssg81
g3058
sg74
(lp3065
S'wsgi.file_wrapper'
p3066
asbag67
(g88
g69
NtRp3067
(dp3068
g72
(dp3069
g99
g100
ssg81
g3058
sg74
(lp3070
S':'
asbag67
(g88
g69
NtRp3071
(dp3072
g72
(dp3073
sg81
g3058
sg74
(lp3074
g67
(g68
g69
NtRp3075
(dp3076
g72
(dp3077
g80
I3
ssg81
g3071
sg74
(lp3078
S'<class wsgiref.util.FileWrapper at 0xa00ff8c>'
p3079
asbasbasbag67
(g83
g69
NtRp3080
(dp3081
g72
(dp3082
sg81
g2633
sg74
(lp3083
g67
(g88
g69
NtRp3084
(dp3085
g72
(dp3086
g92
g93
ssg81
g3080
sg74
(lp3087
S'wsgi.input'
p3088
asbag67
(g88
g69
NtRp3089
(dp3090
g72
(dp3091
g99
g100
ssg81
g3080
sg74
(lp3092
S':'
asbag67
(g88
g69
NtRp3093
(dp3094
g72
(dp3095
sg81
g3080
sg74
(lp3096
g67
(g68
g69
NtRp3097
(dp3098
g72
(dp3099
g80
I3
ssg81
g3093
sg74
(lp3100
S'<cStringIO.StringO object at 0xacb7d6e0>'
p3101
asbasbasbag67
(g83
g69
NtRp3102
(dp3103
g72
(dp3104
sg81
g2633
sg74
(lp3105
g67
(g88
g69
NtRp3106
(dp3107
g72
(dp3108
g92
g93
ssg81
g3102
sg74
(lp3109
S'wsgi.multiprocess'
p3110
asbag67
(g88
g69
NtRp3111
(dp3112
g72
(dp3113
g99
g100
ssg81
g3102
sg74
(lp3114
S':'
asbag67
(g88
g69
NtRp3115
(dp3116
g72
(dp3117
sg81
g3102
sg74
(lp3118
g67
(g68
g69
NtRp3119
(dp3120
g72
(dp3121
g80
I3
ssg81
g3115
sg74
(lp3122
g110
asbasbasbag67
(g83
g69
NtRp3123
(dp3124
g72
(dp3125
sg81
g2633
sg74
(lp3126
g67
(g88
g69
NtRp3127
(dp3128
g72
(dp3129
g92
g93
ssg81
g3123
sg74
(lp3130
S'wsgi.multithread'
p3131
asbag67
(g88
g69
NtRp3132
(dp3133
g72
(dp3134
g99
g100
ssg81
g3123
sg74
(lp3135
S':'
asbag67
(g88
g69
NtRp3136
(dp3137
g72
(dp3138
sg81
g3123
sg74
(lp3139
g67
(g68
g69
NtRp3140
(dp3141
g72
(dp3142
g80
I3
ssg81
g3136
sg74
(lp3143
g1779
asbasbasbag67
(g83
g69
NtRp3144
(dp3145
g72
(dp3146
sg81
g2633
sg74
(lp3147
g67
(g88
g69
NtRp3148
(dp3149
g72
(dp3150
g92
g93
ssg81
g3144
sg74
(lp3151
S'wsgi.run_once'
p3152
asbag67
(g88
g69
NtRp3153
(dp3154
g72
(dp3155
g99
g100
ssg81
g3144
sg74
(lp3156
S':'
asbag67
(g88
g69
NtRp3157
(dp3158
g72
(dp3159
sg81
g3144
sg74
(lp3160
g67
(g68
g69
NtRp3161
(dp3162
g72
(dp3163
g80
I3
ssg81
g3157
sg74
(lp3164
g110
asbasbasbag67
(g83
g69
NtRp3165
(dp3166
g72
(dp3167
sg81
g2633
sg74
(lp3168
g67
(g88
g69
NtRp3169
(dp3170
g72
(dp3171
g92
g93
ssg81
g3165
sg74
(lp3172
S'wsgi.url_scheme'
p3173
asbag67
(g88
g69
NtRp3174
(dp3175
g72
(dp3176
g99
g100
ssg81
g3165
sg74
(lp3177
S':'
asbag67
(g88
g69
NtRp3178
(dp3179
g72
(dp3180
sg81
g3165
sg74
(lp3181
g67
(g68
g69
NtRp3182
(dp3183
g72
(dp3184
g80
I3
ssg81
g3178
sg74
(lp3185
g1822
asbasbasbag67
(g83
g69
NtRp3186
(dp3187
g72
(dp3188
sg81
g2633
sg74
(lp3189
g67
(g88
g69
NtRp3190
(dp3191
g72
(dp3192
g92
g93
ssg81
g3186
sg74
(lp3193
S'wsgi.version'
p3194
asbag67
(g88
g69
NtRp3195
(dp3196
g72
(dp3197
g99
g100
ssg81
g3186
sg74
(lp3198
S':'
asbag67
(g88
g69
NtRp3199
(dp3200
g72
(dp3201
sg81
g3186
sg74
(lp3202
g67
(g68
g69
NtRp3203
(dp3204
g72
(dp3205
g80
I3
ssg81
g3199
sg74
(lp3206
S'1'
asbasbasbasbasbasbasbasbasbasbasbasbasbsS'frames'
p3207
(lp3208
(dp3209
S'file'
p3210
S'/home/user/Documents/2nd sem/ITWS-2/web2py/gluon/restricted.py'
p3211
sS'dump'
p3212
(dp3213
S'code'
p3214
S'\'response.write(\\\'<!DOCTYPE html PUBLIC "-//W3C//D...iv>\\\\r\\\\n\\\\r\\\\n</body>\\\\r\\\\n</html>\\\\r\\\\n\\\', escape=False)\''
p3215
sS'layer'
p3216
S"'/home/user/Documents/2nd sem/ITWS-2/web2py/applications/IIIT_calendars/views/default/index.html'"
p3217
sS'global compile2'
p3218
S'<function compile2>'
p3219
sS'ccode'
p3220
S'undefined'
p3221
ssS'lnum'
p3222
I211
sS'lines'
p3223
(dp3224
I206
S"    environment['__name__'] = '__restricted__'"
p3225
sI207
S'    try:'
p3226
sI208
S'        if isinstance(code, types.CodeType):'
p3227
sI209
S'            ccode = code'
p3228
sI210
S'        else:'
p3229
sI211
S'            ccode = compile2(code, layer)'
p3230
sI212
S'        exec ccode in environment'
p3231
sI213
S'    except HTTP:'
p3232
sI214
S'        raise'
p3233
sI215
S'    except RestrictedError:'
p3234
ssS'call'
p3235
S'(code=\'response.write(\\\'<!DOCTYPE html PUBLIC "-//W3C//D...iv>\\\\r\\\\n\\\\r\\\\n</body>\\\\r\\\\n</html>\\\\r\\\\n\\\', escape=False)\', environment={\'A\': <class \'gluon.html.A\'>, \'Auth\': <class \'gluon.tools.Auth\'>, \'B\': <class \'gluon.html.B\'>, \'BEAUTIFY\': <class \'gluon.html.BEAUTIFY\'>, \'BODY\': <class \'gluon.html.BODY\'>, \'BR\': <class \'gluon.html.BR\'>, \'BUTTON\': <class \'gluon.html.BUTTON\'>, \'CAT\': <class \'gluon.html.CAT\'>, \'CENTER\': <class \'gluon.html.CENTER\'>, \'CLEANUP\': <class \'gluon.validators.CLEANUP\'>, ...}, layer=\'/home/user/Documents/2nd sem/ITWS-2/web2py/applications/IIIT_calendars/views/default/index.html\')'
p3236
sS'func'
p3237
S'restricted'
p3238
sa(dp3239
g3210
S'/home/user/Documents/2nd sem/ITWS-2/web2py/gluon/restricted.py'
p3240
sg3212
(dp3241
S'builtincompile'
p3242
S'<built-in function compile>'
p3243
sS'code'
p3244
S'\'response.write(\\\'<!DOCTYPE html PUBLIC "-//W3C//D...iv>\\\\r\\\\n\\\\r\\\\n</body>\\\\r\\\\n</html>\\\\r\\\\n\\\', escape=False)\''
p3245
sS'code.rstrip'
p3246
S'<built-in method rstrip of str object>'
p3247
sS').replace'
p3248
g3221
sS'layer'
p3249
S"'/home/user/Documents/2nd sem/ITWS-2/web2py/applications/IIIT_calendars/views/default/index.html'"
p3250
ssg3222
I194
sg3223
(dp3251
I192
S"    The +'\\n' is necessary else compile fails when code ends in a comment."
p3252
sI193
S'    """'
p3253
sI194
S"    return compile(code.rstrip().replace('\\r\\n', '\\n') + '\\n', layer, 'exec')"
p3254
sI195
S''
sI196
S''
sI197
S"def restricted(code, environment=None, layer='Unknown'):"
p3255
sI198
S'    """'
p3256
sI189
S''
sI190
S'def compile2(code, layer):'
p3257
sI191
S'    """'
p3258
ssg3235
S'(code=\'response.write(\\\'<!DOCTYPE html PUBLIC "-//W3C//D...iv>\\\\r\\\\n\\\\r\\\\n</body>\\\\r\\\\n</html>\\\\r\\\\n\\\', escape=False)\', layer=\'/home/user/Documents/2nd sem/ITWS-2/web2py/applications/IIIT_calendars/views/default/index.html\')'
p3259
sg3237
S'compile2'
p3260
sasS'pyver'
p3261
S'Python 2.7.3: /usr/bin/python'
p3262
sS'session'
p3263
g67
(g68
g69
NtRp3264
(dp3265
g72
(dp3266
sg74
(lp3267
g67
(g76
g69
NtRp3268
(dp3269
g72
(dp3270
g80
I5
ssg81
Nsg74
(lp3271
g67
(g83
g69
NtRp3272
(dp3273
g72
(dp3274
sg81
g3268
sg74
(lp3275
g67
(g88
g69
NtRp3276
(dp3277
g72
(dp3278
g92
g93
ssg81
g3272
sg74
(lp3279
S'auth'
p3280
asbag67
(g88
g69
NtRp3281
(dp3282
g72
(dp3283
g99
g100
ssg81
g3272
sg74
(lp3284
S':'
asbag67
(g88
g69
NtRp3285
(dp3286
g72
(dp3287
sg81
g3272
sg74
(lp3288
g67
(g68
g69
NtRp3289
(dp3290
g72
(dp3291
g80
I5
ssg81
g3285
sg74
(lp3292
g67
(g76
g69
NtRp3293
(dp3294
g72
(dp3295
g80
I4
ssg81
Nsg74
(lp3296
g67
(g83
g69
NtRp3297
(dp3298
g72
(dp3299
sg81
g3293
sg74
(lp3300
g67
(g88
g69
NtRp3301
(dp3302
g72
(dp3303
g92
g93
ssg81
g3297
sg74
(lp3304
S'expiration'
p3305
asbag67
(g88
g69
NtRp3306
(dp3307
g72
(dp3308
g99
g100
ssg81
g3297
sg74
(lp3309
S':'
asbag67
(g88
g69
NtRp3310
(dp3311
g72
(dp3312
sg81
g3297
sg74
(lp3313
g67
(g68
g69
NtRp3314
(dp3315
g72
(dp3316
g80
I4
ssg81
g3310
sg74
(lp3317
S'3600'
p3318
asbasbasbag67
(g83
g69
NtRp3319
(dp3320
g72
(dp3321
sg81
g3293
sg74
(lp3322
g67
(g88
g69
NtRp3323
(dp3324
g72
(dp3325
g92
g93
ssg81
g3319
sg74
(lp3326
S'hmac_key'
p3327
asbag67
(g88
g69
NtRp3328
(dp3329
g72
(dp3330
g99
g100
ssg81
g3319
sg74
(lp3331
S':'
asbag67
(g88
g69
NtRp3332
(dp3333
g72
(dp3334
sg81
g3319
sg74
(lp3335
g67
(g68
g69
NtRp3336
(dp3337
g72
(dp3338
g80
I4
ssg81
g3332
sg74
(lp3339
S'b8f8436b-51d1-4a89-92f1-921ae91092b4'
p3340
asbasbasbag67
(g83
g69
NtRp3341
(dp3342
g72
(dp3343
sg81
g3293
sg74
(lp3344
g67
(g88
g69
NtRp3345
(dp3346
g72
(dp3347
g92
g93
ssg81
g3341
sg74
(lp3348
S'last_visit'
p3349
asbag67
(g88
g69
NtRp3350
(dp3351
g72
(dp3352
g99
g100
ssg81
g3341
sg74
(lp3353
S':'
asbag67
(g88
g69
NtRp3354
(dp3355
g72
(dp3356
sg81
g3341
sg74
(lp3357
g67
(g68
g69
NtRp3358
(dp3359
g72
(dp3360
g80
I4
ssg81
g3354
sg74
(lp3361
S'datetime.datetime(2013, 4, 17, 1, 54, 17, 116701)'
p3362
asbasbasbag67
(g83
g69
NtRp3363
(dp3364
g72
(dp3365
sg81
g3293
sg74
(lp3366
g67
(g88
g69
NtRp3367
(dp3368
g72
(dp3369
g92
g93
ssg81
g3363
sg74
(lp3370
S'remember'
p3371
asbag67
(g88
g69
NtRp3372
(dp3373
g72
(dp3374
g99
g100
ssg81
g3363
sg74
(lp3375
S':'
asbag67
(g88
g69
NtRp3376
(dp3377
g72
(dp3378
sg81
g3363
sg74
(lp3379
g67
(g68
g69
NtRp3380
(dp3381
g72
(dp3382
g80
I4
ssg81
g3376
sg74
(lp3383
g110
asbasbasbag67
(g83
g69
NtRp3384
(dp3385
g72
(dp3386
sg81
g3293
sg74
(lp3387
g67
(g88
g69
NtRp3388
(dp3389
g72
(dp3390
g92
g93
ssg81
g3384
sg74
(lp3391
S'user'
p3392
asbag67
(g88
g69
NtRp3393
(dp3394
g72
(dp3395
g99
g100
ssg81
g3384
sg74
(lp3396
S':'
asbag67
(g88
g69
NtRp3397
(dp3398
g72
(dp3399
sg81
g3384
sg74
(lp3400
g67
(g68
g69
NtRp3401
(dp3402
g72
(dp3403
g80
I4
ssg81
g3397
sg74
(lp3404
g67
(g76
g69
NtRp3405
(dp3406
g72
(dp3407
g80
I3
ssg81
Nsg74
(lp3408
g67
(g83
g69
NtRp3409
(dp3410
g72
(dp3411
sg81
g3405
sg74
(lp3412
g67
(g88
g69
NtRp3413
(dp3414
g72
(dp3415
g92
g93
ssg81
g3409
sg74
(lp3416
S'email'
p3417
asbag67
(g88
g69
NtRp3418
(dp3419
g72
(dp3420
g99
g100
ssg81
g3409
sg74
(lp3421
S':'
asbag67
(g88
g69
NtRp3422
(dp3423
g72
(dp3424
sg81
g3409
sg74
(lp3425
g67
(g68
g69
NtRp3426
(dp3427
g72
(dp3428
g80
I3
ssg81
g3422
sg74
(lp3429
S'simikedia93@gmail.com'
p3430
asbasbasbag67
(g83
g69
NtRp3431
(dp3432
g72
(dp3433
sg81
g3405
sg74
(lp3434
g67
(g88
g69
NtRp3435
(dp3436
g72
(dp3437
g92
g93
ssg81
g3431
sg74
(lp3438
S'first_name'
p3439
asbag67
(g88
g69
NtRp3440
(dp3441
g72
(dp3442
g99
g100
ssg81
g3431
sg74
(lp3443
S':'
asbag67
(g88
g69
NtRp3444
(dp3445
g72
(dp3446
sg81
g3431
sg74
(lp3447
g67
(g68
g69
NtRp3448
(dp3449
g72
(dp3450
g80
I3
ssg81
g3444
sg74
(lp3451
S'Simran'
p3452
asbasbasbag67
(g83
g69
NtRp3453
(dp3454
g72
(dp3455
sg81
g3405
sg74
(lp3456
g67
(g88
g69
NtRp3457
(dp3458
g72
(dp3459
g92
g93
ssg81
g3453
sg74
(lp3460
S'id'
p3461
asbag67
(g88
g69
NtRp3462
(dp3463
g72
(dp3464
g99
g100
ssg81
g3453
sg74
(lp3465
S':'
asbag67
(g88
g69
NtRp3466
(dp3467
g72
(dp3468
sg81
g3453
sg74
(lp3469
g67
(g68
g69
NtRp3470
(dp3471
g72
(dp3472
g80
I3
ssg81
g3466
sg74
(lp3473
S'17'
p3474
asbasbasbag67
(g83
g69
NtRp3475
(dp3476
g72
(dp3477
sg81
g3405
sg74
(lp3478
g67
(g88
g69
NtRp3479
(dp3480
g72
(dp3481
g92
g93
ssg81
g3475
sg74
(lp3482
S'last_name'
p3483
asbag67
(g88
g69
NtRp3484
(dp3485
g72
(dp3486
g99
g100
ssg81
g3475
sg74
(lp3487
S':'
asbag67
(g88
g69
NtRp3488
(dp3489
g72
(dp3490
sg81
g3475
sg74
(lp3491
g67
(g68
g69
NtRp3492
(dp3493
g72
(dp3494
g80
I3
ssg81
g3488
sg74
(lp3495
S'Kedia'
p3496
asbasbasbag67
(g83
g69
NtRp3497
(dp3498
g72
(dp3499
sg81
g3405
sg74
(lp3500
g67
(g88
g69
NtRp3501
(dp3502
g72
(dp3503
g92
g93
ssg81
g3497
sg74
(lp3504
S'registration_id'
p3505
asbag67
(g88
g69
NtRp3506
(dp3507
g72
(dp3508
g99
g100
ssg81
g3497
sg74
(lp3509
S':'
asbag67
(g88
g69
NtRp3510
(dp3511
g72
(dp3512
sg81
g3497
sg74
(lp3513
g67
(g68
g69
NtRp3514
(dp3515
g72
(dp3516
g80
I3
ssg81
g3510
sg74
(lp3517
S''
asbasbasbag67
(g83
g69
NtRp3518
(dp3519
g72
(dp3520
sg81
g3405
sg74
(lp3521
g67
(g88
g69
NtRp3522
(dp3523
g72
(dp3524
g92
g93
ssg81
g3518
sg74
(lp3525
S'registration_key'
p3526
asbag67
(g88
g69
NtRp3527
(dp3528
g72
(dp3529
g99
g100
ssg81
g3518
sg74
(lp3530
S':'
asbag67
(g88
g69
NtRp3531
(dp3532
g72
(dp3533
sg81
g3518
sg74
(lp3534
g67
(g68
g69
NtRp3535
(dp3536
g72
(dp3537
g80
I3
ssg81
g3531
sg74
(lp3538
S''
asbasbasbag67
(g83
g69
NtRp3539
(dp3540
g72
(dp3541
sg81
g3405
sg74
(lp3542
g67
(g88
g69
NtRp3543
(dp3544
g72
(dp3545
g92
g93
ssg81
g3539
sg74
(lp3546
S'reset_password_key'
p3547
asbag67
(g88
g69
NtRp3548
(dp3549
g72
(dp3550
g99
g100
ssg81
g3539
sg74
(lp3551
S':'
asbag67
(g88
g69
NtRp3552
(dp3553
g72
(dp3554
sg81
g3539
sg74
(lp3555
g67
(g68
g69
NtRp3556
(dp3557
g72
(dp3558
g80
I3
ssg81
g3552
sg74
(lp3559
S''
asbasbasbasbasbasbasbag67
(g83
g69
NtRp3560
(dp3561
g72
(dp3562
sg81
g3293
sg74
(lp3563
g67
(g88
g69
NtRp3564
(dp3565
g72
(dp3566
g92
g93
ssg81
g3560
sg74
(lp3567
S'user_groups'
p3568
asbag67
(g88
g69
NtRp3569
(dp3570
g72
(dp3571
g99
g100
ssg81
g3560
sg74
(lp3572
S':'
asbag67
(g88
g69
NtRp3573
(dp3574
g72
(dp3575
sg81
g3560
sg74
(lp3576
g67
(g68
g69
NtRp3577
(dp3578
g72
(dp3579
g80
I4
ssg81
g3573
sg74
(lp3580
g67
(g76
g69
NtRp3581
(dp3582
g72
(dp3583
g80
I3
ssg81
Nsg74
(lp3584
g67
(g83
g69
NtRp3585
(dp3586
g72
(dp3587
sg81
g3581
sg74
(lp3588
g67
(g88
g69
NtRp3589
(dp3590
g72
(dp3591
g92
g93
ssg81
g3585
sg74
(lp3592
S'17'
p3593
asbag67
(g88
g69
NtRp3594
(dp3595
g72
(dp3596
g99
g100
ssg81
g3585
sg74
(lp3597
S':'
asbag67
(g88
g69
NtRp3598
(dp3599
g72
(dp3600
sg81
g3585
sg74
(lp3601
g67
(g68
g69
NtRp3602
(dp3603
g72
(dp3604
g80
I3
ssg81
g3598
sg74
(lp3605
S'user_17'
p3606
asbasbasbasbasbasbasbasbasbasbasbag67
(g83
g69
NtRp3607
(dp3608
g72
(dp3609
sg81
g3268
sg74
(lp3610
g67
(g88
g69
NtRp3611
(dp3612
g72
(dp3613
g92
g93
ssg81
g3607
sg74
(lp3614
S'flash'
p3615
asbag67
(g88
g69
NtRp3616
(dp3617
g72
(dp3618
g99
g100
ssg81
g3607
sg74
(lp3619
S':'
asbag67
(g88
g69
NtRp3620
(dp3621
g72
(dp3622
sg81
g3607
sg74
(lp3623
g67
(g68
g69
NtRp3624
(dp3625
g72
(dp3626
g80
I5
ssg81
g3620
sg74
(lp3627
S'None'
p3628
asbasbasbasbasbsS'etype'
p3629
S"<type 'exceptions.SyntaxError'>"
p3630
sS'date'
p3631
S'Wed Apr 17 01:54:17 2013'
p3632
sS'response'
p3633
g67
(g68
g69
NtRp3634
(dp3635
g72
(dp3636
sg74
(lp3637
g67
(g76
g69
NtRp3638
(dp3639
g72
(dp3640
g80
I5
ssg81
Nsg74
(lp3641
g67
(g83
g69
NtRp3642
(dp3643
g72
(dp3644
sg81
g3638
sg74
(lp3645
g67
(g88
g69
NtRp3646
(dp3647
g72
(dp3648
g92
g93
ssg81
g3642
sg74
(lp3649
g165
asbag67
(g88
g69
NtRp3650
(dp3651
g72
(dp3652
g99
g100
ssg81
g3642
sg74
(lp3653
S':'
asbag67
(g88
g69
NtRp3654
(dp3655
g72
(dp3656
sg81
g3642
sg74
(lp3657
g67
(g68
g69
NtRp3658
(dp3659
g72
(dp3660
g80
I5
ssg81
g3654
sg74
(lp3661
S'<cStringIO.StringO object at 0xac89bfc0>'
p3662
asbasbasbag67
(g83
g69
NtRp3663
(dp3664
g72
(dp3665
sg81
g3638
sg74
(lp3666
g67
(g88
g69
NtRp3667
(dp3668
g72
(dp3669
g92
g93
ssg81
g3663
sg74
(lp3670
g253
asbag67
(g88
g69
NtRp3671
(dp3672
g72
(dp3673
g99
g100
ssg81
g3663
sg74
(lp3674
S':'
asbag67
(g88
g69
NtRp3675
(dp3676
g72
(dp3677
sg81
g3663
sg74
(lp3678
g67
(g68
g69
NtRp3679
(dp3680
g72
(dp3681
g80
I5
ssg81
g3675
sg74
(lp3682
g67
(g76
g69
NtRp3683
(dp3684
g72
(dp3685
g80
I4
ssg81
Nsg74
(lp3686
g67
(g83
g69
NtRp3687
(dp3688
g72
(dp3689
sg81
g3683
sg74
(lp3690
g67
(g88
g69
NtRp3691
(dp3692
g72
(dp3693
g92
g93
ssg81
g3687
sg74
(lp3694
S'session_id_iiit_calendars'
p3695
asbag67
(g88
g69
NtRp3696
(dp3697
g72
(dp3698
g99
g100
ssg81
g3687
sg74
(lp3699
S':'
asbag67
(g88
g69
NtRp3700
(dp3701
g72
(dp3702
sg81
g3687
sg74
(lp3703
g67
(g68
g69
NtRp3704
(dp3705
g72
(dp3706
g80
I4
ssg81
g3700
sg74
(lp3707
g485
ag67
(g76
g69
NtRp3708
(dp3709
g72
(dp3710
g80
I3
ssg81
Nsg74
(lp3711
g67
(g83
g69
NtRp3712
(dp3713
g72
(dp3714
sg81
g3708
sg74
(lp3715
g67
(g88
g69
NtRp3716
(dp3717
g72
(dp3718
g92
g93
ssg81
g3712
sg74
(lp3719
g304
asbag67
(g88
g69
NtRp3720
(dp3721
g72
(dp3722
g99
g100
ssg81
g3712
sg74
(lp3723
S':'
asbag67
(g88
g69
NtRp3724
(dp3725
g72
(dp3726
sg81
g3712
sg74
(lp3727
g67
(g68
g69
NtRp3728
(dp3729
g72
(dp3730
g80
I3
ssg81
g3724
sg74
(lp3731
S''
asbasbasbag67
(g83
g69
NtRp3732
(dp3733
g72
(dp3734
sg81
g3708
sg74
(lp3735
g67
(g88
g69
NtRp3736
(dp3737
g72
(dp3738
g92
g93
ssg81
g3732
sg74
(lp3739
g325
asbag67
(g88
g69
NtRp3740
(dp3741
g72
(dp3742
g99
g100
ssg81
g3732
sg74
(lp3743
S':'
asbag67
(g88
g69
NtRp3744
(dp3745
g72
(dp3746
sg81
g3732
sg74
(lp3747
g67
(g68
g69
NtRp3748
(dp3749
g72
(dp3750
g80
I3
ssg81
g3744
sg74
(lp3751
S''
asbasbasbag67
(g83
g69
NtRp3752
(dp3753
g72
(dp3754
sg81
g3708
sg74
(lp3755
g67
(g88
g69
NtRp3756
(dp3757
g72
(dp3758
g92
g93
ssg81
g3752
sg74
(lp3759
g346
asbag67
(g88
g69
NtRp3760
(dp3761
g72
(dp3762
g99
g100
ssg81
g3752
sg74
(lp3763
S':'
asbag67
(g88
g69
NtRp3764
(dp3765
g72
(dp3766
sg81
g3752
sg74
(lp3767
g67
(g68
g69
NtRp3768
(dp3769
g72
(dp3770
g80
I3
ssg81
g3764
sg74
(lp3771
S''
asbasbasbag67
(g83
g69
NtRp3772
(dp3773
g72
(dp3774
sg81
g3708
sg74
(lp3775
g67
(g88
g69
NtRp3776
(dp3777
g72
(dp3778
g92
g93
ssg81
g3772
sg74
(lp3779
g367
asbag67
(g88
g69
NtRp3780
(dp3781
g72
(dp3782
g99
g100
ssg81
g3772
sg74
(lp3783
S':'
asbag67
(g88
g69
NtRp3784
(dp3785
g72
(dp3786
sg81
g3772
sg74
(lp3787
g67
(g68
g69
NtRp3788
(dp3789
g72
(dp3790
g80
I3
ssg81
g3784
sg74
(lp3791
S''
asbasbasbag67
(g83
g69
NtRp3792
(dp3793
g72
(dp3794
sg81
g3708
sg74
(lp3795
g67
(g88
g69
NtRp3796
(dp3797
g72
(dp3798
g92
g93
ssg81
g3792
sg74
(lp3799
g388
asbag67
(g88
g69
NtRp3800
(dp3801
g72
(dp3802
g99
g100
ssg81
g3792
sg74
(lp3803
S':'
asbag67
(g88
g69
NtRp3804
(dp3805
g72
(dp3806
sg81
g3792
sg74
(lp3807
g67
(g68
g69
NtRp3808
(dp3809
g72
(dp3810
g80
I3
ssg81
g3804
sg74
(lp3811
S''
asbasbasbag67
(g83
g69
NtRp3812
(dp3813
g72
(dp3814
sg81
g3708
sg74
(lp3815
g67
(g88
g69
NtRp3816
(dp3817
g72
(dp3818
g92
g93
ssg81
g3812
sg74
(lp3819
g409
asbag67
(g88
g69
NtRp3820
(dp3821
g72
(dp3822
g99
g100
ssg81
g3812
sg74
(lp3823
S':'
asbag67
(g88
g69
NtRp3824
(dp3825
g72
(dp3826
sg81
g3812
sg74
(lp3827
g67
(g68
g69
NtRp3828
(dp3829
g72
(dp3830
g80
I3
ssg81
g3824
sg74
(lp3831
S'/'
asbasbasbag67
(g83
g69
NtRp3832
(dp3833
g72
(dp3834
sg81
g3708
sg74
(lp3835
g67
(g88
g69
NtRp3836
(dp3837
g72
(dp3838
g92
g93
ssg81
g3832
sg74
(lp3839
g430
asbag67
(g88
g69
NtRp3840
(dp3841
g72
(dp3842
g99
g100
ssg81
g3832
sg74
(lp3843
S':'
asbag67
(g88
g69
NtRp3844
(dp3845
g72
(dp3846
sg81
g3832
sg74
(lp3847
g67
(g68
g69
NtRp3848
(dp3849
g72
(dp3850
g80
I3
ssg81
g3844
sg74
(lp3851
S''
asbasbasbag67
(g83
g69
NtRp3852
(dp3853
g72
(dp3854
sg81
g3708
sg74
(lp3855
g67
(g88
g69
NtRp3856
(dp3857
g72
(dp3858
g92
g93
ssg81
g3852
sg74
(lp3859
g451
asbag67
(g88
g69
NtRp3860
(dp3861
g72
(dp3862
g99
g100
ssg81
g3852
sg74
(lp3863
S':'
asbag67
(g88
g69
NtRp3864
(dp3865
g72
(dp3866
sg81
g3852
sg74
(lp3867
g67
(g68
g69
NtRp3868
(dp3869
g72
(dp3870
g80
I3
ssg81
g3864
sg74
(lp3871
S''
asbasbasbasbasbasbasbasbasbasbasbag67
(g83
g69
NtRp3872
(dp3873
g72
(dp3874
sg81
g3638
sg74
(lp3875
g67
(g88
g69
NtRp3876
(dp3877
g72
(dp3878
g92
g93
ssg81
g3872
sg74
(lp3879
S'delimiters'
p3880
asbag67
(g88
g69
NtRp3881
(dp3882
g72
(dp3883
g99
g100
ssg81
g3872
sg74
(lp3884
S':'
asbag67
(g88
g69
NtRp3885
(dp3886
g72
(dp3887
sg81
g3872
sg74
(lp3888
g67
(g68
g69
NtRp3889
(dp3890
g72
(dp3891
g80
I5
ssg81
g3885
sg74
(lp3892
g67
(g76
g69
NtRp3893
(dp3894
g72
(dp3895
g80
I4
ssg81
Nsg74
(lp3896
g67
(g83
g69
NtRp3897
(dp3898
g72
(dp3899
sg81
g3893
sg74
(lp3900
g67
(g88
g69
NtRp3901
(dp3902
g72
(dp3903
sg81
g3897
sg74
(lp3904
g67
(g68
g69
NtRp3905
(dp3906
g72
(dp3907
g80
I4
ssg81
g3901
sg74
(lp3908
S'{{'
p3909
asbasbasbag67
(g83
g69
NtRp3910
(dp3911
g72
(dp3912
sg81
g3893
sg74
(lp3913
g67
(g88
g69
NtRp3914
(dp3915
g72
(dp3916
sg81
g3910
sg74
(lp3917
g67
(g68
g69
NtRp3918
(dp3919
g72
(dp3920
g80
I4
ssg81
g3914
sg74
(lp3921
S'}}'
p3922
asbasbasbasbasbasbasbag67
(g83
g69
NtRp3923
(dp3924
g72
(dp3925
sg81
g3638
sg74
(lp3926
g67
(g88
g69
NtRp3927
(dp3928
g72
(dp3929
g92
g93
ssg81
g3923
sg74
(lp3930
S'files'
p3931
asbag67
(g88
g69
NtRp3932
(dp3933
g72
(dp3934
g99
g100
ssg81
g3923
sg74
(lp3935
S':'
asbag67
(g88
g69
NtRp3936
(dp3937
g72
(dp3938
sg81
g3923
sg74
(lp3939
g67
(g68
g69
NtRp3940
(dp3941
g72
(dp3942
g80
I5
ssg81
g3936
sg74
(lp3943
g67
(g76
g69
NtRp3944
(dp3945
g72
(dp3946
g80
I4
ssg81
Nsg74
(lp3947
sbasbasbasbag67
(g83
g69
NtRp3948
(dp3949
g72
(dp3950
sg81
g3638
sg74
(lp3951
g67
(g88
g69
NtRp3952
(dp3953
g72
(dp3954
g92
g93
ssg81
g3948
sg74
(lp3955
S'flash'
p3956
asbag67
(g88
g69
NtRp3957
(dp3958
g72
(dp3959
g99
g100
ssg81
g3948
sg74
(lp3960
S':'
asbag67
(g88
g69
NtRp3961
(dp3962
g72
(dp3963
sg81
g3948
sg74
(lp3964
g67
(g68
g69
NtRp3965
(dp3966
g72
(dp3967
g80
I5
ssg81
g3961
sg74
(lp3968
S'Logged in'
p3969
asbasbasbag67
(g83
g69
NtRp3970
(dp3971
g72
(dp3972
sg81
g3638
sg74
(lp3973
g67
(g88
g69
NtRp3974
(dp3975
g72
(dp3976
g92
g93
ssg81
g3970
sg74
(lp3977
S'generic_patterns'
p3978
asbag67
(g88
g69
NtRp3979
(dp3980
g72
(dp3981
g99
g100
ssg81
g3970
sg74
(lp3982
S':'
asbag67
(g88
g69
NtRp3983
(dp3984
g72
(dp3985
sg81
g3970
sg74
(lp3986
g67
(g68
g69
NtRp3987
(dp3988
g72
(dp3989
g80
I5
ssg81
g3983
sg74
(lp3990
g67
(g76
g69
NtRp3991
(dp3992
g72
(dp3993
g80
I4
ssg81
Nsg74
(lp3994
g67
(g83
g69
NtRp3995
(dp3996
g72
(dp3997
sg81
g3991
sg74
(lp3998
g67
(g88
g69
NtRp3999
(dp4000
g72
(dp4001
sg81
g3995
sg74
(lp4002
g67
(g68
g69
NtRp4003
(dp4004
g72
(dp4005
g80
I4
ssg81
g3999
sg74
(lp4006
S'*'
asbasbasbasbasbasbasbag67
(g83
g69
NtRp4007
(dp4008
g72
(dp4009
sg81
g3638
sg74
(lp4010
g67
(g88
g69
NtRp4011
(dp4012
g72
(dp4013
g92
g93
ssg81
g4007
sg74
(lp4014
S'google_analytics_id'
p4015
asbag67
(g88
g69
NtRp4016
(dp4017
g72
(dp4018
g99
g100
ssg81
g4007
sg74
(lp4019
S':'
asbag67
(g88
g69
NtRp4020
(dp4021
g72
(dp4022
sg81
g4007
sg74
(lp4023
g67
(g68
g69
NtRp4024
(dp4025
g72
(dp4026
g80
I5
ssg81
g4020
sg74
(lp4027
S'None'
p4028
asbasbasbag67
(g83
g69
NtRp4029
(dp4030
g72
(dp4031
sg81
g3638
sg74
(lp4032
g67
(g88
g69
NtRp4033
(dp4034
g72
(dp4035
g92
g93
ssg81
g4029
sg74
(lp4036
S'headers'
p4037
asbag67
(g88
g69
NtRp4038
(dp4039
g72
(dp4040
g99
g100
ssg81
g4029
sg74
(lp4041
S':'
asbag67
(g88
g69
NtRp4042
(dp4043
g72
(dp4044
sg81
g4029
sg74
(lp4045
g67
(g68
g69
NtRp4046
(dp4047
g72
(dp4048
g80
I5
ssg81
g4042
sg74
(lp4049
g67
(g76
g69
NtRp4050
(dp4051
g72
(dp4052
g80
I4
ssg81
Nsg74
(lp4053
g67
(g83
g69
NtRp4054
(dp4055
g72
(dp4056
sg81
g4050
sg74
(lp4057
g67
(g88
g69
NtRp4058
(dp4059
g72
(dp4060
g92
g93
ssg81
g4054
sg74
(lp4061
S'X-Powered-By'
p4062
asbag67
(g88
g69
NtRp4063
(dp4064
g72
(dp4065
g99
g100
ssg81
g4054
sg74
(lp4066
S':'
asbag67
(g88
g69
NtRp4067
(dp4068
g72
(dp4069
sg81
g4054
sg74
(lp4070
g67
(g68
g69
NtRp4071
(dp4072
g72
(dp4073
g80
I4
ssg81
g4067
sg74
(lp4074
S'web2py'
p4075
asbasbasbasbasbasbasbag67
(g83
g69
NtRp4076
(dp4077
g72
(dp4078
sg81
g3638
sg74
(lp4079
g67
(g88
g69
NtRp4080
(dp4081
g72
(dp4082
g92
g93
ssg81
g4076
sg74
(lp4083
S'logo'
p4084
asbag67
(g88
g69
NtRp4085
(dp4086
g72
(dp4087
g99
g100
ssg81
g4076
sg74
(lp4088
S':'
asbag67
(g88
g69
NtRp4089
(dp4090
g72
(dp4091
sg81
g4076
sg74
(lp4092
g67
(g68
g69
NtRp4093
(dp4094
g72
(dp4095
g80
I5
ssg81
g4089
sg74
(lp4096
g67
(cgluon.html
A
p4097
g69
NtRp4098
(dp4099
g72
(dp4100
S'_class'
p4101
S'brand'
p4102
sS'_href'
p4103
S'http://www.web2py.com/'
p4104
ssg81
Nsg74
(lp4105
g67
(cgluon.html
B
p4106
g69
NtRp4107
(dp4108
g72
(dp4109
sg81
g4098
sg74
(lp4110
S'web'
p4111
ag67
(cgluon.html
SPAN
p4112
g69
NtRp4113
(dp4114
g72
(dp4115
sg81
g4107
sg74
(lp4116
I2
asbaS'py'
p4117
asbacgluon.html
XML_unpickle
p4118
(S's\r\x00\x00\x00&trade;&nbsp;'
tRp4119
asbasbasbasbag67
(g83
g69
NtRp4120
(dp4121
g72
(dp4122
sg81
g3638
sg74
(lp4123
g67
(g88
g69
NtRp4124
(dp4125
g72
(dp4126
g92
g93
ssg81
g4120
sg74
(lp4127
S'menu'
p4128
asbag67
(g88
g69
NtRp4129
(dp4130
g72
(dp4131
g99
g100
ssg81
g4120
sg74
(lp4132
S':'
asbag67
(g88
g69
NtRp4133
(dp4134
g72
(dp4135
sg81
g4120
sg74
(lp4136
g67
(g68
g69
NtRp4137
(dp4138
g72
(dp4139
g80
I5
ssg81
g4133
sg74
(lp4140
g67
(g76
g69
NtRp4141
(dp4142
g72
(dp4143
g80
I4
ssg81
Nsg74
(lp4144
g67
(g83
g69
NtRp4145
(dp4146
g72
(dp4147
sg81
g4141
sg74
(lp4148
g67
(g88
g69
NtRp4149
(dp4150
g72
(dp4151
sg81
g4145
sg74
(lp4152
g67
(g68
g69
NtRp4153
(dp4154
g72
(dp4155
g80
I4
ssg81
g4149
sg74
(lp4156
g67
(g76
g69
NtRp4157
(dp4158
g72
(dp4159
g80
I3
ssg81
Nsg74
(lp4160
g67
(g83
g69
NtRp4161
(dp4162
g72
(dp4163
sg81
g4157
sg74
(lp4164
g67
(g88
g69
NtRp4165
(dp4166
g72
(dp4167
sg81
g4161
sg74
(lp4168
g67
(g68
g69
NtRp4169
(dp4170
g72
(dp4171
g80
I3
ssg81
g4165
sg74
(lp4172
cgluon.languages
lazyT_unpickle
p4173
(S's\x04\x00\x00\x00Home'
tRp4174
asbasbasbag67
(g83
g69
NtRp4175
(dp4176
g72
(dp4177
sg81
g4157
sg74
(lp4178
g67
(g88
g69
NtRp4179
(dp4180
g72
(dp4181
sg81
g4175
sg74
(lp4182
g67
(g68
g69
NtRp4183
(dp4184
g72
(dp4185
g80
I3
ssg81
g4179
sg74
(lp4186
g110
asbasbasbag67
(g83
g69
NtRp4187
(dp4188
g72
(dp4189
sg81
g4157
sg74
(lp4190
g67
(g88
g69
NtRp4191
(dp4192
g72
(dp4193
sg81
g4187
sg74
(lp4194
g67
(g68
g69
NtRp4195
(dp4196
g72
(dp4197
g80
I3
ssg81
g4191
sg74
(lp4198
S'/IIIT_calendars/default/index'
p4199
asbasbasbag67
(g83
g69
NtRp4200
(dp4201
g72
(dp4202
sg81
g4157
sg74
(lp4203
g67
(g88
g69
NtRp4204
(dp4205
g72
(dp4206
sg81
g4200
sg74
(lp4207
g67
(g68
g69
NtRp4208
(dp4209
g72
(dp4210
g80
I3
ssg81
g4204
sg74
(lp4211
g67
(g76
g69
NtRp4212
(dp4213
g72
(dp4214
g80
I2
ssg81
Nsg74
(lp4215
sbasbasbasbasbasbasbasbag67
(g83
g69
NtRp4216
(dp4217
g72
(dp4218
sg81
g4141
sg74
(lp4219
g67
(g88
g69
NtRp4220
(dp4221
g72
(dp4222
sg81
g4216
sg74
(lp4223
g67
(g68
g69
NtRp4224
(dp4225
g72
(dp4226
g80
I4
ssg81
g4220
sg74
(lp4227
g67
(g76
g69
NtRp4228
(dp4229
g72
(dp4230
g80
I3
ssg81
Nsg74
(lp4231
g67
(g83
g69
NtRp4232
(dp4233
g72
(dp4234
sg81
g4228
sg74
(lp4235
g67
(g88
g69
NtRp4236
(dp4237
g72
(dp4238
sg81
g4232
sg74
(lp4239
g67
(g68
g69
NtRp4240
(dp4241
g72
(dp4242
g80
I3
ssg81
g4236
sg74
(lp4243
g67
(g4112
g69
NtRp4244
(dp4245
g72
(dp4246
g4101
S'highlighted'
p4247
ssg81
Nsg74
(lp4248
g4075
asbasbasbasbag67
(g83
g69
NtRp4249
(dp4250
g72
(dp4251
sg81
g4228
sg74
(lp4252
g67
(g88
g69
NtRp4253
(dp4254
g72
(dp4255
sg81
g4249
sg74
(lp4256
g67
(g68
g69
NtRp4257
(dp4258
g72
(dp4259
g80
I3
ssg81
g4253
sg74
(lp4260
g110
asbasbasbag67
(g83
g69
NtRp4261
(dp4262
g72
(dp4263
sg81
g4228
sg74
(lp4264
g67
(g88
g69
NtRp4265
(dp4266
g72
(dp4267
sg81
g4261
sg74
(lp4268
g67
(g68
g69
NtRp4269
(dp4270
g72
(dp4271
g80
I3
ssg81
g4265
sg74
(lp4272
S'http://web2py.com'
p4273
asbasbasbag67
(g83
g69
NtRp4274
(dp4275
g72
(dp4276
sg81
g4228
sg74
(lp4277
g67
(g88
g69
NtRp4278
(dp4279
g72
(dp4280
sg81
g4274
sg74
(lp4281
g67
(g68
g69
NtRp4282
(dp4283
g72
(dp4284
g80
I3
ssg81
g4278
sg74
(lp4285
g67
(g76
g69
NtRp4286
(dp4287
g72
(dp4288
g80
I2
ssg81
Nsg74
(lp4289
g67
(g83
g69
NtRp4290
(dp4291
g72
(dp4292
sg81
g4286
sg74
(lp4293
g67
(g88
g69
NtRp4294
(dp4295
g72
(dp4296
sg81
g4290
sg74
(lp4297
g67
(g68
g69
NtRp4298
(dp4299
g72
(dp4300
g80
I2
ssg81
g4294
sg74
(lp4301
g67
(g76
g69
NtRp4302
(dp4303
g72
(dp4304
g80
I1
ssg81
Nsg74
(lp4305
g67
(g83
g69
NtRp4306
(dp4307
g72
(dp4308
sg81
g4302
sg74
(lp4309
g67
(g88
g69
NtRp4310
(dp4311
g72
(dp4312
sg81
g4306
sg74
(lp4313
g67
(g68
g69
NtRp4314
(dp4315
g72
(dp4316
g80
I1
ssg81
g4310
sg74
(lp4317
g4173
(S's\x08\x00\x00\x00My Sites'
tRp4318
asbasbasbag67
(g83
g69
NtRp4319
(dp4320
g72
(dp4321
sg81
g4302
sg74
(lp4322
g67
(g88
g69
NtRp4323
(dp4324
g72
(dp4325
sg81
g4319
sg74
(lp4326
g67
(g68
g69
NtRp4327
(dp4328
g72
(dp4329
g80
I1
ssg81
g4323
sg74
(lp4330
I00
asbasbasbag67
(g83
g69
NtRp4331
(dp4332
g72
(dp4333
sg81
g4302
sg74
(lp4334
g67
(g88
g69
NtRp4335
(dp4336
g72
(dp4337
sg81
g4331
sg74
(lp4338
g67
(g68
g69
NtRp4339
(dp4340
g72
(dp4341
g80
I1
ssg81
g4335
sg74
(lp4342
S'/admin/default/site'
p4343
asbasbasbasbasbasbasbag67
(g83
g69
NtRp4344
(dp4345
g72
(dp4346
sg81
g4286
sg74
(lp4347
g67
(g88
g69
NtRp4348
(dp4349
g72
(dp4350
sg81
g4344
sg74
(lp4351
g67
(g68
g69
NtRp4352
(dp4353
g72
(dp4354
g80
I2
ssg81
g4348
sg74
(lp4355
g67
(g76
g69
NtRp4356
(dp4357
g72
(dp4358
g80
I1
ssg81
Nsg74
(lp4359
g67
(g83
g69
NtRp4360
(dp4361
g72
(dp4362
sg81
g4356
sg74
(lp4363
g67
(g88
g69
NtRp4364
(dp4365
g72
(dp4366
sg81
g4360
sg74
(lp4367
g67
(g68
g69
NtRp4368
(dp4369
g72
(dp4370
g80
I1
ssg81
g4364
sg74
(lp4371
g4173
(S's\x08\x00\x00\x00This App'
tRp4372
asbasbasbag67
(g83
g69
NtRp4373
(dp4374
g72
(dp4375
sg81
g4356
sg74
(lp4376
g67
(g88
g69
NtRp4377
(dp4378
g72
(dp4379
sg81
g4373
sg74
(lp4380
g67
(g68
g69
NtRp4381
(dp4382
g72
(dp4383
g80
I1
ssg81
g4377
sg74
(lp4384
I00
asbasbasbag67
(g83
g69
NtRp4385
(dp4386
g72
(dp4387
sg81
g4356
sg74
(lp4388
g67
(g88
g69
NtRp4389
(dp4390
g72
(dp4391
sg81
g4385
sg74
(lp4392
g67
(g68
g69
NtRp4393
(dp4394
g72
(dp4395
g80
I1
ssg81
g4389
sg74
(lp4396
S'/admin/default/design/IIIT_calendars'
p4397
asbasbasbag67
(g83
g69
NtRp4398
(dp4399
g72
(dp4400
sg81
g4356
sg74
(lp4401
g67
(g88
g69
NtRp4402
(dp4403
g72
(dp4404
sg81
g4398
sg74
(lp4405
g67
(g68
g69
NtRp4406
(dp4407
g72
(dp4408
g80
I1
ssg81
g4402
sg74
(lp4409
(lp4410
(g4173
(S's\n\x00\x00\x00Controller'
tRp4411
I00
S'/admin/default/edit/IIIT_calendars/controllers/default.py'
tp4412
a(g4173
(S's\x04\x00\x00\x00View'
tRp4413
I00
S'/admin/default/edit/IIIT_calendars/views/default/index.html'
tp4414
a(g4173
(S's\x06\x00\x00\x00Layout'
tRp4415
I00
S'/admin/default/edit/IIIT_calendars/views/layout.html'
tp4416
a(g4173
(S's\n\x00\x00\x00Stylesheet'
tRp4417
I00
S'/admin/default/edit/IIIT_calendars/static/css/web2py.css'
tp4418
a(g4173
(S's\x08\x00\x00\x00DB Model'
tRp4419
I00
S'/admin/default/edit/IIIT_calendars/models/db.py'
tp4420
a(g4173
(S's\n\x00\x00\x00Menu Model'
tRp4421
I00
S'/admin/default/edit/IIIT_calendars/models/menu.py'
tp4422
a(g4173
(S's\x08\x00\x00\x00Database'
tRp4423
I00
S'/IIIT_calendars/appadmin/index'
tp4424
a(g4173
(S's\x06\x00\x00\x00Errors'
tRp4425
I00
S'/admin/default/errors/IIIT_calendars'
tp4426
a(g4173
(S's\x05\x00\x00\x00About'
tRp4427
I00
S'/admin/default/about/IIIT_calendars'
tp4428
aasbasbasbasbasbasbasbag67
(g83
g69
NtRp4429
(dp4430
g72
(dp4431
sg81
g4286
sg74
(lp4432
g67
(g88
g69
NtRp4433
(dp4434
g72
(dp4435
sg81
g4429
sg74
(lp4436
g67
(g68
g69
NtRp4437
(dp4438
g72
(dp4439
g80
I2
ssg81
g4433
sg74
(lp4440
g67
(g76
g69
NtRp4441
(dp4442
g72
(dp4443
g80
I1
ssg81
Nsg74
(lp4444
g67
(g83
g69
NtRp4445
(dp4446
g72
(dp4447
sg81
g4441
sg74
(lp4448
g67
(g88
g69
NtRp4449
(dp4450
g72
(dp4451
sg81
g4445
sg74
(lp4452
g67
(g68
g69
NtRp4453
(dp4454
g72
(dp4455
g80
I1
ssg81
g4449
sg74
(lp4456
S'web2py.com'
p4457
asbasbasbag67
(g83
g69
NtRp4458
(dp4459
g72
(dp4460
sg81
g4441
sg74
(lp4461
g67
(g88
g69
NtRp4462
(dp4463
g72
(dp4464
sg81
g4458
sg74
(lp4465
g67
(g68
g69
NtRp4466
(dp4467
g72
(dp4468
g80
I1
ssg81
g4462
sg74
(lp4469
I00
asbasbasbag67
(g83
g69
NtRp4470
(dp4471
g72
(dp4472
sg81
g4441
sg74
(lp4473
g67
(g88
g69
NtRp4474
(dp4475
g72
(dp4476
sg81
g4470
sg74
(lp4477
g67
(g68
g69
NtRp4478
(dp4479
g72
(dp4480
g80
I1
ssg81
g4474
sg74
(lp4481
S'http://www.web2py.com'
p4482
asbasbasbag67
(g83
g69
NtRp4483
(dp4484
g72
(dp4485
sg81
g4441
sg74
(lp4486
g67
(g88
g69
NtRp4487
(dp4488
g72
(dp4489
sg81
g4483
sg74
(lp4490
g67
(g68
g69
NtRp4491
(dp4492
g72
(dp4493
g80
I1
ssg81
g4487
sg74
(lp4494
(lp4495
(g4173
(S's\x08\x00\x00\x00Download'
tRp4496
I00
S'http://www.web2py.com/examples/default/download'
p4497
tp4498
a(g4173
(S's\x07\x00\x00\x00Support'
tRp4499
I00
S'http://www.web2py.com/examples/default/support'
p4500
tp4501
a(g4173
(S's\x04\x00\x00\x00Demo'
tRp4502
I00
S'http://web2py.com/demo_admin'
p4503
tp4504
a(g4173
(S's\x0e\x00\x00\x00Quick Examples'
tRp4505
I00
S'http://web2py.com/examples/default/examples'
p4506
tp4507
a(g4173
(S's\x03\x00\x00\x00FAQ'
tRp4508
I00
S'http://web2py.com/AlterEgo'
p4509
tp4510
a(g4173
(S's\x06\x00\x00\x00Videos'
tRp4511
I00
S'http://www.web2py.com/examples/default/videos/'
p4512
tp4513
a(g4173
(S's\x11\x00\x00\x00Free Applications'
tRp4514
I00
S'http://web2py.com/appliances'
p4515
tp4516
a(g4173
(S's\x07\x00\x00\x00Plugins'
tRp4517
I00
S'http://web2py.com/plugins'
p4518
tp4519
a(g4173
(S's\x07\x00\x00\x00Layouts'
tRp4520
I00
S'http://web2py.com/layouts'
p4521
tp4522
a(g4173
(S's\x07\x00\x00\x00Recipes'
tRp4523
I00
S'http://web2pyslices.com/'
p4524
tp4525
a(g4173
(S's\x08\x00\x00\x00Semantic'
tRp4526
I00
S'http://web2py.com/semantic'
p4527
tp4528
aasbasbasbasbasbasbasbag67
(g83
g69
NtRp4529
(dp4530
g72
(dp4531
sg81
g4286
sg74
(lp4532
g67
(g88
g69
NtRp4533
(dp4534
g72
(dp4535
sg81
g4529
sg74
(lp4536
g67
(g68
g69
NtRp4537
(dp4538
g72
(dp4539
g80
I2
ssg81
g4533
sg74
(lp4540
g67
(g76
g69
NtRp4541
(dp4542
g72
(dp4543
g80
I1
ssg81
Nsg74
(lp4544
g67
(g83
g69
NtRp4545
(dp4546
g72
(dp4547
sg81
g4541
sg74
(lp4548
g67
(g88
g69
NtRp4549
(dp4550
g72
(dp4551
sg81
g4545
sg74
(lp4552
g67
(g68
g69
NtRp4553
(dp4554
g72
(dp4555
g80
I1
ssg81
g4549
sg74
(lp4556
g4173
(S's\r\x00\x00\x00Documentation'
tRp4557
asbasbasbag67
(g83
g69
NtRp4558
(dp4559
g72
(dp4560
sg81
g4541
sg74
(lp4561
g67
(g88
g69
NtRp4562
(dp4563
g72
(dp4564
sg81
g4558
sg74
(lp4565
g67
(g68
g69
NtRp4566
(dp4567
g72
(dp4568
g80
I1
ssg81
g4562
sg74
(lp4569
I00
asbasbasbag67
(g83
g69
NtRp4570
(dp4571
g72
(dp4572
sg81
g4541
sg74
(lp4573
g67
(g88
g69
NtRp4574
(dp4575
g72
(dp4576
sg81
g4570
sg74
(lp4577
g67
(g68
g69
NtRp4578
(dp4579
g72
(dp4580
g80
I1
ssg81
g4574
sg74
(lp4581
S'http://www.web2py.com/book'
p4582
asbasbasbag67
(g83
g69
NtRp4583
(dp4584
g72
(dp4585
sg81
g4541
sg74
(lp4586
g67
(g88
g69
NtRp4587
(dp4588
g72
(dp4589
sg81
g4583
sg74
(lp4590
g67
(g68
g69
NtRp4591
(dp4592
g72
(dp4593
g80
I1
ssg81
g4587
sg74
(lp4594
(lp4595
(g4173
(S's\x07\x00\x00\x00Preface'
tRp4596
I00
S'http://www.web2py.com/book/default/chapter/00'
p4597
tp4598
a(g4173
(S's\x0c\x00\x00\x00Introduction'
tRp4599
I00
S'http://www.web2py.com/book/default/chapter/01'
p4600
tp4601
a(g4173
(S's\x06\x00\x00\x00Python'
tRp4602
I00
S'http://www.web2py.com/book/default/chapter/02'
p4603
tp4604
a(g4173
(S's\x08\x00\x00\x00Overview'
tRp4605
I00
S'http://www.web2py.com/book/default/chapter/03'
p4606
tp4607
a(g4173
(S's\x08\x00\x00\x00The Core'
tRp4608
I00
S'http://www.web2py.com/book/default/chapter/04'
p4609
tp4610
a(g4173
(S's\t\x00\x00\x00The Views'
tRp4611
I00
S'http://www.web2py.com/book/default/chapter/05'
p4612
tp4613
a(g4173
(S's\x08\x00\x00\x00Database'
tRp4614
I00
S'http://www.web2py.com/book/default/chapter/06'
p4615
tp4616
a(g4173
(S's\x14\x00\x00\x00Forms and Validators'
tRp4617
I00
S'http://www.web2py.com/book/default/chapter/07'
p4618
tp4619
a(g4173
(S's\r\x00\x00\x00Email and SMS'
tRp4620
I00
S'http://www.web2py.com/book/default/chapter/08'
p4621
tp4622
a(g4173
(S's\x0e\x00\x00\x00Access Control'
tRp4623
I00
S'http://www.web2py.com/book/default/chapter/09'
p4624
tp4625
a(g4173
(S's\x08\x00\x00\x00Services'
tRp4626
I00
S'http://www.web2py.com/book/default/chapter/10'
p4627
tp4628
a(g4173
(S's\x0c\x00\x00\x00Ajax Recipes'
tRp4629
I00
S'http://www.web2py.com/book/default/chapter/11'
p4630
tp4631
a(g4173
(S's\x16\x00\x00\x00Components and Plugins'
tRp4632
I00
S'http://www.web2py.com/book/default/chapter/12'
p4633
tp4634
a(g4173
(S's\x12\x00\x00\x00Deployment Recipes'
tRp4635
I00
S'http://www.web2py.com/book/default/chapter/13'
p4636
tp4637
a(g4173
(S's\r\x00\x00\x00Other Recipes'
tRp4638
I00
S'http://www.web2py.com/book/default/chapter/14'
p4639
tp4640
a(g4173
(S's\r\x00\x00\x00Buy this book'
tRp4641
I00
S'http://stores.lulu.com/web2py'
p4642
tp4643
aasbasbasbasbasbasbasbag67
(g83
g69
NtRp4644
(dp4645
g72
(dp4646
sg81
g4286
sg74
(lp4647
g67
(g88
g69
NtRp4648
(dp4649
g72
(dp4650
sg81
g4644
sg74
(lp4651
g67
(g68
g69
NtRp4652
(dp4653
g72
(dp4654
g80
I2
ssg81
g4648
sg74
(lp4655
g67
(g76
g69
NtRp4656
(dp4657
g72
(dp4658
g80
I1
ssg81
Nsg74
(lp4659
g67
(g83
g69
NtRp4660
(dp4661
g72
(dp4662
sg81
g4656
sg74
(lp4663
g67
(g88
g69
NtRp4664
(dp4665
g72
(dp4666
sg81
g4660
sg74
(lp4667
g67
(g68
g69
NtRp4668
(dp4669
g72
(dp4670
g80
I1
ssg81
g4664
sg74
(lp4671
g4173
(S's\t\x00\x00\x00Community'
tRp4672
asbasbasbag67
(g83
g69
NtRp4673
(dp4674
g72
(dp4675
sg81
g4656
sg74
(lp4676
g67
(g88
g69
NtRp4677
(dp4678
g72
(dp4679
sg81
g4673
sg74
(lp4680
g67
(g68
g69
NtRp4681
(dp4682
g72
(dp4683
g80
I1
ssg81
g4677
sg74
(lp4684
I00
asbasbasbag67
(g83
g69
NtRp4685
(dp4686
g72
(dp4687
sg81
g4656
sg74
(lp4688
g67
(g88
g69
NtRp4689
(dp4690
g72
(dp4691
sg81
g4685
sg74
(lp4692
g67
(g68
g69
NtRp4693
(dp4694
g72
(dp4695
g80
I1
ssg81
g4689
sg74
(lp4696
Nasbasbasbag67
(g83
g69
NtRp4697
(dp4698
g72
(dp4699
sg81
g4656
sg74
(lp4700
g67
(g88
g69
NtRp4701
(dp4702
g72
(dp4703
sg81
g4697
sg74
(lp4704
g67
(g68
g69
NtRp4705
(dp4706
g72
(dp4707
g80
I1
ssg81
g4701
sg74
(lp4708
(lp4709
(g4173
(S's\x06\x00\x00\x00Groups'
tRp4710
I00
S'http://www.web2py.com/examples/default/usergroups'
p4711
tp4712
a(g4173
(S's\x07\x00\x00\x00Twitter'
tRp4713
I00
S'http://twitter.com/web2py'
p4714
tp4715
a(g4173
(S's\t\x00\x00\x00Live Chat'
tRp4716
I00
S'http://webchat.freenode.net/?channels=web2py'
p4717
tp4718
aasbasbasbasbasbasbasbag67
(g83
g69
NtRp4719
(dp4720
g72
(dp4721
sg81
g4286
sg74
(lp4722
g67
(g88
g69
NtRp4723
(dp4724
g72
(dp4725
sg81
g4719
sg74
(lp4726
g67
(g68
g69
NtRp4727
(dp4728
g72
(dp4729
g80
I2
ssg81
g4723
sg74
(lp4730
g67
(g76
g69
NtRp4731
(dp4732
g72
(dp4733
g80
I1
ssg81
Nsg74
(lp4734
g67
(g83
g69
NtRp4735
(dp4736
g72
(dp4737
sg81
g4731
sg74
(lp4738
g67
(g88
g69
NtRp4739
(dp4740
g72
(dp4741
sg81
g4735
sg74
(lp4742
g67
(g68
g69
NtRp4743
(dp4744
g72
(dp4745
g80
I1
ssg81
g4739
sg74
(lp4746
g4173
(S's\x07\x00\x00\x00Plugins'
tRp4747
asbasbasbag67
(g83
g69
NtRp4748
(dp4749
g72
(dp4750
sg81
g4731
sg74
(lp4751
g67
(g88
g69
NtRp4752
(dp4753
g72
(dp4754
sg81
g4748
sg74
(lp4755
g67
(g68
g69
NtRp4756
(dp4757
g72
(dp4758
g80
I1
ssg81
g4752
sg74
(lp4759
I00
asbasbasbag67
(g83
g69
NtRp4760
(dp4761
g72
(dp4762
sg81
g4731
sg74
(lp4763
g67
(g88
g69
NtRp4764
(dp4765
g72
(dp4766
sg81
g4760
sg74
(lp4767
g67
(g68
g69
NtRp4768
(dp4769
g72
(dp4770
g80
I1
ssg81
g4764
sg74
(lp4771
Nasbasbasbag67
(g83
g69
NtRp4772
(dp4773
g72
(dp4774
sg81
g4731
sg74
(lp4775
g67
(g88
g69
NtRp4776
(dp4777
g72
(dp4778
sg81
g4772
sg74
(lp4779
g67
(g68
g69
NtRp4780
(dp4781
g72
(dp4782
g80
I1
ssg81
g4776
sg74
(lp4783
(lp4784
(S'plugin_wiki'
p4785
I00
S'http://web2py.com/examples/default/download'
p4786
tp4787
a(g4173
(S's\r\x00\x00\x00Other Plugins'
tRp4788
I00
g4518
tp4789
a(g4173
(S's\x0e\x00\x00\x00Layout Plugins'
tRp4790
I00
g4521
tp4791
aasbasbasbasbasbasbasbasbasbasbasbasbasbasbasbasbasbasbasbag67
(g83
g69
NtRp4792
(dp4793
g72
(dp4794
sg81
g3638
sg74
(lp4795
g67
(g88
g69
NtRp4796
(dp4797
g72
(dp4798
g92
g93
ssg81
g4792
sg74
(lp4799
S'meta'
p4800
asbag67
(g88
g69
NtRp4801
(dp4802
g72
(dp4803
g99
g100
ssg81
g4792
sg74
(lp4804
S':'
asbag67
(g88
g69
NtRp4805
(dp4806
g72
(dp4807
sg81
g4792
sg74
(lp4808
g67
(g68
g69
NtRp4809
(dp4810
g72
(dp4811
g80
I5
ssg81
g4805
sg74
(lp4812
g67
(g76
g69
NtRp4813
(dp4814
g72
(dp4815
g80
I4
ssg81
Nsg74
(lp4816
g67
(g83
g69
NtRp4817
(dp4818
g72
(dp4819
sg81
g4813
sg74
(lp4820
g67
(g88
g69
NtRp4821
(dp4822
g72
(dp4823
g92
g93
ssg81
g4817
sg74
(lp4824
S'author'
p4825
asbag67
(g88
g69
NtRp4826
(dp4827
g72
(dp4828
g99
g100
ssg81
g4817
sg74
(lp4829
S':'
asbag67
(g88
g69
NtRp4830
(dp4831
g72
(dp4832
sg81
g4817
sg74
(lp4833
g67
(g68
g69
NtRp4834
(dp4835
g72
(dp4836
g80
I4
ssg81
g4830
sg74
(lp4837
S'Your Name <you@example.com>'
p4838
asbasbasbag67
(g83
g69
NtRp4839
(dp4840
g72
(dp4841
sg81
g4813
sg74
(lp4842
g67
(g88
g69
NtRp4843
(dp4844
g72
(dp4845
g92
g93
ssg81
g4839
sg74
(lp4846
S'description'
p4847
asbag67
(g88
g69
NtRp4848
(dp4849
g72
(dp4850
g99
g100
ssg81
g4839
sg74
(lp4851
S':'
asbag67
(g88
g69
NtRp4852
(dp4853
g72
(dp4854
sg81
g4839
sg74
(lp4855
g67
(g68
g69
NtRp4856
(dp4857
g72
(dp4858
g80
I4
ssg81
g4852
sg74
(lp4859
S'a cool new app'
p4860
asbasbasbag67
(g83
g69
NtRp4861
(dp4862
g72
(dp4863
sg81
g4813
sg74
(lp4864
g67
(g88
g69
NtRp4865
(dp4866
g72
(dp4867
g92
g93
ssg81
g4861
sg74
(lp4868
S'generator'
p4869
asbag67
(g88
g69
NtRp4870
(dp4871
g72
(dp4872
g99
g100
ssg81
g4861
sg74
(lp4873
S':'
asbag67
(g88
g69
NtRp4874
(dp4875
g72
(dp4876
sg81
g4861
sg74
(lp4877
g67
(g68
g69
NtRp4878
(dp4879
g72
(dp4880
g80
I4
ssg81
g4874
sg74
(lp4881
S'Web2py Web Framework'
p4882
asbasbasbag67
(g83
g69
NtRp4883
(dp4884
g72
(dp4885
sg81
g4813
sg74
(lp4886
g67
(g88
g69
NtRp4887
(dp4888
g72
(dp4889
g92
g93
ssg81
g4883
sg74
(lp4890
S'keywords'
p4891
asbag67
(g88
g69
NtRp4892
(dp4893
g72
(dp4894
g99
g100
ssg81
g4883
sg74
(lp4895
S':'
asbag67
(g88
g69
NtRp4896
(dp4897
g72
(dp4898
sg81
g4883
sg74
(lp4899
g67
(g68
g69
NtRp4900
(dp4901
g72
(dp4902
g80
I4
ssg81
g4896
sg74
(lp4903
S'web2py, python, framework'
p4904
asbasbasbasbasbasbasbag67
(g83
g69
NtRp4905
(dp4906
g72
(dp4907
sg81
g3638
sg74
(lp4908
g67
(g88
g69
NtRp4909
(dp4910
g72
(dp4911
g92
g93
ssg81
g4905
sg74
(lp4912
S'models_to_run'
p4913
asbag67
(g88
g69
NtRp4914
(dp4915
g72
(dp4916
g99
g100
ssg81
g4905
sg74
(lp4917
S':'
asbag67
(g88
g69
NtRp4918
(dp4919
g72
(dp4920
sg81
g4905
sg74
(lp4921
g67
(g68
g69
NtRp4922
(dp4923
g72
(dp4924
g80
I5
ssg81
g4918
sg74
(lp4925
g67
(g76
g69
NtRp4926
(dp4927
g72
(dp4928
g80
I4
ssg81
Nsg74
(lp4929
g67
(g83
g69
NtRp4930
(dp4931
g72
(dp4932
sg81
g4926
sg74
(lp4933
g67
(g88
g69
NtRp4934
(dp4935
g72
(dp4936
sg81
g4930
sg74
(lp4937
g67
(g68
g69
NtRp4938
(dp4939
g72
(dp4940
g80
I4
ssg81
g4934
sg74
(lp4941
S'^\\w+\\.py$'
p4942
asbasbasbag67
(g83
g69
NtRp4943
(dp4944
g72
(dp4945
sg81
g4926
sg74
(lp4946
g67
(g88
g69
NtRp4947
(dp4948
g72
(dp4949
sg81
g4943
sg74
(lp4950
g67
(g68
g69
NtRp4951
(dp4952
g72
(dp4953
g80
I4
ssg81
g4947
sg74
(lp4954
S'^default/\\w+\\.py$'
p4955
asbasbasbag67
(g83
g69
NtRp4956
(dp4957
g72
(dp4958
sg81
g4926
sg74
(lp4959
g67
(g88
g69
NtRp4960
(dp4961
g72
(dp4962
sg81
g4956
sg74
(lp4963
g67
(g68
g69
NtRp4964
(dp4965
g72
(dp4966
g80
I4
ssg81
g4960
sg74
(lp4967
S'^default/index/\\w+\\.py$'
p4968
asbasbasbasbasbasbasbag67
(g83
g69
NtRp4969
(dp4970
g72
(dp4971
sg81
g3638
sg74
(lp4972
g67
(g88
g69
NtRp4973
(dp4974
g72
(dp4975
g92
g93
ssg81
g4969
sg74
(lp4976
S'postprocessing'
p4977
asbag67
(g88
g69
NtRp4978
(dp4979
g72
(dp4980
g99
g100
ssg81
g4969
sg74
(lp4981
S':'
asbag67
(g88
g69
NtRp4982
(dp4983
g72
(dp4984
sg81
g4969
sg74
(lp4985
g67
(g68
g69
NtRp4986
(dp4987
g72
(dp4988
g80
I5
ssg81
g4982
sg74
(lp4989
g67
(g76
g69
NtRp4990
(dp4991
g72
(dp4992
g80
I4
ssg81
Nsg74
(lp4993
sbasbasbasbag67
(g83
g69
NtRp4994
(dp4995
g72
(dp4996
sg81
g3638
sg74
(lp4997
g67
(g88
g69
NtRp4998
(dp4999
g72
(dp5000
g92
g93
ssg81
g4994
sg74
(lp5001
S'session_cookie_expires'
p5002
asbag67
(g88
g69
NtRp5003
(dp5004
g72
(dp5005
g99
g100
ssg81
g4994
sg74
(lp5006
S':'
asbag67
(g88
g69
NtRp5007
(dp5008
g72
(dp5009
sg81
g4994
sg74
(lp5010
g67
(g68
g69
NtRp5011
(dp5012
g72
(dp5013
g80
I5
ssg81
g5007
sg74
(lp5014
S'None'
p5015
asbasbasbag67
(g83
g69
NtRp5016
(dp5017
g72
(dp5018
sg81
g3638
sg74
(lp5019
g67
(g88
g69
NtRp5020
(dp5021
g72
(dp5022
g92
g93
ssg81
g5016
sg74
(lp5023
S'session_data_name'
p5024
asbag67
(g88
g69
NtRp5025
(dp5026
g72
(dp5027
g99
g100
ssg81
g5016
sg74
(lp5028
S':'
asbag67
(g88
g69
NtRp5029
(dp5030
g72
(dp5031
sg81
g5016
sg74
(lp5032
g67
(g68
g69
NtRp5033
(dp5034
g72
(dp5035
g80
I5
ssg81
g5029
sg74
(lp5036
S'session_data_iiit_calendars'
p5037
asbasbasbag67
(g83
g69
NtRp5038
(dp5039
g72
(dp5040
sg81
g3638
sg74
(lp5041
g67
(g88
g69
NtRp5042
(dp5043
g72
(dp5044
g92
g93
ssg81
g5038
sg74
(lp5045
S'session_file'
p5046
asbag67
(g88
g69
NtRp5047
(dp5048
g72
(dp5049
g99
g100
ssg81
g5038
sg74
(lp5050
S':'
asbag67
(g88
g69
NtRp5051
(dp5052
g72
(dp5053
sg81
g5038
sg74
(lp5054
g67
(g68
g69
NtRp5055
(dp5056
g72
(dp5057
g80
I5
ssg81
g5051
sg74
(lp5058
S"<open file '/home/user/Documents/2nd sem/ITWS-2/web2py/applications/IIIT_calendars/sessions/127.0.0.1-ef46ca7d-688b-4464-b69a-9ebd5cac3e72', mode 'rb+' at 0xac88f7b0>"
p5059
asbasbasbag67
(g83
g69
NtRp5060
(dp5061
g72
(dp5062
sg81
g3638
sg74
(lp5063
g67
(g88
g69
NtRp5064
(dp5065
g72
(dp5066
g92
g93
ssg81
g5060
sg74
(lp5067
S'session_filename'
p5068
asbag67
(g88
g69
NtRp5069
(dp5070
g72
(dp5071
g99
g100
ssg81
g5060
sg74
(lp5072
S':'
asbag67
(g88
g69
NtRp5073
(dp5074
g72
(dp5075
sg81
g5060
sg74
(lp5076
g67
(g68
g69
NtRp5077
(dp5078
g72
(dp5079
g80
I5
ssg81
g5073
sg74
(lp5080
S'/home/user/Documents/2nd sem/ITWS-2/web2py/applications/IIIT_calendars/sessions/127.0.0.1-ef46ca7d-688b-4464-b69a-9ebd5cac3e72'
p5081
asbasbasbag67
(g83
g69
NtRp5082
(dp5083
g72
(dp5084
sg81
g3638
sg74
(lp5085
g67
(g88
g69
NtRp5086
(dp5087
g72
(dp5088
g92
g93
ssg81
g5082
sg74
(lp5089
S'session_id'
p5090
asbag67
(g88
g69
NtRp5091
(dp5092
g72
(dp5093
g99
g100
ssg81
g5082
sg74
(lp5094
S':'
asbag67
(g88
g69
NtRp5095
(dp5096
g72
(dp5097
sg81
g5082
sg74
(lp5098
g67
(g68
g69
NtRp5099
(dp5100
g72
(dp5101
g80
I5
ssg81
g5095
sg74
(lp5102
g485
asbasbasbag67
(g83
g69
NtRp5103
(dp5104
g72
(dp5105
sg81
g3638
sg74
(lp5106
g67
(g88
g69
NtRp5107
(dp5108
g72
(dp5109
g92
g93
ssg81
g5103
sg74
(lp5110
S'session_id_name'
p5111
asbag67
(g88
g69
NtRp5112
(dp5113
g72
(dp5114
g99
g100
ssg81
g5103
sg74
(lp5115
S':'
asbag67
(g88
g69
NtRp5116
(dp5117
g72
(dp5118
sg81
g5103
sg74
(lp5119
g67
(g68
g69
NtRp5120
(dp5121
g72
(dp5122
g80
I5
ssg81
g5116
sg74
(lp5123
g3695
asbasbasbag67
(g83
g69
NtRp5124
(dp5125
g72
(dp5126
sg81
g3638
sg74
(lp5127
g67
(g88
g69
NtRp5128
(dp5129
g72
(dp5130
g92
g93
ssg81
g5124
sg74
(lp5131
S'session_locked'
p5132
asbag67
(g88
g69
NtRp5133
(dp5134
g72
(dp5135
g99
g100
ssg81
g5124
sg74
(lp5136
S':'
asbag67
(g88
g69
NtRp5137
(dp5138
g72
(dp5139
sg81
g5124
sg74
(lp5140
g67
(g68
g69
NtRp5141
(dp5142
g72
(dp5143
g80
I5
ssg81
g5137
sg74
(lp5144
g1779
asbasbasbag67
(g83
g69
NtRp5145
(dp5146
g72
(dp5147
sg81
g3638
sg74
(lp5148
g67
(g88
g69
NtRp5149
(dp5150
g72
(dp5151
g92
g93
ssg81
g5145
sg74
(lp5152
S'session_new'
p5153
asbag67
(g88
g69
NtRp5154
(dp5155
g72
(dp5156
g99
g100
ssg81
g5145
sg74
(lp5157
S':'
asbag67
(g88
g69
NtRp5158
(dp5159
g72
(dp5160
sg81
g5145
sg74
(lp5161
g67
(g68
g69
NtRp5162
(dp5163
g72
(dp5164
g80
I5
ssg81
g5158
sg74
(lp5165
g110
asbasbasbag67
(g83
g69
NtRp5166
(dp5167
g72
(dp5168
sg81
g3638
sg74
(lp5169
g67
(g88
g69
NtRp5170
(dp5171
g72
(dp5172
g92
g93
ssg81
g5166
sg74
(lp5173
S'session_storage_type'
p5174
asbag67
(g88
g69
NtRp5175
(dp5176
g72
(dp5177
g99
g100
ssg81
g5166
sg74
(lp5178
S':'
asbag67
(g88
g69
NtRp5179
(dp5180
g72
(dp5181
sg81
g5166
sg74
(lp5182
g67
(g68
g69
NtRp5183
(dp5184
g72
(dp5185
g80
I5
ssg81
g5179
sg74
(lp5186
g3210
asbasbasbag67
(g83
g69
NtRp5187
(dp5188
g72
(dp5189
sg81
g3638
sg74
(lp5190
g67
(g88
g69
NtRp5191
(dp5192
g72
(dp5193
g92
g93
ssg81
g5187
sg74
(lp5194
S'status'
p5195
asbag67
(g88
g69
NtRp5196
(dp5197
g72
(dp5198
g99
g100
ssg81
g5187
sg74
(lp5199
S':'
asbag67
(g88
g69
NtRp5200
(dp5201
g72
(dp5202
sg81
g5187
sg74
(lp5203
g67
(g68
g69
NtRp5204
(dp5205
g72
(dp5206
g80
I5
ssg81
g5200
sg74
(lp5207
S'200'
p5208
asbasbasbag67
(g83
g69
NtRp5209
(dp5210
g72
(dp5211
sg81
g3638
sg74
(lp5212
g67
(g88
g69
NtRp5213
(dp5214
g72
(dp5215
g92
g93
ssg81
g5209
sg74
(lp5216
S'subtitle'
p5217
asbag67
(g88
g69
NtRp5218
(dp5219
g72
(dp5220
g99
g100
ssg81
g5209
sg74
(lp5221
S':'
asbag67
(g88
g69
NtRp5222
(dp5223
g72
(dp5224
sg81
g5209
sg74
(lp5225
g67
(g68
g69
NtRp5226
(dp5227
g72
(dp5228
g80
I5
ssg81
g5222
sg74
(lp5229
g4173
(S's\r\x00\x00\x00customize me!'
tRp5230
asbasbasbag67
(g83
g69
NtRp5231
(dp5232
g72
(dp5233
sg81
g3638
sg74
(lp5234
g67
(g88
g69
NtRp5235
(dp5236
g72
(dp5237
g92
g93
ssg81
g5231
sg74
(lp5238
S'title'
p5239
asbag67
(g88
g69
NtRp5240
(dp5241
g72
(dp5242
g99
g100
ssg81
g5231
sg74
(lp5243
S':'
asbag67
(g88
g69
NtRp5244
(dp5245
g72
(dp5246
sg81
g5231
sg74
(lp5247
g67
(g68
g69
NtRp5248
(dp5249
g72
(dp5250
g80
I5
ssg81
g5244
sg74
(lp5251
S'Iiit Calendars'
p5252
asbasbasbag67
(g83
g69
NtRp5253
(dp5254
g72
(dp5255
sg81
g3638
sg74
(lp5256
g67
(g88
g69
NtRp5257
(dp5258
g72
(dp5259
g92
g93
ssg81
g5253
sg74
(lp5260
S'view'
p5261
asbag67
(g88
g69
NtRp5262
(dp5263
g72
(dp5264
g99
g100
ssg81
g5253
sg74
(lp5265
S':'
asbag67
(g88
g69
NtRp5266
(dp5267
g72
(dp5268
sg81
g5253
sg74
(lp5269
g67
(g68
g69
NtRp5270
(dp5271
g72
(dp5272
g80
I5
ssg81
g5266
sg74
(lp5273
S'default/index.html'
p5274
asbasbasbasbasbsS'locals'
p5275
(dp5276
g4
S"'/home/user/Documents/2nd sem/ITWS-2/web2py/applications/IIIT_calendars/views/default/index.html'"
p5277
sg6
S'\'response.write(\\\'<!DOCTYPE html PUBLIC "-//W3C//D...iv>\\\\r\\\\n\\\\r\\\\n</body>\\\\r\\\\n</html>\\\\r\\\\n\\\', escape=False)\''
p5278
sssS'traceback'
p5279
S'Traceback (most recent call last):\n  File "/home/user/Documents/2nd sem/ITWS-2/web2py/gluon/restricted.py", line 211, in restricted\n    ccode = compile2(code, layer)\n  File "/home/user/Documents/2nd sem/ITWS-2/web2py/gluon/restricted.py", line 194, in compile2\n    return compile(code.rstrip().replace(\'\\r\\n\', \'\\n\') + \'\\n\', layer, \'exec\')\n  File "/home/user/Documents/2nd sem/ITWS-2/web2py/applications/IIIT_calendars/views/default/index.html", line 3\n    response.write(\'" rel="stylesheet" type="text/css" />\\r\\n<!--  Designed by w w w . t e m p l a t e m o . c o m  -->\\r\\n</head>\\r\\n\\r\\n<body>\\r\\n\\r\\n\\t<div id="templatemo_menu_panel">\\r\\n    \\t<div id="templatemo_menu_section">\\r\\n            <ul>\\r\\n                <li><a href="#" class="current">Home</a></li>\\r\\n                <li><a href="#">Photos</a></li>\\r\\n                <li><a href="#">Videos</a></li>\\r\\n                <li><a href="#">Archives</a></li>  \\r\\n                <li><a href="#">Links</a></li> \\r\\n                <li><a href="#">Contact</a></li>                     \\r\\n            </ul> \\r\\n\\t\\t</div>\\r\\n    </div> <!-- end of menu -->\\r\\n\\r\\n\\r\\n<div id="templatemo_header_content_container">\\r\\n    \\r\\n        <div id="templatemo_header_section">\\r\\n            <div id="templatemo_title_section">\\r\\n            GREEN BLOG\\r\\n            </div>\\r\\n            <div id="templatemo_search_section">\\r\\n                <form method="get" action="#">\\r\\n                    <input type="radio" name="search" value="thissite" />this site <input type="radio" name="search" value="theweb" checked="checked" /> the web <br />\\r\\n                    <input type="text" name="q" size="10" id="searchfield" title="searchfield" />\\r\\n                    <input type="submit" name="Search" value="Search" alt="Search" id="searchbutton" title="Search" />\\r\\n                </form>\\r\\n            </div>\\r\\n        </div> <!-- end of templatemo header panel -->\\r\\n      \', escape=False)\n           ^\nSyntaxError: invalid syntax\n'
p5280
s.