(dp1
S'output'
p2
S"<type 'exceptions.IndexError'> list index out of range"
p3
sS'layer'
p4
S'/home/user/Documents/2nd sem/ITWS-2/web2py/applications/IIIT_calendars/controllers/default.py'
p5
sS'code'
p6
S'# -*- coding: utf-8 -*-\n# this file is released under public domain and you can use without limitations\n\n#########################################################################\n## This is a samples controller\n## - index is the default action of any application\n## - user is required for authentication and authorization\n## - download is for downloading files uploaded in the db (does streaming)\n## - call exposes all registered services (none by default)\n#########################################################################\nimport os\nimport datetime\nimport fileinput\n@auth.requires_login()\ndef index():\n   \'auth\' in globals() \n   c=auth.user.id\n   if c==18:\n       redirect(URL(\'admin_op\'))\n   name=auth.user.first_name\n   return locals()\n   \ndef calendar():\n    \'auth\' in globals()\n    e=db(db.events.Nameofuser==auth.user.id).select()\n    t=db(db.tasks.Nameofuser==auth.user.id).select()\n    a=db(db.admin_events.id>0).select()\n    return locals()\n    \ndef user():\n    """\n    exposes:\n    http://..../[app]/default/user/login\n    http://..../[app]/default/user/logout\n    http://..../[app]/default/user/register\n    http://..../[app]/default/user/profile\n    http://..../[app]/default/user/retrieve_password\n    http://..../[app]/default/user/change_password\n    use @auth.requires_login()\n        @auth.requires_membership(\'group name\')\n        @auth.requires_permission(\'read\',\'table name\',record_id)\n    to decorate functions that need access control\n    """\n    return dict(form=auth())\n\n\ndef download():\n    """\n    allows downloading of uploaded files\n    http://..../[app]/default/download/[filename]\n    """\n    return response.download(request, db)\n\n\ndef call():\n    """\n    exposes services. for example:\n    http://..../[app]/default/call/jsonrpc\n    decorate with @services.jsonrpc the functions to expose\n    supports xml, json, xmlrpc, jsonrpc, amfrpc, rss, csv\n    """\n    return service()\n\n\n@auth.requires_signature()\ndef data():\n    """\n    http://..../[app]/default/data/tables\n    http://..../[app]/default/data/create/[table]\n    http://..../[app]/default/data/read/[table]/[id]\n    http://..../[app]/default/data/update/[table]/[id]\n    http://..../[app]/default/data/delete/[table]/[id]\n    http://..../[app]/default/data/select/[table]\n    http://..../[app]/default/data/search/[table]\n    but URLs must be signed, i.e. linked with\n      A(\'table\',_href=URL(\'data/tables\',user_signature=True))\n    or with the signed load operator\n      LOAD(\'default\',\'data.load\',args=\'tables\',ajax=True,user_signature=True)\n    """\n    return dict(form=crud())\n    \ndef add_events():\n    db.events.Nameofuser.default=auth.user.id\n    form=SQLFORM(db.events).process(next=URL(\'default\',\'index\'))\n    if form.process().accepted:\n        response.flash="Done"\n    return locals()\n    \ndef add_tasks():\n    db.tasks.Nameofuser.default=auth.user.id\n    form=SQLFORM(db.tasks).process(next=URL(\'default\',\'index\'))\n    if form.process().accepted:\n        response.flash="Done"\n    return locals()\n    \ndef editeventdetails():\n    form=SQLFORM.factory(\n    Field("event",db.events,requires=IS_IN_DB(db(db.events.Nameofuser.like(auth.user.id)),\'events.id\',\'events.Title\'),required=True,label=\'Select events\'),\n    Field("event_id", writable=False, readable=False))\n    if form.accepts(request.vars,session):\n        form.vars.event_id=form.vars.event\n    #if form.process().accepted:\n        #redirect(URL(\'formedit\',args=form.vars.event_id))\n        redirect(URL(r=request, f=\'formedit?event=%d\' % int(form.vars.event_id)))\n    elif form.errors:\n        response.flash=\'Errors in form\'\n    return locals()\n\n    \ndef edittaskdetails():\n    form=SQLFORM.factory(\n    Field("task",db.tasks,requires=IS_IN_DB(db(db.tasks.Nameofuser.like(auth.user.id)),\'tasks.id\',\'tasks.Title\'),required=True,label=\'Select tasks\'),\n    Field("task_id", writable=False, readable=False))\n    if form.accepts(request.vars,session):\n        form.vars.task_id=form.vars.task\n   # if form.process().accepted:\n        #redirect(URL(\'formedit\',args=form.vars.event_id))\n        redirect(URL(r=request, f=\'formtask?task=%d\' % int(form.vars.task_id)))\n    elif form.errors:\n        response.flash=\'Errors in form\'\n    return locals()\n    \ndef taskdonedetails():\n    form=SQLFORM.factory(\n    Field("task",db.tasks,requires=IS_IN_DB(db(db.tasks.Nameofuser.like(auth.user.id)),\'tasks.id\',\'tasks.Title\'),required=True,label=\'Select tasks\'),\n    Field("task_id", writable=False, readable=False))\n    if form.accepts(request.vars,session):\n        form.vars.task_id=form.vars.task\n# if form.process().accepted:\n#redirect(URL(\'formedit\',args=form.vars.event_id))\n        redirect(URL(r=request, f=\'donetask?task=%d\' % int(form.vars.task_id)))\n    elif form.errors:\n        response.flash=\'Errors in form\'\n    return locals()\n        \ndef donetask():\n    p=request.vars.task\n    db(db.tasks.id == p).update(Completed = \'True\')\n    redirect(URL(\'index\'))\n    return locals()\n    \ndef formedit():\n    c=request.vars.event\n    a=db(db.events.id==c).select()[0]\n    return locals()\n    \ndef formtask():\n    c=request.vars.task\n    a=db(db.tasks.id==c).select()[0]\n    return locals()\n    \ndef edit_events():\n    even=request.vars.e\n    tit=request.post_vars.Tit\n    des=request.post_vars.Des\n    stad=request.post_vars.Stad\n    eve=request.post_vars.Eve\n    sta=request.post_vars.Sta\n    end=request.post_vars.End\n    all_=request.post_vars.All\n    ven=request.post_vars.Ven\n    db(db.events.Title == even).update(Title = tit,Description = des,Startdate=stad,Enddate = eve,Starttime = sta,Endtime=end,All_day=all_,Venue=ven)\n    #db(db.events.Title == even).update(Description = des)\n    c=db(db.events.Title == even).select()\n    redirect(URL(\'index\'))\n    return locals()\n    \ndef edit_tasks():\n    even=request.vars.e\n    tit=request.post_vars.Tit\n    des=request.post_vars.Des\n    deadd=request.post_vars.DeadD\n    deadt=request.post_vars.DeadT\n    com=request.post_vars.Com\n    #all_=request.post_vars.Com\n    ven=request.post_vars.Ven\n    db(db.tasks.Title == even).update(Title = tit,Description = des,DeadlineDate = deadd,DeadlineTime = deadt,Completed=com,Venue=ven)\n    #db(db.events.Title == even).update(Description = des)\n    c=db(db.tasks.Title == even).select()\n    redirect(URL(\'index\'))\n    return locals()\n    \n#def edit_tasks():\n #   even=request.vars.e\n  #  tit=request.post_vars.Tit\n   # des=request.post_vars.Des\n    #eve=request.post_vars.Eve\n    #sta=request.post_vars.Sta\n    #end=request.post_vars.End\n    #all_=request.post_vars.All\n    #ven=request.post_vars.Ven\n    #db(db.tasks.Title == even).update(Title = tit,Description = des,Eventdate = eve,Starttime = sta,Endtime=end,All_day=all_,Venue=ven)\n    #db(db.events.Title == even).update(Description = des)\n    #c=db(db.tasks.Title == even).select()\n    #return locals()\n#def edit_events2():\n    #form = SQLFORM(db.events, request.vars.event)\n    #if form.accepts(request.vars, session):\n        #redirect("index")\n    #elif form.errors:\n        #response.flash = "temp"\n    #return dict(form=form)\n\ndef delete_eventdetails():\n    form=SQLFORM.factory(\n    Field("event",db.events,requires=IS_IN_DB(db(db.events.Nameofuser.like(auth.user.id)),\'events.id\',\'events.Title\'),required=True,label=\'Select events\'),\n    Field("event_id", writable=False, readable=False))\n    if form.accepts(request.vars,session):\n        form.vars.event_id=form.vars.event\n    #if form.process().accepted:\n        #redirect(URL(\'formedit\',args=form.vars.event_id))\n        redirect(URL(r=request, f=\'delete_event?event=%d\' % int(form.vars.event_id)))\n    elif form.errors:\n        response.flash=\'Errors in form\'\n    return locals()\n\ndef delete_event():\n    c=request.vars.event\n    crud.delete(db.events,c,next=URL(r=request,f=\'index\'))\n    return locals()\n    \ndef admin_op():\n    c=auth.user.first_name\n    p=db(db.auth_user.id!=18).select(db.auth_user.first_name,db.auth_user.id)\n    return locals()\n\n#def edit_events():\n #  c=request.post_vars\n  #  \n   \n   # p=db(db.events.Title==request.post_vars.event).select().first()\n    #    form = SQLFORM(db.events, i.id)\n     #   if form.accepts(request.vars,session):\n      #      redirect(URL(\'index\'))\n       # elif form.errors:\n        #    response.flash=\'Errors in form\'\n    #return dict(form=form)\nimport datetime\ndef sendmail():\n    da=request.now.date()\n    p=db((db.events.Startdate==da) and (db.events.Nameofuser==db.auth_user.id)).select(db.auth_user.email,db.events.ALL)\n    print p\n    #for i in p:\n     #   mail.send(\'gurniamat.kaur@students.iiit.ac.in\', subject=\'Event Reminder\', message=\'hi\')\n    redirect(URL(\'admin_op\'))\n\ndef add_adminevents():\n    form=SQLFORM(db.admin_events).process(next=URL(\'default\',\'admin_op\'))\n    return locals()\n    \ndef editadmineventdetails():\n    form=SQLFORM.factory(\n    Field("admin_event",db.admin_events,requires=IS_IN_DB(db,\'admin_events.id\',\'admin_events.Title\'),required=True,label=\'Select tasks\'),\n    Field("adminevent_id", writable=False, readable=False))\n    if form.accepts(request.vars,session):\n        form.vars.adminevent_id=form.vars.admin_event\n   # if form.process().accepted:\n        #redirect(URL(\'formedit\',args=form.vars.event_id))\n        redirect(URL(r=request, f=\'formedit_admin?admin_event=%d\' % int(form.vars.adminevent_id)))\n    elif form.errors:\n        response.flash=\'Errors in form\'\n    return locals()\n    \ndef formedit_admin():\n    c=request.vars.admin_event\n    a=db(db.admin_events.id==c).select()[0]\n    return locals()\n    \ndef edit_adminevents():\n    even=request.vars.e\n    tit=request.post_vars.Tit\n    des=request.post_vars.Des\n    stad=request.post_vars.Stad\n    eve=request.post_vars.Eve\n    sta=request.post_vars.Sta\n    end=request.post_vars.End\n    all_=request.post_vars.All\n    ven=request.post_vars.Ven\n    db(db.admin_events.Title == even).update(Title = tit,Description = des,Startdate=stad,Enddate = eve,Starttime = sta,Endtime=end,All_day=all_,Venue=ven)\n    #db(db.events.Title == even).update(Description = des)\n    c=db(db.admin_events.Title == even).select()\n    redirect(URL(\'admin_op\'))\n    return locals()\n     \ndef admin_calendar():\n    c=request.post_vars.username\n    q=db(db.auth_user.id==int(c)).select(db.auth_user.first_name)[0]\n    e=db(db.events.Nameofuser==int(c)).select()\n    t=db(db.tasks.Nameofuser==int(c)).select()\n    a=db(db.admin_events.id>0).select()\n    return locals()\n    \ndef deleteadmineventdetails():\n    form=SQLFORM.factory(\n    Field("admin_event",db.admin_events,requires=IS_IN_DB(db,\'admin_events.id\',\'admin_events.Title\'),required=True,label=\'Select events\'),\n    Field("adminevent_id", writable=False, readable=False))\n    if form.accepts(request.vars,session):\n        form.vars.adminevent_id=form.vars.admin_event\n    #if form.process().accepted:\n        #redirect(URL(\'formedit\',args=form.vars.event_id))\n        redirect(URL(r=request, f=\'delete_adminevent?event=%d\' % int(form.vars.adminevent_id)))\n    elif form.errors:\n        response.flash=\'Errors in form\'\n    return locals()\n\n\ndef delete_adminevent():\n    c=request.vars.event\n    crud.delete(db.admin_events,c,next=URL(r=request,f=\'admin_op\'))\n    return locals()\n\n\ndef delete_taskdetails():\n    form=SQLFORM.factory(\n    Field("task",db.tasks,requires=IS_IN_DB(db(db.tasks.Nameofuser.like(auth.user.id)),\'tasks.id\',\'tasks.Title\'),required=True,label=\'Select tasks\'),\n    Field("task_id", writable=False, readable=False))\n    if form.accepts(request.vars,session):\n        form.vars.task_id=form.vars.task\n   # if form.process().accepted:\n        #redirect(URL(\'formedit\',args=form.vars.event_id))\n        redirect(URL(r=request, f=\'delete_task?task=%d\' % int(form.vars.task_id)))\n    elif form.errors:\n        response.flash=\'Errors in form\'\n    return locals()\n\ndef delete_task():\n    c=request.vars.task\n    crud.delete(db.tasks,c,next=URL(r=request,f=\'index\'))\n    return locals()\n\ndef taskstat():\n    \'auth\' in globals()\n    t=db(db.tasks.Nameofuser==auth.user.id).select()\n    length=len(t)\n    coun=0\n    for i in t:\n        if i[\'Completed\']==True:\n            coun=coun+1\n        if length==0:\n            per=0\n    per=coun/length*100\n    return locals()\n\nresponse._vars=response._caller(formedit)\n'
p7
sS'snapshot'
p8
(dp9
S'exception'
p10
(dp11
S'__hash__'
p12
S"<method-wrapper '__hash__' of exceptions.IndexError object>"
p13
sS'__setattr__'
p14
S"<method-wrapper '__setattr__' of exceptions.IndexError object>"
p15
sS'__reduce_ex__'
p16
S'<built-in method __reduce_ex__ of exceptions.IndexError object>'
p17
sS'__getslice__'
p18
S"<method-wrapper '__getslice__' of exceptions.IndexError object>"
p19
sS'__getitem__'
p20
S"<method-wrapper '__getitem__' of exceptions.IndexError object>"
p21
sS'__setstate__'
p22
S'<built-in method __setstate__ of exceptions.IndexError object>'
p23
sS'__reduce__'
p24
S'<built-in method __reduce__ of exceptions.IndexError object>'
p25
sS'__str__'
p26
S"<method-wrapper '__str__' of exceptions.IndexError object>"
p27
sS'__format__'
p28
S'<built-in method __format__ of exceptions.IndexError object>'
p29
sS'__getattribute__'
p30
S"<method-wrapper '__getattribute__' of exceptions.IndexError object>"
p31
sS'__class__'
p32
S"<type 'exceptions.IndexError'>"
p33
sS'__unicode__'
p34
S'<built-in method __unicode__ of exceptions.IndexError object>'
p35
sS'__delattr__'
p36
S"<method-wrapper '__delattr__' of exceptions.IndexError object>"
p37
sS'__subclasshook__'
p38
S'<built-in method __subclasshook__ of type object>'
p39
sS'__repr__'
p40
S"<method-wrapper '__repr__' of exceptions.IndexError object>"
p41
sS'args'
p42
S"('list index out of range',)"
p43
sS'__dict__'
p44
S'{}'
p45
sS'__sizeof__'
p46
S'<built-in method __sizeof__ of exceptions.IndexError object>'
p47
sS'__doc__'
p48
S"'Sequence index out of range.'"
p49
sS'__init__'
p50
S"<method-wrapper '__init__' of exceptions.IndexError object>"
p51
sS'__new__'
p52
S'<built-in method __new__ of type object>'
p53
ssS'evalue'
p54
S'list index out of range'
p55
sS'request'
p56
ccopy_reg
_reconstructor
p57
(cgluon.html
BEAUTIFY
p58
c__builtin__
object
p59
NtRp60
(dp61
S'attributes'
p62
(dp63
sS'components'
p64
(lp65
g57
(cgluon.html
TABLE
p66
g59
NtRp67
(dp68
g62
(dp69
S'level'
p70
I5
ssS'parent'
p71
Nsg64
(lp72
g57
(cgluon.html
TR
p73
g59
NtRp74
(dp75
g62
(dp76
sg71
g67
sg64
(lp77
g57
(cgluon.html
TD
p78
g59
NtRp79
(dp80
g62
(dp81
S'_style'
p82
S'font-weight:bold;vertical-align:top'
p83
ssg71
g74
sg64
(lp84
S'ajax'
p85
asbag57
(g78
g59
NtRp86
(dp87
g62
(dp88
S'_valign'
p89
S'top'
p90
ssg71
g74
sg64
(lp91
S':'
asbag57
(g78
g59
NtRp92
(dp93
g62
(dp94
sg71
g74
sg64
(lp95
g57
(g58
g59
NtRp96
(dp97
g62
(dp98
g70
I5
ssg71
g92
sg64
(lp99
S'False'
p100
asbasbasbag57
(g73
g59
NtRp101
(dp102
g62
(dp103
sg71
g67
sg64
(lp104
g57
(g78
g59
NtRp105
(dp106
g62
(dp107
g82
g83
ssg71
g101
sg64
(lp108
S'application'
p109
asbag57
(g78
g59
NtRp110
(dp111
g62
(dp112
g89
g90
ssg71
g101
sg64
(lp113
S':'
asbag57
(g78
g59
NtRp114
(dp115
g62
(dp116
sg71
g101
sg64
(lp117
g57
(g58
g59
NtRp118
(dp119
g62
(dp120
g70
I5
ssg71
g114
sg64
(lp121
S'IIIT_calendars'
p122
asbasbasbag57
(g73
g59
NtRp123
(dp124
g62
(dp125
sg71
g67
sg64
(lp126
g57
(g78
g59
NtRp127
(dp128
g62
(dp129
g82
g83
ssg71
g123
sg64
(lp130
g42
asbag57
(g78
g59
NtRp131
(dp132
g62
(dp133
g89
g90
ssg71
g123
sg64
(lp134
S':'
asbag57
(g78
g59
NtRp135
(dp136
g62
(dp137
sg71
g123
sg64
(lp138
g57
(g58
g59
NtRp139
(dp140
g62
(dp141
g70
I5
ssg71
g135
sg64
(lp142
g57
(g66
g59
NtRp143
(dp144
g62
(dp145
g70
I4
ssg71
Nsg64
(lp146
sbasbasbasbag57
(g73
g59
NtRp147
(dp148
g62
(dp149
sg71
g67
sg64
(lp150
g57
(g78
g59
NtRp151
(dp152
g62
(dp153
g82
g83
ssg71
g147
sg64
(lp154
S'body'
p155
asbag57
(g78
g59
NtRp156
(dp157
g62
(dp158
g89
g90
ssg71
g147
sg64
(lp159
S':'
asbag57
(g78
g59
NtRp160
(dp161
g62
(dp162
sg71
g147
sg64
(lp163
g57
(g58
g59
NtRp164
(dp165
g62
(dp166
g70
I5
ssg71
g160
sg64
(lp167
S'<cStringIO.StringO object at 0xad113bc0>'
p168
asbasbasbag57
(g73
g59
NtRp169
(dp170
g62
(dp171
sg71
g67
sg64
(lp172
g57
(g78
g59
NtRp173
(dp174
g62
(dp175
g82
g83
ssg71
g169
sg64
(lp176
S'cid'
p177
asbag57
(g78
g59
NtRp178
(dp179
g62
(dp180
g89
g90
ssg71
g169
sg64
(lp181
S':'
asbag57
(g78
g59
NtRp182
(dp183
g62
(dp184
sg71
g169
sg64
(lp185
g57
(g58
g59
NtRp186
(dp187
g62
(dp188
g70
I5
ssg71
g182
sg64
(lp189
S'None'
p190
asbasbasbag57
(g73
g59
NtRp191
(dp192
g62
(dp193
sg71
g67
sg64
(lp194
g57
(g78
g59
NtRp195
(dp196
g62
(dp197
g82
g83
ssg71
g191
sg64
(lp198
S'client'
p199
asbag57
(g78
g59
NtRp200
(dp201
g62
(dp202
g89
g90
ssg71
g191
sg64
(lp203
S':'
asbag57
(g78
g59
NtRp204
(dp205
g62
(dp206
sg71
g191
sg64
(lp207
g57
(g58
g59
NtRp208
(dp209
g62
(dp210
g70
I5
ssg71
g204
sg64
(lp211
S'127.0.0.1'
p212
asbasbasbag57
(g73
g59
NtRp213
(dp214
g62
(dp215
sg71
g67
sg64
(lp216
g57
(g78
g59
NtRp217
(dp218
g62
(dp219
g82
g83
ssg71
g213
sg64
(lp220
S'controller'
p221
asbag57
(g78
g59
NtRp222
(dp223
g62
(dp224
g89
g90
ssg71
g213
sg64
(lp225
S':'
asbag57
(g78
g59
NtRp226
(dp227
g62
(dp228
sg71
g213
sg64
(lp229
g57
(g58
g59
NtRp230
(dp231
g62
(dp232
g70
I5
ssg71
g226
sg64
(lp233
S'default'
p234
asbasbasbag57
(g73
g59
NtRp235
(dp236
g62
(dp237
sg71
g67
sg64
(lp238
g57
(g78
g59
NtRp239
(dp240
g62
(dp241
g82
g83
ssg71
g235
sg64
(lp242
S'cookies'
p243
asbag57
(g78
g59
NtRp244
(dp245
g62
(dp246
g89
g90
ssg71
g235
sg64
(lp247
S':'
asbag57
(g78
g59
NtRp248
(dp249
g62
(dp250
sg71
g235
sg64
(lp251
g57
(g58
g59
NtRp252
(dp253
g62
(dp254
g70
I5
ssg71
g248
sg64
(lp255
g57
(g66
g59
NtRp256
(dp257
g62
(dp258
g70
I4
ssg71
Nsg64
(lp259
g57
(g73
g59
NtRp260
(dp261
g62
(dp262
sg71
g256
sg64
(lp263
g57
(g78
g59
NtRp264
(dp265
g62
(dp266
g82
g83
ssg71
g260
sg64
(lp267
S'session_id_admin'
p268
asbag57
(g78
g59
NtRp269
(dp270
g62
(dp271
g89
g90
ssg71
g260
sg64
(lp272
S':'
asbag57
(g78
g59
NtRp273
(dp274
g62
(dp275
sg71
g260
sg64
(lp276
g57
(g58
g59
NtRp277
(dp278
g62
(dp279
g70
I4
ssg71
g273
sg64
(lp280
S'127.0.0.1-4dce593b-3ad4-4a81-8348-9b4d15fe4a1b'
p281
ag57
(g66
g59
NtRp282
(dp283
g62
(dp284
g70
I3
ssg71
Nsg64
(lp285
g57
(g73
g59
NtRp286
(dp287
g62
(dp288
sg71
g282
sg64
(lp289
g57
(g78
g59
NtRp290
(dp291
g62
(dp292
g82
g83
ssg71
g286
sg64
(lp293
S'comment'
p294
asbag57
(g78
g59
NtRp295
(dp296
g62
(dp297
g89
g90
ssg71
g286
sg64
(lp298
S':'
asbag57
(g78
g59
NtRp299
(dp300
g62
(dp301
sg71
g286
sg64
(lp302
g57
(g58
g59
NtRp303
(dp304
g62
(dp305
g70
I3
ssg71
g299
sg64
(lp306
S''
asbasbasbag57
(g73
g59
NtRp307
(dp308
g62
(dp309
sg71
g282
sg64
(lp310
g57
(g78
g59
NtRp311
(dp312
g62
(dp313
g82
g83
ssg71
g307
sg64
(lp314
S'domain'
p315
asbag57
(g78
g59
NtRp316
(dp317
g62
(dp318
g89
g90
ssg71
g307
sg64
(lp319
S':'
asbag57
(g78
g59
NtRp320
(dp321
g62
(dp322
sg71
g307
sg64
(lp323
g57
(g58
g59
NtRp324
(dp325
g62
(dp326
g70
I3
ssg71
g320
sg64
(lp327
S''
asbasbasbag57
(g73
g59
NtRp328
(dp329
g62
(dp330
sg71
g282
sg64
(lp331
g57
(g78
g59
NtRp332
(dp333
g62
(dp334
g82
g83
ssg71
g328
sg64
(lp335
S'expires'
p336
asbag57
(g78
g59
NtRp337
(dp338
g62
(dp339
g89
g90
ssg71
g328
sg64
(lp340
S':'
asbag57
(g78
g59
NtRp341
(dp342
g62
(dp343
sg71
g328
sg64
(lp344
g57
(g58
g59
NtRp345
(dp346
g62
(dp347
g70
I3
ssg71
g341
sg64
(lp348
S''
asbasbasbag57
(g73
g59
NtRp349
(dp350
g62
(dp351
sg71
g282
sg64
(lp352
g57
(g78
g59
NtRp353
(dp354
g62
(dp355
g82
g83
ssg71
g349
sg64
(lp356
S'httponly'
p357
asbag57
(g78
g59
NtRp358
(dp359
g62
(dp360
g89
g90
ssg71
g349
sg64
(lp361
S':'
asbag57
(g78
g59
NtRp362
(dp363
g62
(dp364
sg71
g349
sg64
(lp365
g57
(g58
g59
NtRp366
(dp367
g62
(dp368
g70
I3
ssg71
g362
sg64
(lp369
S''
asbasbasbag57
(g73
g59
NtRp370
(dp371
g62
(dp372
sg71
g282
sg64
(lp373
g57
(g78
g59
NtRp374
(dp375
g62
(dp376
g82
g83
ssg71
g370
sg64
(lp377
S'max-age'
p378
asbag57
(g78
g59
NtRp379
(dp380
g62
(dp381
g89
g90
ssg71
g370
sg64
(lp382
S':'
asbag57
(g78
g59
NtRp383
(dp384
g62
(dp385
sg71
g370
sg64
(lp386
g57
(g58
g59
NtRp387
(dp388
g62
(dp389
g70
I3
ssg71
g383
sg64
(lp390
S''
asbasbasbag57
(g73
g59
NtRp391
(dp392
g62
(dp393
sg71
g282
sg64
(lp394
g57
(g78
g59
NtRp395
(dp396
g62
(dp397
g82
g83
ssg71
g391
sg64
(lp398
S'path'
p399
asbag57
(g78
g59
NtRp400
(dp401
g62
(dp402
g89
g90
ssg71
g391
sg64
(lp403
S':'
asbag57
(g78
g59
NtRp404
(dp405
g62
(dp406
sg71
g391
sg64
(lp407
g57
(g58
g59
NtRp408
(dp409
g62
(dp410
g70
I3
ssg71
g404
sg64
(lp411
S''
asbasbasbag57
(g73
g59
NtRp412
(dp413
g62
(dp414
sg71
g282
sg64
(lp415
g57
(g78
g59
NtRp416
(dp417
g62
(dp418
g82
g83
ssg71
g412
sg64
(lp419
S'secure'
p420
asbag57
(g78
g59
NtRp421
(dp422
g62
(dp423
g89
g90
ssg71
g412
sg64
(lp424
S':'
asbag57
(g78
g59
NtRp425
(dp426
g62
(dp427
sg71
g412
sg64
(lp428
g57
(g58
g59
NtRp429
(dp430
g62
(dp431
g70
I3
ssg71
g425
sg64
(lp432
S''
asbasbasbag57
(g73
g59
NtRp433
(dp434
g62
(dp435
sg71
g282
sg64
(lp436
g57
(g78
g59
NtRp437
(dp438
g62
(dp439
g82
g83
ssg71
g433
sg64
(lp440
S'version'
p441
asbag57
(g78
g59
NtRp442
(dp443
g62
(dp444
g89
g90
ssg71
g433
sg64
(lp445
S':'
asbag57
(g78
g59
NtRp446
(dp447
g62
(dp448
sg71
g433
sg64
(lp449
g57
(g58
g59
NtRp450
(dp451
g62
(dp452
g70
I3
ssg71
g446
sg64
(lp453
S''
asbasbasbasbasbasbasbag57
(g73
g59
NtRp454
(dp455
g62
(dp456
sg71
g256
sg64
(lp457
g57
(g78
g59
NtRp458
(dp459
g62
(dp460
g82
g83
ssg71
g454
sg64
(lp461
S'session_id_iiit_calendars'
p462
asbag57
(g78
g59
NtRp463
(dp464
g62
(dp465
g89
g90
ssg71
g454
sg64
(lp466
S':'
asbag57
(g78
g59
NtRp467
(dp468
g62
(dp469
sg71
g454
sg64
(lp470
g57
(g58
g59
NtRp471
(dp472
g62
(dp473
g70
I4
ssg71
g467
sg64
(lp474
S'127.0.0.1-c725406e-a78b-4874-862b-2d9dbd976271'
p475
ag57
(g66
g59
NtRp476
(dp477
g62
(dp478
g70
I3
ssg71
Nsg64
(lp479
g57
(g73
g59
NtRp480
(dp481
g62
(dp482
sg71
g476
sg64
(lp483
g57
(g78
g59
NtRp484
(dp485
g62
(dp486
g82
g83
ssg71
g480
sg64
(lp487
g294
asbag57
(g78
g59
NtRp488
(dp489
g62
(dp490
g89
g90
ssg71
g480
sg64
(lp491
S':'
asbag57
(g78
g59
NtRp492
(dp493
g62
(dp494
sg71
g480
sg64
(lp495
g57
(g58
g59
NtRp496
(dp497
g62
(dp498
g70
I3
ssg71
g492
sg64
(lp499
S''
asbasbasbag57
(g73
g59
NtRp500
(dp501
g62
(dp502
sg71
g476
sg64
(lp503
g57
(g78
g59
NtRp504
(dp505
g62
(dp506
g82
g83
ssg71
g500
sg64
(lp507
g315
asbag57
(g78
g59
NtRp508
(dp509
g62
(dp510
g89
g90
ssg71
g500
sg64
(lp511
S':'
asbag57
(g78
g59
NtRp512
(dp513
g62
(dp514
sg71
g500
sg64
(lp515
g57
(g58
g59
NtRp516
(dp517
g62
(dp518
g70
I3
ssg71
g512
sg64
(lp519
S''
asbasbasbag57
(g73
g59
NtRp520
(dp521
g62
(dp522
sg71
g476
sg64
(lp523
g57
(g78
g59
NtRp524
(dp525
g62
(dp526
g82
g83
ssg71
g520
sg64
(lp527
g336
asbag57
(g78
g59
NtRp528
(dp529
g62
(dp530
g89
g90
ssg71
g520
sg64
(lp531
S':'
asbag57
(g78
g59
NtRp532
(dp533
g62
(dp534
sg71
g520
sg64
(lp535
g57
(g58
g59
NtRp536
(dp537
g62
(dp538
g70
I3
ssg71
g532
sg64
(lp539
S''
asbasbasbag57
(g73
g59
NtRp540
(dp541
g62
(dp542
sg71
g476
sg64
(lp543
g57
(g78
g59
NtRp544
(dp545
g62
(dp546
g82
g83
ssg71
g540
sg64
(lp547
g357
asbag57
(g78
g59
NtRp548
(dp549
g62
(dp550
g89
g90
ssg71
g540
sg64
(lp551
S':'
asbag57
(g78
g59
NtRp552
(dp553
g62
(dp554
sg71
g540
sg64
(lp555
g57
(g58
g59
NtRp556
(dp557
g62
(dp558
g70
I3
ssg71
g552
sg64
(lp559
S''
asbasbasbag57
(g73
g59
NtRp560
(dp561
g62
(dp562
sg71
g476
sg64
(lp563
g57
(g78
g59
NtRp564
(dp565
g62
(dp566
g82
g83
ssg71
g560
sg64
(lp567
g378
asbag57
(g78
g59
NtRp568
(dp569
g62
(dp570
g89
g90
ssg71
g560
sg64
(lp571
S':'
asbag57
(g78
g59
NtRp572
(dp573
g62
(dp574
sg71
g560
sg64
(lp575
g57
(g58
g59
NtRp576
(dp577
g62
(dp578
g70
I3
ssg71
g572
sg64
(lp579
S''
asbasbasbag57
(g73
g59
NtRp580
(dp581
g62
(dp582
sg71
g476
sg64
(lp583
g57
(g78
g59
NtRp584
(dp585
g62
(dp586
g82
g83
ssg71
g580
sg64
(lp587
g399
asbag57
(g78
g59
NtRp588
(dp589
g62
(dp590
g89
g90
ssg71
g580
sg64
(lp591
S':'
asbag57
(g78
g59
NtRp592
(dp593
g62
(dp594
sg71
g580
sg64
(lp595
g57
(g58
g59
NtRp596
(dp597
g62
(dp598
g70
I3
ssg71
g592
sg64
(lp599
S''
asbasbasbag57
(g73
g59
NtRp600
(dp601
g62
(dp602
sg71
g476
sg64
(lp603
g57
(g78
g59
NtRp604
(dp605
g62
(dp606
g82
g83
ssg71
g600
sg64
(lp607
g420
asbag57
(g78
g59
NtRp608
(dp609
g62
(dp610
g89
g90
ssg71
g600
sg64
(lp611
S':'
asbag57
(g78
g59
NtRp612
(dp613
g62
(dp614
sg71
g600
sg64
(lp615
g57
(g58
g59
NtRp616
(dp617
g62
(dp618
g70
I3
ssg71
g612
sg64
(lp619
S''
asbasbasbag57
(g73
g59
NtRp620
(dp621
g62
(dp622
sg71
g476
sg64
(lp623
g57
(g78
g59
NtRp624
(dp625
g62
(dp626
g82
g83
ssg71
g620
sg64
(lp627
g441
asbag57
(g78
g59
NtRp628
(dp629
g62
(dp630
g89
g90
ssg71
g620
sg64
(lp631
S':'
asbag57
(g78
g59
NtRp632
(dp633
g62
(dp634
sg71
g620
sg64
(lp635
g57
(g58
g59
NtRp636
(dp637
g62
(dp638
g70
I3
ssg71
g632
sg64
(lp639
S''
asbasbasbasbasbasbasbag57
(g73
g59
NtRp640
(dp641
g62
(dp642
sg71
g256
sg64
(lp643
g57
(g78
g59
NtRp644
(dp645
g62
(dp646
g82
g83
ssg71
g640
sg64
(lp647
S'session_id_welcome'
p648
asbag57
(g78
g59
NtRp649
(dp650
g62
(dp651
g89
g90
ssg71
g640
sg64
(lp652
S':'
asbag57
(g78
g59
NtRp653
(dp654
g62
(dp655
sg71
g640
sg64
(lp656
g57
(g58
g59
NtRp657
(dp658
g62
(dp659
g70
I4
ssg71
g653
sg64
(lp660
S'127.0.0.1-3e6e5b98-ebfe-4fa1-b395-4d171ac7a93a'
p661
ag57
(g66
g59
NtRp662
(dp663
g62
(dp664
g70
I3
ssg71
Nsg64
(lp665
g57
(g73
g59
NtRp666
(dp667
g62
(dp668
sg71
g662
sg64
(lp669
g57
(g78
g59
NtRp670
(dp671
g62
(dp672
g82
g83
ssg71
g666
sg64
(lp673
g294
asbag57
(g78
g59
NtRp674
(dp675
g62
(dp676
g89
g90
ssg71
g666
sg64
(lp677
S':'
asbag57
(g78
g59
NtRp678
(dp679
g62
(dp680
sg71
g666
sg64
(lp681
g57
(g58
g59
NtRp682
(dp683
g62
(dp684
g70
I3
ssg71
g678
sg64
(lp685
S''
asbasbasbag57
(g73
g59
NtRp686
(dp687
g62
(dp688
sg71
g662
sg64
(lp689
g57
(g78
g59
NtRp690
(dp691
g62
(dp692
g82
g83
ssg71
g686
sg64
(lp693
g315
asbag57
(g78
g59
NtRp694
(dp695
g62
(dp696
g89
g90
ssg71
g686
sg64
(lp697
S':'
asbag57
(g78
g59
NtRp698
(dp699
g62
(dp700
sg71
g686
sg64
(lp701
g57
(g58
g59
NtRp702
(dp703
g62
(dp704
g70
I3
ssg71
g698
sg64
(lp705
S''
asbasbasbag57
(g73
g59
NtRp706
(dp707
g62
(dp708
sg71
g662
sg64
(lp709
g57
(g78
g59
NtRp710
(dp711
g62
(dp712
g82
g83
ssg71
g706
sg64
(lp713
g336
asbag57
(g78
g59
NtRp714
(dp715
g62
(dp716
g89
g90
ssg71
g706
sg64
(lp717
S':'
asbag57
(g78
g59
NtRp718
(dp719
g62
(dp720
sg71
g706
sg64
(lp721
g57
(g58
g59
NtRp722
(dp723
g62
(dp724
g70
I3
ssg71
g718
sg64
(lp725
S''
asbasbasbag57
(g73
g59
NtRp726
(dp727
g62
(dp728
sg71
g662
sg64
(lp729
g57
(g78
g59
NtRp730
(dp731
g62
(dp732
g82
g83
ssg71
g726
sg64
(lp733
g357
asbag57
(g78
g59
NtRp734
(dp735
g62
(dp736
g89
g90
ssg71
g726
sg64
(lp737
S':'
asbag57
(g78
g59
NtRp738
(dp739
g62
(dp740
sg71
g726
sg64
(lp741
g57
(g58
g59
NtRp742
(dp743
g62
(dp744
g70
I3
ssg71
g738
sg64
(lp745
S''
asbasbasbag57
(g73
g59
NtRp746
(dp747
g62
(dp748
sg71
g662
sg64
(lp749
g57
(g78
g59
NtRp750
(dp751
g62
(dp752
g82
g83
ssg71
g746
sg64
(lp753
g378
asbag57
(g78
g59
NtRp754
(dp755
g62
(dp756
g89
g90
ssg71
g746
sg64
(lp757
S':'
asbag57
(g78
g59
NtRp758
(dp759
g62
(dp760
sg71
g746
sg64
(lp761
g57
(g58
g59
NtRp762
(dp763
g62
(dp764
g70
I3
ssg71
g758
sg64
(lp765
S''
asbasbasbag57
(g73
g59
NtRp766
(dp767
g62
(dp768
sg71
g662
sg64
(lp769
g57
(g78
g59
NtRp770
(dp771
g62
(dp772
g82
g83
ssg71
g766
sg64
(lp773
g399
asbag57
(g78
g59
NtRp774
(dp775
g62
(dp776
g89
g90
ssg71
g766
sg64
(lp777
S':'
asbag57
(g78
g59
NtRp778
(dp779
g62
(dp780
sg71
g766
sg64
(lp781
g57
(g58
g59
NtRp782
(dp783
g62
(dp784
g70
I3
ssg71
g778
sg64
(lp785
S''
asbasbasbag57
(g73
g59
NtRp786
(dp787
g62
(dp788
sg71
g662
sg64
(lp789
g57
(g78
g59
NtRp790
(dp791
g62
(dp792
g82
g83
ssg71
g786
sg64
(lp793
g420
asbag57
(g78
g59
NtRp794
(dp795
g62
(dp796
g89
g90
ssg71
g786
sg64
(lp797
S':'
asbag57
(g78
g59
NtRp798
(dp799
g62
(dp800
sg71
g786
sg64
(lp801
g57
(g58
g59
NtRp802
(dp803
g62
(dp804
g70
I3
ssg71
g798
sg64
(lp805
S''
asbasbasbag57
(g73
g59
NtRp806
(dp807
g62
(dp808
sg71
g662
sg64
(lp809
g57
(g78
g59
NtRp810
(dp811
g62
(dp812
g82
g83
ssg71
g806
sg64
(lp813
g441
asbag57
(g78
g59
NtRp814
(dp815
g62
(dp816
g89
g90
ssg71
g806
sg64
(lp817
S':'
asbag57
(g78
g59
NtRp818
(dp819
g62
(dp820
sg71
g806
sg64
(lp821
g57
(g58
g59
NtRp822
(dp823
g62
(dp824
g70
I3
ssg71
g818
sg64
(lp825
S''
asbasbasbasbasbasbasbasbasbasbasbag57
(g73
g59
NtRp826
(dp827
g62
(dp828
sg71
g67
sg64
(lp829
g57
(g78
g59
NtRp830
(dp831
g62
(dp832
g82
g83
ssg71
g826
sg64
(lp833
S'env'
p834
asbag57
(g78
g59
NtRp835
(dp836
g62
(dp837
g89
g90
ssg71
g826
sg64
(lp838
S':'
asbag57
(g78
g59
NtRp839
(dp840
g62
(dp841
sg71
g826
sg64
(lp842
g57
(g58
g59
NtRp843
(dp844
g62
(dp845
g70
I5
ssg71
g839
sg64
(lp846
g57
(g66
g59
NtRp847
(dp848
g62
(dp849
g70
I4
ssg71
Nsg64
(lp850
g57
(g73
g59
NtRp851
(dp852
g62
(dp853
sg71
g847
sg64
(lp854
g57
(g78
g59
NtRp855
(dp856
g62
(dp857
g82
g83
ssg71
g851
sg64
(lp858
S'app_folders'
p859
asbag57
(g78
g59
NtRp860
(dp861
g62
(dp862
g89
g90
ssg71
g851
sg64
(lp863
S':'
asbag57
(g78
g59
NtRp864
(dp865
g62
(dp866
sg71
g851
sg64
(lp867
g57
(g58
g59
NtRp868
(dp869
g62
(dp870
g70
I4
ssg71
g864
sg64
(lp871
S"set(['/home/user/Documents/2nd sem/ITWS-2/web2py/applications/IIIT_calendars/', '/home/user/Documents/2nd sem/ITWS-2/web2py/applications/welcome/', '/home/user/Documents/2nd sem/ITWS-2/web2py/applications/admin/'])"
p872
asbasbasbag57
(g73
g59
NtRp873
(dp874
g62
(dp875
sg71
g847
sg64
(lp876
g57
(g78
g59
NtRp877
(dp878
g62
(dp879
g82
g83
ssg71
g873
sg64
(lp880
S'applications_parent'
p881
asbag57
(g78
g59
NtRp882
(dp883
g62
(dp884
g89
g90
ssg71
g873
sg64
(lp885
S':'
asbag57
(g78
g59
NtRp886
(dp887
g62
(dp888
sg71
g873
sg64
(lp889
g57
(g58
g59
NtRp890
(dp891
g62
(dp892
g70
I4
ssg71
g886
sg64
(lp893
S'/home/user/Documents/2nd sem/ITWS-2/web2py'
p894
asbasbasbag57
(g73
g59
NtRp895
(dp896
g62
(dp897
sg71
g847
sg64
(lp898
g57
(g78
g59
NtRp899
(dp900
g62
(dp901
g82
g83
ssg71
g895
sg64
(lp902
S'cmd_args'
p903
asbag57
(g78
g59
NtRp904
(dp905
g62
(dp906
g89
g90
ssg71
g895
sg64
(lp907
S':'
asbag57
(g78
g59
NtRp908
(dp909
g62
(dp910
sg71
g895
sg64
(lp911
g57
(g58
g59
NtRp912
(dp913
g62
(dp914
g70
I4
ssg71
g908
sg64
(lp915
g57
(g66
g59
NtRp916
(dp917
g62
(dp918
g70
I3
ssg71
Nsg64
(lp919
sbasbasbasbag57
(g73
g59
NtRp920
(dp921
g62
(dp922
sg71
g847
sg64
(lp923
g57
(g78
g59
NtRp924
(dp925
g62
(dp926
g82
g83
ssg71
g920
sg64
(lp927
S'cmd_options'
p928
asbag57
(g78
g59
NtRp929
(dp930
g62
(dp931
g89
g90
ssg71
g920
sg64
(lp932
S':'
asbag57
(g78
g59
NtRp933
(dp934
g62
(dp935
sg71
g920
sg64
(lp936
g57
(g58
g59
NtRp937
(dp938
g62
(dp939
g70
I4
ssg71
g933
sg64
(lp940
S"<Values at 0x98cbe6c: {'verbose': False, 'ip': '127.0.0.1', 'with_scheduler': False, 'ips': [], 'shutdown_timeout': 5, 'taskbar': False, 'port': 8000, 'maxthreads': None, 'softcron': False, 'server_name': 'computer123', 'bpython': False, 'nogui': False, 'pid_filename': 'httpserver.pid', 'extcron': False, 'runcron': False, 'run_system_tests': False, 'test': None, 'folder': '/home/user/Documents/2nd sem/ITWS-2/web2py', 'config': '', 'import_models': False, 'winservice': '', 'shell': None, 'run': '', 'log_filename': 'httpserver.log', 'debuglevel': 30, 'args': [''], 'socket_timeout': 5, 'ssl_ca_certificate': None, 'scheduler': None, 'profiler_filename': None, 'ssl_private_key': '', 'scheduler_groups': None, 'password': '<ask>', 'request_queue_size': 5, 'ssl_certificate': '', 'cronjob': False, 'numthreads': None, 'quiet': False, 'interfaces': None, 'minthreads': None, 'timeout': 10, 'plain': False, 'nobanner': False}>"
p941
asbasbasbag57
(g73
g59
NtRp942
(dp943
g62
(dp944
sg71
g847
sg64
(lp945
g57
(g78
g59
NtRp946
(dp947
g62
(dp948
g82
g83
ssg71
g942
sg64
(lp949
S'db_sessions'
p950
asbag57
(g78
g59
NtRp951
(dp952
g62
(dp953
g89
g90
ssg71
g942
sg64
(lp954
S':'
asbag57
(g78
g59
NtRp955
(dp956
g62
(dp957
sg71
g942
sg64
(lp958
g57
(g58
g59
NtRp959
(dp960
g62
(dp961
g70
I4
ssg71
g955
sg64
(lp962
S'set([])'
p963
asbasbasbag57
(g73
g59
NtRp964
(dp965
g62
(dp966
sg71
g847
sg64
(lp967
g57
(g78
g59
NtRp968
(dp969
g62
(dp970
g82
g83
ssg71
g964
sg64
(lp971
S'debugging'
p972
asbag57
(g78
g59
NtRp973
(dp974
g62
(dp975
g89
g90
ssg71
g964
sg64
(lp976
S':'
asbag57
(g78
g59
NtRp977
(dp978
g62
(dp979
sg71
g964
sg64
(lp980
g57
(g58
g59
NtRp981
(dp982
g62
(dp983
g70
I4
ssg71
g977
sg64
(lp984
g100
asbasbasbag57
(g73
g59
NtRp985
(dp986
g62
(dp987
sg71
g847
sg64
(lp988
g57
(g78
g59
NtRp989
(dp990
g62
(dp991
g82
g83
ssg71
g985
sg64
(lp992
S'gluon_parent'
p993
asbag57
(g78
g59
NtRp994
(dp995
g62
(dp996
g89
g90
ssg71
g985
sg64
(lp997
S':'
asbag57
(g78
g59
NtRp998
(dp999
g62
(dp1000
sg71
g985
sg64
(lp1001
g57
(g58
g59
NtRp1002
(dp1003
g62
(dp1004
g70
I4
ssg71
g998
sg64
(lp1005
S'/home/user/Documents/2nd sem/ITWS-2/web2py'
p1006
asbasbasbag57
(g73
g59
NtRp1007
(dp1008
g62
(dp1009
sg71
g847
sg64
(lp1010
g57
(g78
g59
NtRp1011
(dp1012
g62
(dp1013
g82
g83
ssg71
g1007
sg64
(lp1014
S'http_accept'
p1015
asbag57
(g78
g59
NtRp1016
(dp1017
g62
(dp1018
g89
g90
ssg71
g1007
sg64
(lp1019
S':'
asbag57
(g78
g59
NtRp1020
(dp1021
g62
(dp1022
sg71
g1007
sg64
(lp1023
g57
(g58
g59
NtRp1024
(dp1025
g62
(dp1026
g70
I4
ssg71
g1020
sg64
(lp1027
S'text/html,application/xhtml+xml,application/xml;q=0.9,*/*;q=0.8'
p1028
asbasbasbag57
(g73
g59
NtRp1029
(dp1030
g62
(dp1031
sg71
g847
sg64
(lp1032
g57
(g78
g59
NtRp1033
(dp1034
g62
(dp1035
g82
g83
ssg71
g1029
sg64
(lp1036
S'http_accept_encoding'
p1037
asbag57
(g78
g59
NtRp1038
(dp1039
g62
(dp1040
g89
g90
ssg71
g1029
sg64
(lp1041
S':'
asbag57
(g78
g59
NtRp1042
(dp1043
g62
(dp1044
sg71
g1029
sg64
(lp1045
g57
(g58
g59
NtRp1046
(dp1047
g62
(dp1048
g70
I4
ssg71
g1042
sg64
(lp1049
S'gzip, deflate'
p1050
asbasbasbag57
(g73
g59
NtRp1051
(dp1052
g62
(dp1053
sg71
g847
sg64
(lp1054
g57
(g78
g59
NtRp1055
(dp1056
g62
(dp1057
g82
g83
ssg71
g1051
sg64
(lp1058
S'http_accept_language'
p1059
asbag57
(g78
g59
NtRp1060
(dp1061
g62
(dp1062
g89
g90
ssg71
g1051
sg64
(lp1063
S':'
asbag57
(g78
g59
NtRp1064
(dp1065
g62
(dp1066
sg71
g1051
sg64
(lp1067
g57
(g58
g59
NtRp1068
(dp1069
g62
(dp1070
g70
I4
ssg71
g1064
sg64
(lp1071
S'en-US,en;q=0.5'
p1072
asbasbasbag57
(g73
g59
NtRp1073
(dp1074
g62
(dp1075
sg71
g847
sg64
(lp1076
g57
(g78
g59
NtRp1077
(dp1078
g62
(dp1079
g82
g83
ssg71
g1073
sg64
(lp1080
S'http_connection'
p1081
asbag57
(g78
g59
NtRp1082
(dp1083
g62
(dp1084
g89
g90
ssg71
g1073
sg64
(lp1085
S':'
asbag57
(g78
g59
NtRp1086
(dp1087
g62
(dp1088
sg71
g1073
sg64
(lp1089
g57
(g58
g59
NtRp1090
(dp1091
g62
(dp1092
g70
I4
ssg71
g1086
sg64
(lp1093
S'keep-alive'
p1094
asbasbasbag57
(g73
g59
NtRp1095
(dp1096
g62
(dp1097
sg71
g847
sg64
(lp1098
g57
(g78
g59
NtRp1099
(dp1100
g62
(dp1101
g82
g83
ssg71
g1095
sg64
(lp1102
S'http_cookie'
p1103
asbag57
(g78
g59
NtRp1104
(dp1105
g62
(dp1106
g89
g90
ssg71
g1095
sg64
(lp1107
S':'
asbag57
(g78
g59
NtRp1108
(dp1109
g62
(dp1110
sg71
g1095
sg64
(lp1111
g57
(g58
g59
NtRp1112
(dp1113
g62
(dp1114
g70
I4
ssg71
g1108
sg64
(lp1115
S'session_id_welcome=127.0.0.1-3e6e5b98-ebfe-4fa1-b395-4d171ac7a93a; session_id_admin=127.0.0.1-4dce593b-3ad4-4a81-8348-9b4d15fe4a1b; session_id_iiit_calendars=127.0.0.1-c725406e-a78b-4874-862b-2d9dbd976271'
p1116
asbasbasbag57
(g73
g59
NtRp1117
(dp1118
g62
(dp1119
sg71
g847
sg64
(lp1120
g57
(g78
g59
NtRp1121
(dp1122
g62
(dp1123
g82
g83
ssg71
g1117
sg64
(lp1124
S'http_host'
p1125
asbag57
(g78
g59
NtRp1126
(dp1127
g62
(dp1128
g89
g90
ssg71
g1117
sg64
(lp1129
S':'
asbag57
(g78
g59
NtRp1130
(dp1131
g62
(dp1132
sg71
g1117
sg64
(lp1133
g57
(g58
g59
NtRp1134
(dp1135
g62
(dp1136
g70
I4
ssg71
g1130
sg64
(lp1137
S'127.0.0.1:8000'
p1138
asbasbasbag57
(g73
g59
NtRp1139
(dp1140
g62
(dp1141
sg71
g847
sg64
(lp1142
g57
(g78
g59
NtRp1143
(dp1144
g62
(dp1145
g82
g83
ssg71
g1139
sg64
(lp1146
S'http_referer'
p1147
asbag57
(g78
g59
NtRp1148
(dp1149
g62
(dp1150
g89
g90
ssg71
g1139
sg64
(lp1151
S':'
asbag57
(g78
g59
NtRp1152
(dp1153
g62
(dp1154
sg71
g1139
sg64
(lp1155
g57
(g58
g59
NtRp1156
(dp1157
g62
(dp1158
g70
I4
ssg71
g1152
sg64
(lp1159
S'http://127.0.0.1:8000/admin/default/design/IIIT_calendars'
p1160
asbasbasbag57
(g73
g59
NtRp1161
(dp1162
g62
(dp1163
sg71
g847
sg64
(lp1164
g57
(g78
g59
NtRp1165
(dp1166
g62
(dp1167
g82
g83
ssg71
g1161
sg64
(lp1168
S'http_user_agent'
p1169
asbag57
(g78
g59
NtRp1170
(dp1171
g62
(dp1172
g89
g90
ssg71
g1161
sg64
(lp1173
S':'
asbag57
(g78
g59
NtRp1174
(dp1175
g62
(dp1176
sg71
g1161
sg64
(lp1177
g57
(g58
g59
NtRp1178
(dp1179
g62
(dp1180
g70
I4
ssg71
g1174
sg64
(lp1181
S'Mozilla/5.0 (X11; Ubuntu; Linux i686; rv:20.0) Gecko/20100101 Firefox/20.0'
p1182
asbasbasbag57
(g73
g59
NtRp1183
(dp1184
g62
(dp1185
sg71
g847
sg64
(lp1186
g57
(g78
g59
NtRp1187
(dp1188
g62
(dp1189
g82
g83
ssg71
g1183
sg64
(lp1190
S'is_jython'
p1191
asbag57
(g78
g59
NtRp1192
(dp1193
g62
(dp1194
g89
g90
ssg71
g1183
sg64
(lp1195
S':'
asbag57
(g78
g59
NtRp1196
(dp1197
g62
(dp1198
sg71
g1183
sg64
(lp1199
g57
(g58
g59
NtRp1200
(dp1201
g62
(dp1202
g70
I4
ssg71
g1196
sg64
(lp1203
g100
asbasbasbag57
(g73
g59
NtRp1204
(dp1205
g62
(dp1206
sg71
g847
sg64
(lp1207
g57
(g78
g59
NtRp1208
(dp1209
g62
(dp1210
g82
g83
ssg71
g1204
sg64
(lp1211
S'is_pypy'
p1212
asbag57
(g78
g59
NtRp1213
(dp1214
g62
(dp1215
g89
g90
ssg71
g1204
sg64
(lp1216
S':'
asbag57
(g78
g59
NtRp1217
(dp1218
g62
(dp1219
sg71
g1204
sg64
(lp1220
g57
(g58
g59
NtRp1221
(dp1222
g62
(dp1223
g70
I4
ssg71
g1217
sg64
(lp1224
g100
asbasbasbag57
(g73
g59
NtRp1225
(dp1226
g62
(dp1227
sg71
g847
sg64
(lp1228
g57
(g78
g59
NtRp1229
(dp1230
g62
(dp1231
g82
g83
ssg71
g1225
sg64
(lp1232
S'local_hosts'
p1233
asbag57
(g78
g59
NtRp1234
(dp1235
g62
(dp1236
g89
g90
ssg71
g1225
sg64
(lp1237
S':'
asbag57
(g78
g59
NtRp1238
(dp1239
g62
(dp1240
sg71
g1225
sg64
(lp1241
g57
(g58
g59
NtRp1242
(dp1243
g62
(dp1244
g70
I4
ssg71
g1238
sg64
(lp1245
g57
(g66
g59
NtRp1246
(dp1247
g62
(dp1248
g70
I3
ssg71
Nsg64
(lp1249
g57
(g73
g59
NtRp1250
(dp1251
g62
(dp1252
sg71
g1246
sg64
(lp1253
g57
(g78
g59
NtRp1254
(dp1255
g62
(dp1256
sg71
g1250
sg64
(lp1257
g57
(g58
g59
NtRp1258
(dp1259
g62
(dp1260
g70
I3
ssg71
g1254
sg64
(lp1261
S'computer123'
p1262
asbasbasbag57
(g73
g59
NtRp1263
(dp1264
g62
(dp1265
sg71
g1246
sg64
(lp1266
g57
(g78
g59
NtRp1267
(dp1268
g62
(dp1269
sg71
g1263
sg64
(lp1270
g57
(g58
g59
NtRp1271
(dp1272
g62
(dp1273
g70
I3
ssg71
g1267
sg64
(lp1274
S'::1'
p1275
asbasbasbag57
(g73
g59
NtRp1276
(dp1277
g62
(dp1278
sg71
g1246
sg64
(lp1279
g57
(g78
g59
NtRp1280
(dp1281
g62
(dp1282
sg71
g1276
sg64
(lp1283
g57
(g58
g59
NtRp1284
(dp1285
g62
(dp1286
g70
I3
ssg71
g1280
sg64
(lp1287
S'127.0.1.1'
p1288
asbasbasbag57
(g73
g59
NtRp1289
(dp1290
g62
(dp1291
sg71
g1246
sg64
(lp1292
g57
(g78
g59
NtRp1293
(dp1294
g62
(dp1295
sg71
g1289
sg64
(lp1296
g57
(g58
g59
NtRp1297
(dp1298
g62
(dp1299
g70
I3
ssg71
g1293
sg64
(lp1300
S'::ffff:127.0.0.1'
p1301
asbasbasbag57
(g73
g59
NtRp1302
(dp1303
g62
(dp1304
sg71
g1246
sg64
(lp1305
g57
(g78
g59
NtRp1306
(dp1307
g62
(dp1308
sg71
g1302
sg64
(lp1309
g57
(g58
g59
NtRp1310
(dp1311
g62
(dp1312
g70
I3
ssg71
g1306
sg64
(lp1313
S'127.0.0.1'
p1314
asbasbasbasbasbasbasbag57
(g73
g59
NtRp1315
(dp1316
g62
(dp1317
sg71
g847
sg64
(lp1318
g57
(g78
g59
NtRp1319
(dp1320
g62
(dp1321
g82
g83
ssg71
g1315
sg64
(lp1322
S'path_info'
p1323
asbag57
(g78
g59
NtRp1324
(dp1325
g62
(dp1326
g89
g90
ssg71
g1315
sg64
(lp1327
S':'
asbag57
(g78
g59
NtRp1328
(dp1329
g62
(dp1330
sg71
g1315
sg64
(lp1331
g57
(g58
g59
NtRp1332
(dp1333
g62
(dp1334
g70
I4
ssg71
g1328
sg64
(lp1335
S'/IIIT_calendars/default/formedit'
p1336
asbasbasbag57
(g73
g59
NtRp1337
(dp1338
g62
(dp1339
sg71
g847
sg64
(lp1340
g57
(g78
g59
NtRp1341
(dp1342
g62
(dp1343
g82
g83
ssg71
g1337
sg64
(lp1344
S'query_string'
p1345
asbag57
(g78
g59
NtRp1346
(dp1347
g62
(dp1348
g89
g90
ssg71
g1337
sg64
(lp1349
S':'
asbag57
(g78
g59
NtRp1350
(dp1351
g62
(dp1352
sg71
g1337
sg64
(lp1353
g57
(g58
g59
NtRp1354
(dp1355
g62
(dp1356
g70
I4
ssg71
g1350
sg64
(lp1357
S''
asbasbasbag57
(g73
g59
NtRp1358
(dp1359
g62
(dp1360
sg71
g847
sg64
(lp1361
g57
(g78
g59
NtRp1362
(dp1363
g62
(dp1364
g82
g83
ssg71
g1358
sg64
(lp1365
S'remote_addr'
p1366
asbag57
(g78
g59
NtRp1367
(dp1368
g62
(dp1369
g89
g90
ssg71
g1358
sg64
(lp1370
S':'
asbag57
(g78
g59
NtRp1371
(dp1372
g62
(dp1373
sg71
g1358
sg64
(lp1374
g57
(g58
g59
NtRp1375
(dp1376
g62
(dp1377
g70
I4
ssg71
g1371
sg64
(lp1378
g212
asbasbasbag57
(g73
g59
NtRp1379
(dp1380
g62
(dp1381
sg71
g847
sg64
(lp1382
g57
(g78
g59
NtRp1383
(dp1384
g62
(dp1385
g82
g83
ssg71
g1379
sg64
(lp1386
S'remote_port'
p1387
asbag57
(g78
g59
NtRp1388
(dp1389
g62
(dp1390
g89
g90
ssg71
g1379
sg64
(lp1391
S':'
asbag57
(g78
g59
NtRp1392
(dp1393
g62
(dp1394
sg71
g1379
sg64
(lp1395
g57
(g58
g59
NtRp1396
(dp1397
g62
(dp1398
g70
I4
ssg71
g1392
sg64
(lp1399
S'35959'
p1400
asbasbasbag57
(g73
g59
NtRp1401
(dp1402
g62
(dp1403
sg71
g847
sg64
(lp1404
g57
(g78
g59
NtRp1405
(dp1406
g62
(dp1407
g82
g83
ssg71
g1401
sg64
(lp1408
S'request_method'
p1409
asbag57
(g78
g59
NtRp1410
(dp1411
g62
(dp1412
g89
g90
ssg71
g1401
sg64
(lp1413
S':'
asbag57
(g78
g59
NtRp1414
(dp1415
g62
(dp1416
sg71
g1401
sg64
(lp1417
g57
(g58
g59
NtRp1418
(dp1419
g62
(dp1420
g70
I4
ssg71
g1414
sg64
(lp1421
S'GET'
p1422
asbasbasbag57
(g73
g59
NtRp1423
(dp1424
g62
(dp1425
sg71
g847
sg64
(lp1426
g57
(g78
g59
NtRp1427
(dp1428
g62
(dp1429
g82
g83
ssg71
g1423
sg64
(lp1430
S'request_uri'
p1431
asbag57
(g78
g59
NtRp1432
(dp1433
g62
(dp1434
g89
g90
ssg71
g1423
sg64
(lp1435
S':'
asbag57
(g78
g59
NtRp1436
(dp1437
g62
(dp1438
sg71
g1423
sg64
(lp1439
g57
(g58
g59
NtRp1440
(dp1441
g62
(dp1442
g70
I4
ssg71
g1436
sg64
(lp1443
g1336
asbasbasbag57
(g73
g59
NtRp1444
(dp1445
g62
(dp1446
sg71
g847
sg64
(lp1447
g57
(g78
g59
NtRp1448
(dp1449
g62
(dp1450
g82
g83
ssg71
g1444
sg64
(lp1451
S'script_name'
p1452
asbag57
(g78
g59
NtRp1453
(dp1454
g62
(dp1455
g89
g90
ssg71
g1444
sg64
(lp1456
S':'
asbag57
(g78
g59
NtRp1457
(dp1458
g62
(dp1459
sg71
g1444
sg64
(lp1460
g57
(g58
g59
NtRp1461
(dp1462
g62
(dp1463
g70
I4
ssg71
g1457
sg64
(lp1464
S''
asbasbasbag57
(g73
g59
NtRp1465
(dp1466
g62
(dp1467
sg71
g847
sg64
(lp1468
g57
(g78
g59
NtRp1469
(dp1470
g62
(dp1471
g82
g83
ssg71
g1465
sg64
(lp1472
S'server_name'
p1473
asbag57
(g78
g59
NtRp1474
(dp1475
g62
(dp1476
g89
g90
ssg71
g1465
sg64
(lp1477
S':'
asbag57
(g78
g59
NtRp1478
(dp1479
g62
(dp1480
sg71
g1465
sg64
(lp1481
g57
(g58
g59
NtRp1482
(dp1483
g62
(dp1484
g70
I4
ssg71
g1478
sg64
(lp1485
S'computer123'
p1486
asbasbasbag57
(g73
g59
NtRp1487
(dp1488
g62
(dp1489
sg71
g847
sg64
(lp1490
g57
(g78
g59
NtRp1491
(dp1492
g62
(dp1493
g82
g83
ssg71
g1487
sg64
(lp1494
S'server_port'
p1495
asbag57
(g78
g59
NtRp1496
(dp1497
g62
(dp1498
g89
g90
ssg71
g1487
sg64
(lp1499
S':'
asbag57
(g78
g59
NtRp1500
(dp1501
g62
(dp1502
sg71
g1487
sg64
(lp1503
g57
(g58
g59
NtRp1504
(dp1505
g62
(dp1506
g70
I4
ssg71
g1500
sg64
(lp1507
S'8000'
p1508
asbasbasbag57
(g73
g59
NtRp1509
(dp1510
g62
(dp1511
sg71
g847
sg64
(lp1512
g57
(g78
g59
NtRp1513
(dp1514
g62
(dp1515
g82
g83
ssg71
g1509
sg64
(lp1516
S'server_protocol'
p1517
asbag57
(g78
g59
NtRp1518
(dp1519
g62
(dp1520
g89
g90
ssg71
g1509
sg64
(lp1521
S':'
asbag57
(g78
g59
NtRp1522
(dp1523
g62
(dp1524
sg71
g1509
sg64
(lp1525
g57
(g58
g59
NtRp1526
(dp1527
g62
(dp1528
g70
I4
ssg71
g1522
sg64
(lp1529
S'HTTP/1.1'
p1530
asbasbasbag57
(g73
g59
NtRp1531
(dp1532
g62
(dp1533
sg71
g847
sg64
(lp1534
g57
(g78
g59
NtRp1535
(dp1536
g62
(dp1537
g82
g83
ssg71
g1531
sg64
(lp1538
S'server_software'
p1539
asbag57
(g78
g59
NtRp1540
(dp1541
g62
(dp1542
g89
g90
ssg71
g1531
sg64
(lp1543
S':'
asbag57
(g78
g59
NtRp1544
(dp1545
g62
(dp1546
sg71
g1531
sg64
(lp1547
g57
(g58
g59
NtRp1548
(dp1549
g62
(dp1550
g70
I4
ssg71
g1544
sg64
(lp1551
S'Rocket 1.2.6'
p1552
asbasbasbag57
(g73
g59
NtRp1553
(dp1554
g62
(dp1555
sg71
g847
sg64
(lp1556
g57
(g78
g59
NtRp1557
(dp1558
g62
(dp1559
g82
g83
ssg71
g1553
sg64
(lp1560
S'web2py_path'
p1561
asbag57
(g78
g59
NtRp1562
(dp1563
g62
(dp1564
g89
g90
ssg71
g1553
sg64
(lp1565
S':'
asbag57
(g78
g59
NtRp1566
(dp1567
g62
(dp1568
sg71
g1553
sg64
(lp1569
g57
(g58
g59
NtRp1570
(dp1571
g62
(dp1572
g70
I4
ssg71
g1566
sg64
(lp1573
g894
asbasbasbag57
(g73
g59
NtRp1574
(dp1575
g62
(dp1576
sg71
g847
sg64
(lp1577
g57
(g78
g59
NtRp1578
(dp1579
g62
(dp1580
g82
g83
ssg71
g1574
sg64
(lp1581
S'web2py_version'
p1582
asbag57
(g78
g59
NtRp1583
(dp1584
g62
(dp1585
g89
g90
ssg71
g1574
sg64
(lp1586
S':'
asbag57
(g78
g59
NtRp1587
(dp1588
g62
(dp1589
sg71
g1574
sg64
(lp1590
g57
(g58
g59
NtRp1591
(dp1592
g62
(dp1593
g70
I4
ssg71
g1587
sg64
(lp1594
g57
(g66
g59
NtRp1595
(dp1596
g62
(dp1597
g70
I3
ssg71
Nsg64
(lp1598
g57
(g73
g59
NtRp1599
(dp1600
g62
(dp1601
sg71
g1595
sg64
(lp1602
g57
(g78
g59
NtRp1603
(dp1604
g62
(dp1605
sg71
g1599
sg64
(lp1606
g57
(g58
g59
NtRp1607
(dp1608
g62
(dp1609
g70
I3
ssg71
g1603
sg64
(lp1610
S'2'
asbasbasbag57
(g73
g59
NtRp1611
(dp1612
g62
(dp1613
sg71
g1595
sg64
(lp1614
g57
(g78
g59
NtRp1615
(dp1616
g62
(dp1617
sg71
g1611
sg64
(lp1618
g57
(g58
g59
NtRp1619
(dp1620
g62
(dp1621
g70
I3
ssg71
g1615
sg64
(lp1622
S'3'
asbasbasbag57
(g73
g59
NtRp1623
(dp1624
g62
(dp1625
sg71
g1595
sg64
(lp1626
g57
(g78
g59
NtRp1627
(dp1628
g62
(dp1629
sg71
g1623
sg64
(lp1630
g57
(g58
g59
NtRp1631
(dp1632
g62
(dp1633
g70
I3
ssg71
g1627
sg64
(lp1634
S'2'
asbasbasbag57
(g73
g59
NtRp1635
(dp1636
g62
(dp1637
sg71
g1595
sg64
(lp1638
g57
(g78
g59
NtRp1639
(dp1640
g62
(dp1641
sg71
g1635
sg64
(lp1642
g57
(g58
g59
NtRp1643
(dp1644
g62
(dp1645
g70
I3
ssg71
g1639
sg64
(lp1646
S'datetime.datetime(2012, 12, 17, 15, 3, 30)'
p1647
asbasbasbag57
(g73
g59
NtRp1648
(dp1649
g62
(dp1650
sg71
g1595
sg64
(lp1651
g57
(g78
g59
NtRp1652
(dp1653
g62
(dp1654
sg71
g1648
sg64
(lp1655
g57
(g58
g59
NtRp1656
(dp1657
g62
(dp1658
g70
I3
ssg71
g1652
sg64
(lp1659
S'stable'
p1660
asbasbasbasbasbasbasbag57
(g73
g59
NtRp1661
(dp1662
g62
(dp1663
sg71
g847
sg64
(lp1664
g57
(g78
g59
NtRp1665
(dp1666
g62
(dp1667
g82
g83
ssg71
g1661
sg64
(lp1668
S'wsgi_errors'
p1669
asbag57
(g78
g59
NtRp1670
(dp1671
g62
(dp1672
g89
g90
ssg71
g1661
sg64
(lp1673
S':'
asbag57
(g78
g59
NtRp1674
(dp1675
g62
(dp1676
sg71
g1661
sg64
(lp1677
g57
(g58
g59
NtRp1678
(dp1679
g62
(dp1680
g70
I4
ssg71
g1674
sg64
(lp1681
S"<open file '<stderr>', mode 'w' at 0xb73400d0>"
p1682
asbasbasbag57
(g73
g59
NtRp1683
(dp1684
g62
(dp1685
sg71
g847
sg64
(lp1686
g57
(g78
g59
NtRp1687
(dp1688
g62
(dp1689
g82
g83
ssg71
g1683
sg64
(lp1690
S'wsgi_file_wrapper'
p1691
asbag57
(g78
g59
NtRp1692
(dp1693
g62
(dp1694
g89
g90
ssg71
g1683
sg64
(lp1695
S':'
asbag57
(g78
g59
NtRp1696
(dp1697
g62
(dp1698
sg71
g1683
sg64
(lp1699
g57
(g58
g59
NtRp1700
(dp1701
g62
(dp1702
g70
I4
ssg71
g1696
sg64
(lp1703
S'<class wsgiref.util.FileWrapper at 0x9884f8c>'
p1704
asbasbasbag57
(g73
g59
NtRp1705
(dp1706
g62
(dp1707
sg71
g847
sg64
(lp1708
g57
(g78
g59
NtRp1709
(dp1710
g62
(dp1711
g82
g83
ssg71
g1705
sg64
(lp1712
S'wsgi_input'
p1713
asbag57
(g78
g59
NtRp1714
(dp1715
g62
(dp1716
g89
g90
ssg71
g1705
sg64
(lp1717
S':'
asbag57
(g78
g59
NtRp1718
(dp1719
g62
(dp1720
sg71
g1705
sg64
(lp1721
g57
(g58
g59
NtRp1722
(dp1723
g62
(dp1724
g70
I4
ssg71
g1718
sg64
(lp1725
S'<socket._fileobject object at 0xb4a346ec>'
p1726
asbasbasbag57
(g73
g59
NtRp1727
(dp1728
g62
(dp1729
sg71
g847
sg64
(lp1730
g57
(g78
g59
NtRp1731
(dp1732
g62
(dp1733
g82
g83
ssg71
g1727
sg64
(lp1734
S'wsgi_multiprocess'
p1735
asbag57
(g78
g59
NtRp1736
(dp1737
g62
(dp1738
g89
g90
ssg71
g1727
sg64
(lp1739
S':'
asbag57
(g78
g59
NtRp1740
(dp1741
g62
(dp1742
sg71
g1727
sg64
(lp1743
g57
(g58
g59
NtRp1744
(dp1745
g62
(dp1746
g70
I4
ssg71
g1740
sg64
(lp1747
g100
asbasbasbag57
(g73
g59
NtRp1748
(dp1749
g62
(dp1750
sg71
g847
sg64
(lp1751
g57
(g78
g59
NtRp1752
(dp1753
g62
(dp1754
g82
g83
ssg71
g1748
sg64
(lp1755
S'wsgi_multithread'
p1756
asbag57
(g78
g59
NtRp1757
(dp1758
g62
(dp1759
g89
g90
ssg71
g1748
sg64
(lp1760
S':'
asbag57
(g78
g59
NtRp1761
(dp1762
g62
(dp1763
sg71
g1748
sg64
(lp1764
g57
(g58
g59
NtRp1765
(dp1766
g62
(dp1767
g70
I4
ssg71
g1761
sg64
(lp1768
S'True'
p1769
asbasbasbag57
(g73
g59
NtRp1770
(dp1771
g62
(dp1772
sg71
g847
sg64
(lp1773
g57
(g78
g59
NtRp1774
(dp1775
g62
(dp1776
g82
g83
ssg71
g1770
sg64
(lp1777
S'wsgi_run_once'
p1778
asbag57
(g78
g59
NtRp1779
(dp1780
g62
(dp1781
g89
g90
ssg71
g1770
sg64
(lp1782
S':'
asbag57
(g78
g59
NtRp1783
(dp1784
g62
(dp1785
sg71
g1770
sg64
(lp1786
g57
(g58
g59
NtRp1787
(dp1788
g62
(dp1789
g70
I4
ssg71
g1783
sg64
(lp1790
g100
asbasbasbag57
(g73
g59
NtRp1791
(dp1792
g62
(dp1793
sg71
g847
sg64
(lp1794
g57
(g78
g59
NtRp1795
(dp1796
g62
(dp1797
g82
g83
ssg71
g1791
sg64
(lp1798
S'wsgi_url_scheme'
p1799
asbag57
(g78
g59
NtRp1800
(dp1801
g62
(dp1802
g89
g90
ssg71
g1791
sg64
(lp1803
S':'
asbag57
(g78
g59
NtRp1804
(dp1805
g62
(dp1806
sg71
g1791
sg64
(lp1807
g57
(g58
g59
NtRp1808
(dp1809
g62
(dp1810
g70
I4
ssg71
g1804
sg64
(lp1811
S'http'
p1812
asbasbasbag57
(g73
g59
NtRp1813
(dp1814
g62
(dp1815
sg71
g847
sg64
(lp1816
g57
(g78
g59
NtRp1817
(dp1818
g62
(dp1819
g82
g83
ssg71
g1813
sg64
(lp1820
S'wsgi_version'
p1821
asbag57
(g78
g59
NtRp1822
(dp1823
g62
(dp1824
g89
g90
ssg71
g1813
sg64
(lp1825
S':'
asbag57
(g78
g59
NtRp1826
(dp1827
g62
(dp1828
sg71
g1813
sg64
(lp1829
g57
(g58
g59
NtRp1830
(dp1831
g62
(dp1832
g70
I4
ssg71
g1826
sg64
(lp1833
g57
(g66
g59
NtRp1834
(dp1835
g62
(dp1836
g70
I3
ssg71
Nsg64
(lp1837
g57
(g73
g59
NtRp1838
(dp1839
g62
(dp1840
sg71
g1834
sg64
(lp1841
g57
(g78
g59
NtRp1842
(dp1843
g62
(dp1844
sg71
g1838
sg64
(lp1845
g57
(g58
g59
NtRp1846
(dp1847
g62
(dp1848
g70
I3
ssg71
g1842
sg64
(lp1849
S'1'
asbasbasbag57
(g73
g59
NtRp1850
(dp1851
g62
(dp1852
sg71
g1834
sg64
(lp1853
g57
(g78
g59
NtRp1854
(dp1855
g62
(dp1856
sg71
g1850
sg64
(lp1857
g57
(g58
g59
NtRp1858
(dp1859
g62
(dp1860
g70
I3
ssg71
g1854
sg64
(lp1861
S'0'
asbasbasbasbasbasbasbasbasbasbasbag57
(g73
g59
NtRp1862
(dp1863
g62
(dp1864
sg71
g67
sg64
(lp1865
g57
(g78
g59
NtRp1866
(dp1867
g62
(dp1868
g82
g83
ssg71
g1862
sg64
(lp1869
S'extension'
p1870
asbag57
(g78
g59
NtRp1871
(dp1872
g62
(dp1873
g89
g90
ssg71
g1862
sg64
(lp1874
S':'
asbag57
(g78
g59
NtRp1875
(dp1876
g62
(dp1877
sg71
g1862
sg64
(lp1878
g57
(g58
g59
NtRp1879
(dp1880
g62
(dp1881
g70
I5
ssg71
g1875
sg64
(lp1882
S'html'
p1883
asbasbasbag57
(g73
g59
NtRp1884
(dp1885
g62
(dp1886
sg71
g67
sg64
(lp1887
g57
(g78
g59
NtRp1888
(dp1889
g62
(dp1890
g82
g83
ssg71
g1884
sg64
(lp1891
S'folder'
p1892
asbag57
(g78
g59
NtRp1893
(dp1894
g62
(dp1895
g89
g90
ssg71
g1884
sg64
(lp1896
S':'
asbag57
(g78
g59
NtRp1897
(dp1898
g62
(dp1899
sg71
g1884
sg64
(lp1900
g57
(g58
g59
NtRp1901
(dp1902
g62
(dp1903
g70
I5
ssg71
g1897
sg64
(lp1904
S'/home/user/Documents/2nd sem/ITWS-2/web2py/applications/IIIT_calendars/'
p1905
asbasbasbag57
(g73
g59
NtRp1906
(dp1907
g62
(dp1908
sg71
g67
sg64
(lp1909
g57
(g78
g59
NtRp1910
(dp1911
g62
(dp1912
g82
g83
ssg71
g1906
sg64
(lp1913
S'function'
p1914
asbag57
(g78
g59
NtRp1915
(dp1916
g62
(dp1917
g89
g90
ssg71
g1906
sg64
(lp1918
S':'
asbag57
(g78
g59
NtRp1919
(dp1920
g62
(dp1921
sg71
g1906
sg64
(lp1922
g57
(g58
g59
NtRp1923
(dp1924
g62
(dp1925
g70
I5
ssg71
g1919
sg64
(lp1926
S'formedit'
p1927
asbasbasbag57
(g73
g59
NtRp1928
(dp1929
g62
(dp1930
sg71
g67
sg64
(lp1931
g57
(g78
g59
NtRp1932
(dp1933
g62
(dp1934
g82
g83
ssg71
g1928
sg64
(lp1935
S'get_vars'
p1936
asbag57
(g78
g59
NtRp1937
(dp1938
g62
(dp1939
g89
g90
ssg71
g1928
sg64
(lp1940
S':'
asbag57
(g78
g59
NtRp1941
(dp1942
g62
(dp1943
sg71
g1928
sg64
(lp1944
g57
(g58
g59
NtRp1945
(dp1946
g62
(dp1947
g70
I5
ssg71
g1941
sg64
(lp1948
g57
(g66
g59
NtRp1949
(dp1950
g62
(dp1951
g70
I4
ssg71
Nsg64
(lp1952
sbasbasbasbag57
(g73
g59
NtRp1953
(dp1954
g62
(dp1955
sg71
g67
sg64
(lp1956
g57
(g78
g59
NtRp1957
(dp1958
g62
(dp1959
g82
g83
ssg71
g1953
sg64
(lp1960
S'global_settings'
p1961
asbag57
(g78
g59
NtRp1962
(dp1963
g62
(dp1964
g89
g90
ssg71
g1953
sg64
(lp1965
S':'
asbag57
(g78
g59
NtRp1966
(dp1967
g62
(dp1968
sg71
g1953
sg64
(lp1969
g57
(g58
g59
NtRp1970
(dp1971
g62
(dp1972
g70
I5
ssg71
g1966
sg64
(lp1973
g57
(g66
g59
NtRp1974
(dp1975
g62
(dp1976
g70
I4
ssg71
Nsg64
(lp1977
g57
(g73
g59
NtRp1978
(dp1979
g62
(dp1980
sg71
g1974
sg64
(lp1981
g57
(g78
g59
NtRp1982
(dp1983
g62
(dp1984
g82
g83
ssg71
g1978
sg64
(lp1985
g859
asbag57
(g78
g59
NtRp1986
(dp1987
g62
(dp1988
g89
g90
ssg71
g1978
sg64
(lp1989
S':'
asbag57
(g78
g59
NtRp1990
(dp1991
g62
(dp1992
sg71
g1978
sg64
(lp1993
g57
(g58
g59
NtRp1994
(dp1995
g62
(dp1996
g70
I4
ssg71
g1990
sg64
(lp1997
S"set(['/home/user/Documents/2nd sem/ITWS-2/web2py/applications/IIIT_calendars/', '/home/user/Documents/2nd sem/ITWS-2/web2py/applications/welcome/', '/home/user/Documents/2nd sem/ITWS-2/web2py/applications/admin/'])"
p1998
asbasbasbag57
(g73
g59
NtRp1999
(dp2000
g62
(dp2001
sg71
g1974
sg64
(lp2002
g57
(g78
g59
NtRp2003
(dp2004
g62
(dp2005
g82
g83
ssg71
g1999
sg64
(lp2006
g881
asbag57
(g78
g59
NtRp2007
(dp2008
g62
(dp2009
g89
g90
ssg71
g1999
sg64
(lp2010
S':'
asbag57
(g78
g59
NtRp2011
(dp2012
g62
(dp2013
sg71
g1999
sg64
(lp2014
g57
(g58
g59
NtRp2015
(dp2016
g62
(dp2017
g70
I4
ssg71
g2011
sg64
(lp2018
g894
asbasbasbag57
(g73
g59
NtRp2019
(dp2020
g62
(dp2021
sg71
g1974
sg64
(lp2022
g57
(g78
g59
NtRp2023
(dp2024
g62
(dp2025
g82
g83
ssg71
g2019
sg64
(lp2026
g903
asbag57
(g78
g59
NtRp2027
(dp2028
g62
(dp2029
g89
g90
ssg71
g2019
sg64
(lp2030
S':'
asbag57
(g78
g59
NtRp2031
(dp2032
g62
(dp2033
sg71
g2019
sg64
(lp2034
g57
(g58
g59
NtRp2035
(dp2036
g62
(dp2037
g70
I4
ssg71
g2031
sg64
(lp2038
g57
(g66
g59
NtRp2039
(dp2040
g62
(dp2041
g70
I3
ssg71
Nsg64
(lp2042
sbasbasbasbag57
(g73
g59
NtRp2043
(dp2044
g62
(dp2045
sg71
g1974
sg64
(lp2046
g57
(g78
g59
NtRp2047
(dp2048
g62
(dp2049
g82
g83
ssg71
g2043
sg64
(lp2050
g928
asbag57
(g78
g59
NtRp2051
(dp2052
g62
(dp2053
g89
g90
ssg71
g2043
sg64
(lp2054
S':'
asbag57
(g78
g59
NtRp2055
(dp2056
g62
(dp2057
sg71
g2043
sg64
(lp2058
g57
(g58
g59
NtRp2059
(dp2060
g62
(dp2061
g70
I4
ssg71
g2055
sg64
(lp2062
S"<Values at 0x98cbe6c: {'verbose': False, 'ip': '127.0.0.1', 'with_scheduler': False, 'ips': [], 'shutdown_timeout': 5, 'taskbar': False, 'port': 8000, 'maxthreads': None, 'softcron': False, 'server_name': 'computer123', 'bpython': False, 'nogui': False, 'pid_filename': 'httpserver.pid', 'extcron': False, 'runcron': False, 'run_system_tests': False, 'test': None, 'folder': '/home/user/Documents/2nd sem/ITWS-2/web2py', 'config': '', 'import_models': False, 'winservice': '', 'shell': None, 'run': '', 'log_filename': 'httpserver.log', 'debuglevel': 30, 'args': [''], 'socket_timeout': 5, 'ssl_ca_certificate': None, 'scheduler': None, 'profiler_filename': None, 'ssl_private_key': '', 'scheduler_groups': None, 'password': '<ask>', 'request_queue_size': 5, 'ssl_certificate': '', 'cronjob': False, 'numthreads': None, 'quiet': False, 'interfaces': None, 'minthreads': None, 'timeout': 10, 'plain': False, 'nobanner': False}>"
p2063
asbasbasbag57
(g73
g59
NtRp2064
(dp2065
g62
(dp2066
sg71
g1974
sg64
(lp2067
g57
(g78
g59
NtRp2068
(dp2069
g62
(dp2070
g82
g83
ssg71
g2064
sg64
(lp2071
g950
asbag57
(g78
g59
NtRp2072
(dp2073
g62
(dp2074
g89
g90
ssg71
g2064
sg64
(lp2075
S':'
asbag57
(g78
g59
NtRp2076
(dp2077
g62
(dp2078
sg71
g2064
sg64
(lp2079
g57
(g58
g59
NtRp2080
(dp2081
g62
(dp2082
g70
I4
ssg71
g2076
sg64
(lp2083
S'set([])'
p2084
asbasbasbag57
(g73
g59
NtRp2085
(dp2086
g62
(dp2087
sg71
g1974
sg64
(lp2088
g57
(g78
g59
NtRp2089
(dp2090
g62
(dp2091
g82
g83
ssg71
g2085
sg64
(lp2092
g972
asbag57
(g78
g59
NtRp2093
(dp2094
g62
(dp2095
g89
g90
ssg71
g2085
sg64
(lp2096
S':'
asbag57
(g78
g59
NtRp2097
(dp2098
g62
(dp2099
sg71
g2085
sg64
(lp2100
g57
(g58
g59
NtRp2101
(dp2102
g62
(dp2103
g70
I4
ssg71
g2097
sg64
(lp2104
g100
asbasbasbag57
(g73
g59
NtRp2105
(dp2106
g62
(dp2107
sg71
g1974
sg64
(lp2108
g57
(g78
g59
NtRp2109
(dp2110
g62
(dp2111
g82
g83
ssg71
g2105
sg64
(lp2112
g993
asbag57
(g78
g59
NtRp2113
(dp2114
g62
(dp2115
g89
g90
ssg71
g2105
sg64
(lp2116
S':'
asbag57
(g78
g59
NtRp2117
(dp2118
g62
(dp2119
sg71
g2105
sg64
(lp2120
g57
(g58
g59
NtRp2121
(dp2122
g62
(dp2123
g70
I4
ssg71
g2117
sg64
(lp2124
g1006
asbasbasbag57
(g73
g59
NtRp2125
(dp2126
g62
(dp2127
sg71
g1974
sg64
(lp2128
g57
(g78
g59
NtRp2129
(dp2130
g62
(dp2131
g82
g83
ssg71
g2125
sg64
(lp2132
g1191
asbag57
(g78
g59
NtRp2133
(dp2134
g62
(dp2135
g89
g90
ssg71
g2125
sg64
(lp2136
S':'
asbag57
(g78
g59
NtRp2137
(dp2138
g62
(dp2139
sg71
g2125
sg64
(lp2140
g57
(g58
g59
NtRp2141
(dp2142
g62
(dp2143
g70
I4
ssg71
g2137
sg64
(lp2144
g100
asbasbasbag57
(g73
g59
NtRp2145
(dp2146
g62
(dp2147
sg71
g1974
sg64
(lp2148
g57
(g78
g59
NtRp2149
(dp2150
g62
(dp2151
g82
g83
ssg71
g2145
sg64
(lp2152
g1212
asbag57
(g78
g59
NtRp2153
(dp2154
g62
(dp2155
g89
g90
ssg71
g2145
sg64
(lp2156
S':'
asbag57
(g78
g59
NtRp2157
(dp2158
g62
(dp2159
sg71
g2145
sg64
(lp2160
g57
(g58
g59
NtRp2161
(dp2162
g62
(dp2163
g70
I4
ssg71
g2157
sg64
(lp2164
g100
asbasbasbag57
(g73
g59
NtRp2165
(dp2166
g62
(dp2167
sg71
g1974
sg64
(lp2168
g57
(g78
g59
NtRp2169
(dp2170
g62
(dp2171
g82
g83
ssg71
g2165
sg64
(lp2172
g1233
asbag57
(g78
g59
NtRp2173
(dp2174
g62
(dp2175
g89
g90
ssg71
g2165
sg64
(lp2176
S':'
asbag57
(g78
g59
NtRp2177
(dp2178
g62
(dp2179
sg71
g2165
sg64
(lp2180
g57
(g58
g59
NtRp2181
(dp2182
g62
(dp2183
g70
I4
ssg71
g2177
sg64
(lp2184
g57
(g66
g59
NtRp2185
(dp2186
g62
(dp2187
g70
I3
ssg71
Nsg64
(lp2188
g57
(g73
g59
NtRp2189
(dp2190
g62
(dp2191
sg71
g2185
sg64
(lp2192
g57
(g78
g59
NtRp2193
(dp2194
g62
(dp2195
sg71
g2189
sg64
(lp2196
g57
(g58
g59
NtRp2197
(dp2198
g62
(dp2199
g70
I3
ssg71
g2193
sg64
(lp2200
g1262
asbasbasbag57
(g73
g59
NtRp2201
(dp2202
g62
(dp2203
sg71
g2185
sg64
(lp2204
g57
(g78
g59
NtRp2205
(dp2206
g62
(dp2207
sg71
g2201
sg64
(lp2208
g57
(g58
g59
NtRp2209
(dp2210
g62
(dp2211
g70
I3
ssg71
g2205
sg64
(lp2212
g1275
asbasbasbag57
(g73
g59
NtRp2213
(dp2214
g62
(dp2215
sg71
g2185
sg64
(lp2216
g57
(g78
g59
NtRp2217
(dp2218
g62
(dp2219
sg71
g2213
sg64
(lp2220
g57
(g58
g59
NtRp2221
(dp2222
g62
(dp2223
g70
I3
ssg71
g2217
sg64
(lp2224
g1288
asbasbasbag57
(g73
g59
NtRp2225
(dp2226
g62
(dp2227
sg71
g2185
sg64
(lp2228
g57
(g78
g59
NtRp2229
(dp2230
g62
(dp2231
sg71
g2225
sg64
(lp2232
g57
(g58
g59
NtRp2233
(dp2234
g62
(dp2235
g70
I3
ssg71
g2229
sg64
(lp2236
g1301
asbasbasbag57
(g73
g59
NtRp2237
(dp2238
g62
(dp2239
sg71
g2185
sg64
(lp2240
g57
(g78
g59
NtRp2241
(dp2242
g62
(dp2243
sg71
g2237
sg64
(lp2244
g57
(g58
g59
NtRp2245
(dp2246
g62
(dp2247
g70
I3
ssg71
g2241
sg64
(lp2248
g1314
asbasbasbasbasbasbasbag57
(g73
g59
NtRp2249
(dp2250
g62
(dp2251
sg71
g1974
sg64
(lp2252
g57
(g78
g59
NtRp2253
(dp2254
g62
(dp2255
g82
g83
ssg71
g2249
sg64
(lp2256
g1582
asbag57
(g78
g59
NtRp2257
(dp2258
g62
(dp2259
g89
g90
ssg71
g2249
sg64
(lp2260
S':'
asbag57
(g78
g59
NtRp2261
(dp2262
g62
(dp2263
sg71
g2249
sg64
(lp2264
g57
(g58
g59
NtRp2265
(dp2266
g62
(dp2267
g70
I4
ssg71
g2261
sg64
(lp2268
g57
(g66
g59
NtRp2269
(dp2270
g62
(dp2271
g70
I3
ssg71
Nsg64
(lp2272
g57
(g73
g59
NtRp2273
(dp2274
g62
(dp2275
sg71
g2269
sg64
(lp2276
g57
(g78
g59
NtRp2277
(dp2278
g62
(dp2279
sg71
g2273
sg64
(lp2280
g57
(g58
g59
NtRp2281
(dp2282
g62
(dp2283
g70
I3
ssg71
g2277
sg64
(lp2284
S'2'
asbasbasbag57
(g73
g59
NtRp2285
(dp2286
g62
(dp2287
sg71
g2269
sg64
(lp2288
g57
(g78
g59
NtRp2289
(dp2290
g62
(dp2291
sg71
g2285
sg64
(lp2292
g57
(g58
g59
NtRp2293
(dp2294
g62
(dp2295
g70
I3
ssg71
g2289
sg64
(lp2296
S'3'
asbasbasbag57
(g73
g59
NtRp2297
(dp2298
g62
(dp2299
sg71
g2269
sg64
(lp2300
g57
(g78
g59
NtRp2301
(dp2302
g62
(dp2303
sg71
g2297
sg64
(lp2304
g57
(g58
g59
NtRp2305
(dp2306
g62
(dp2307
g70
I3
ssg71
g2301
sg64
(lp2308
S'2'
asbasbasbag57
(g73
g59
NtRp2309
(dp2310
g62
(dp2311
sg71
g2269
sg64
(lp2312
g57
(g78
g59
NtRp2313
(dp2314
g62
(dp2315
sg71
g2309
sg64
(lp2316
g57
(g58
g59
NtRp2317
(dp2318
g62
(dp2319
g70
I3
ssg71
g2313
sg64
(lp2320
S'datetime.datetime(2012, 12, 17, 15, 3, 30)'
p2321
asbasbasbag57
(g73
g59
NtRp2322
(dp2323
g62
(dp2324
sg71
g2269
sg64
(lp2325
g57
(g78
g59
NtRp2326
(dp2327
g62
(dp2328
sg71
g2322
sg64
(lp2329
g57
(g58
g59
NtRp2330
(dp2331
g62
(dp2332
g70
I3
ssg71
g2326
sg64
(lp2333
g1660
asbasbasbasbasbasbasbasbasbasbasbag57
(g73
g59
NtRp2334
(dp2335
g62
(dp2336
sg71
g67
sg64
(lp2337
g57
(g78
g59
NtRp2338
(dp2339
g62
(dp2340
g82
g83
ssg71
g2334
sg64
(lp2341
S'is_https'
p2342
asbag57
(g78
g59
NtRp2343
(dp2344
g62
(dp2345
g89
g90
ssg71
g2334
sg64
(lp2346
S':'
asbag57
(g78
g59
NtRp2347
(dp2348
g62
(dp2349
sg71
g2334
sg64
(lp2350
g57
(g58
g59
NtRp2351
(dp2352
g62
(dp2353
g70
I5
ssg71
g2347
sg64
(lp2354
g100
asbasbasbag57
(g73
g59
NtRp2355
(dp2356
g62
(dp2357
sg71
g67
sg64
(lp2358
g57
(g78
g59
NtRp2359
(dp2360
g62
(dp2361
g82
g83
ssg71
g2355
sg64
(lp2362
S'is_local'
p2363
asbag57
(g78
g59
NtRp2364
(dp2365
g62
(dp2366
g89
g90
ssg71
g2355
sg64
(lp2367
S':'
asbag57
(g78
g59
NtRp2368
(dp2369
g62
(dp2370
sg71
g2355
sg64
(lp2371
g57
(g58
g59
NtRp2372
(dp2373
g62
(dp2374
g70
I5
ssg71
g2368
sg64
(lp2375
g1769
asbasbasbag57
(g73
g59
NtRp2376
(dp2377
g62
(dp2378
sg71
g67
sg64
(lp2379
g57
(g78
g59
NtRp2380
(dp2381
g62
(dp2382
g82
g83
ssg71
g2376
sg64
(lp2383
S'is_restful'
p2384
asbag57
(g78
g59
NtRp2385
(dp2386
g62
(dp2387
g89
g90
ssg71
g2376
sg64
(lp2388
S':'
asbag57
(g78
g59
NtRp2389
(dp2390
g62
(dp2391
sg71
g2376
sg64
(lp2392
g57
(g58
g59
NtRp2393
(dp2394
g62
(dp2395
g70
I5
ssg71
g2389
sg64
(lp2396
g100
asbasbasbag57
(g73
g59
NtRp2397
(dp2398
g62
(dp2399
sg71
g67
sg64
(lp2400
g57
(g78
g59
NtRp2401
(dp2402
g62
(dp2403
g82
g83
ssg71
g2397
sg64
(lp2404
S'now'
p2405
asbag57
(g78
g59
NtRp2406
(dp2407
g62
(dp2408
g89
g90
ssg71
g2397
sg64
(lp2409
S':'
asbag57
(g78
g59
NtRp2410
(dp2411
g62
(dp2412
sg71
g2397
sg64
(lp2413
g57
(g58
g59
NtRp2414
(dp2415
g62
(dp2416
g70
I5
ssg71
g2410
sg64
(lp2417
S'datetime.datetime(2013, 4, 17, 15, 58, 48, 74063)'
p2418
asbasbasbag57
(g73
g59
NtRp2419
(dp2420
g62
(dp2421
sg71
g67
sg64
(lp2422
g57
(g78
g59
NtRp2423
(dp2424
g62
(dp2425
g82
g83
ssg71
g2419
sg64
(lp2426
S'post_vars'
p2427
asbag57
(g78
g59
NtRp2428
(dp2429
g62
(dp2430
g89
g90
ssg71
g2419
sg64
(lp2431
S':'
asbag57
(g78
g59
NtRp2432
(dp2433
g62
(dp2434
sg71
g2419
sg64
(lp2435
g57
(g58
g59
NtRp2436
(dp2437
g62
(dp2438
g70
I5
ssg71
g2432
sg64
(lp2439
g57
(g66
g59
NtRp2440
(dp2441
g62
(dp2442
g70
I4
ssg71
Nsg64
(lp2443
sbasbasbasbag57
(g73
g59
NtRp2444
(dp2445
g62
(dp2446
sg71
g67
sg64
(lp2447
g57
(g78
g59
NtRp2448
(dp2449
g62
(dp2450
g82
g83
ssg71
g2444
sg64
(lp2451
S'raw_args'
p2452
asbag57
(g78
g59
NtRp2453
(dp2454
g62
(dp2455
g89
g90
ssg71
g2444
sg64
(lp2456
S':'
asbag57
(g78
g59
NtRp2457
(dp2458
g62
(dp2459
sg71
g2444
sg64
(lp2460
g57
(g58
g59
NtRp2461
(dp2462
g62
(dp2463
g70
I5
ssg71
g2457
sg64
(lp2464
S''
asbasbasbag57
(g73
g59
NtRp2465
(dp2466
g62
(dp2467
sg71
g67
sg64
(lp2468
g57
(g78
g59
NtRp2469
(dp2470
g62
(dp2471
g82
g83
ssg71
g2465
sg64
(lp2472
S'raw_extension'
p2473
asbag57
(g78
g59
NtRp2474
(dp2475
g62
(dp2476
g89
g90
ssg71
g2465
sg64
(lp2477
S':'
asbag57
(g78
g59
NtRp2478
(dp2479
g62
(dp2480
sg71
g2465
sg64
(lp2481
g57
(g58
g59
NtRp2482
(dp2483
g62
(dp2484
g70
I5
ssg71
g2478
sg64
(lp2485
S'None'
p2486
asbasbasbag57
(g73
g59
NtRp2487
(dp2488
g62
(dp2489
sg71
g67
sg64
(lp2490
g57
(g78
g59
NtRp2491
(dp2492
g62
(dp2493
g82
g83
ssg71
g2487
sg64
(lp2494
S'url'
p2495
asbag57
(g78
g59
NtRp2496
(dp2497
g62
(dp2498
g89
g90
ssg71
g2487
sg64
(lp2499
S':'
asbag57
(g78
g59
NtRp2500
(dp2501
g62
(dp2502
sg71
g2487
sg64
(lp2503
g57
(g58
g59
NtRp2504
(dp2505
g62
(dp2506
g70
I5
ssg71
g2500
sg64
(lp2507
g1336
asbasbasbag57
(g73
g59
NtRp2508
(dp2509
g62
(dp2510
sg71
g67
sg64
(lp2511
g57
(g78
g59
NtRp2512
(dp2513
g62
(dp2514
g82
g83
ssg71
g2508
sg64
(lp2515
S'utcnow'
p2516
asbag57
(g78
g59
NtRp2517
(dp2518
g62
(dp2519
g89
g90
ssg71
g2508
sg64
(lp2520
S':'
asbag57
(g78
g59
NtRp2521
(dp2522
g62
(dp2523
sg71
g2508
sg64
(lp2524
g57
(g58
g59
NtRp2525
(dp2526
g62
(dp2527
g70
I5
ssg71
g2521
sg64
(lp2528
S'datetime.datetime(2013, 4, 17, 10, 28, 48, 74113)'
p2529
asbasbasbag57
(g73
g59
NtRp2530
(dp2531
g62
(dp2532
sg71
g67
sg64
(lp2533
g57
(g78
g59
NtRp2534
(dp2535
g62
(dp2536
g82
g83
ssg71
g2530
sg64
(lp2537
S'uuid'
p2538
asbag57
(g78
g59
NtRp2539
(dp2540
g62
(dp2541
g89
g90
ssg71
g2530
sg64
(lp2542
S':'
asbag57
(g78
g59
NtRp2543
(dp2544
g62
(dp2545
sg71
g2530
sg64
(lp2546
g57
(g58
g59
NtRp2547
(dp2548
g62
(dp2549
g70
I5
ssg71
g2543
sg64
(lp2550
S'IIIT_calendars/127.0.0.1.2013-04-17.15-58-48.3103c70b-eecd-46ac-8513-77ba6d7e0ca0'
p2551
asbasbasbag57
(g73
g59
NtRp2552
(dp2553
g62
(dp2554
sg71
g67
sg64
(lp2555
g57
(g78
g59
NtRp2556
(dp2557
g62
(dp2558
g82
g83
ssg71
g2552
sg64
(lp2559
S'vars'
p2560
asbag57
(g78
g59
NtRp2561
(dp2562
g62
(dp2563
g89
g90
ssg71
g2552
sg64
(lp2564
S':'
asbag57
(g78
g59
NtRp2565
(dp2566
g62
(dp2567
sg71
g2552
sg64
(lp2568
g57
(g58
g59
NtRp2569
(dp2570
g62
(dp2571
g70
I5
ssg71
g2565
sg64
(lp2572
g57
(g66
g59
NtRp2573
(dp2574
g62
(dp2575
g70
I4
ssg71
Nsg64
(lp2576
sbasbasbasbag57
(g73
g59
NtRp2577
(dp2578
g62
(dp2579
sg71
g67
sg64
(lp2580
g57
(g78
g59
NtRp2581
(dp2582
g62
(dp2583
g82
g83
ssg71
g2577
sg64
(lp2584
S'wsgi'
p2585
asbag57
(g78
g59
NtRp2586
(dp2587
g62
(dp2588
g89
g90
ssg71
g2577
sg64
(lp2589
S':'
asbag57
(g78
g59
NtRp2590
(dp2591
g62
(dp2592
sg71
g2577
sg64
(lp2593
g57
(g58
g59
NtRp2594
(dp2595
g62
(dp2596
g70
I5
ssg71
g2590
sg64
(lp2597
g57
(g66
g59
NtRp2598
(dp2599
g62
(dp2600
g70
I4
ssg71
Nsg64
(lp2601
g57
(g73
g59
NtRp2602
(dp2603
g62
(dp2604
sg71
g2598
sg64
(lp2605
g57
(g78
g59
NtRp2606
(dp2607
g62
(dp2608
g82
g83
ssg71
g2602
sg64
(lp2609
S'environ'
p2610
asbag57
(g78
g59
NtRp2611
(dp2612
g62
(dp2613
g89
g90
ssg71
g2602
sg64
(lp2614
S':'
asbag57
(g78
g59
NtRp2615
(dp2616
g62
(dp2617
sg71
g2602
sg64
(lp2618
g57
(g58
g59
NtRp2619
(dp2620
g62
(dp2621
g70
I4
ssg71
g2615
sg64
(lp2622
g57
(g66
g59
NtRp2623
(dp2624
g62
(dp2625
g70
I3
ssg71
Nsg64
(lp2626
g57
(g73
g59
NtRp2627
(dp2628
g62
(dp2629
sg71
g2623
sg64
(lp2630
g57
(g78
g59
NtRp2631
(dp2632
g62
(dp2633
g82
g83
ssg71
g2627
sg64
(lp2634
S'HTTP_ACCEPT'
p2635
asbag57
(g78
g59
NtRp2636
(dp2637
g62
(dp2638
g89
g90
ssg71
g2627
sg64
(lp2639
S':'
asbag57
(g78
g59
NtRp2640
(dp2641
g62
(dp2642
sg71
g2627
sg64
(lp2643
g57
(g58
g59
NtRp2644
(dp2645
g62
(dp2646
g70
I3
ssg71
g2640
sg64
(lp2647
g1028
asbasbasbag57
(g73
g59
NtRp2648
(dp2649
g62
(dp2650
sg71
g2623
sg64
(lp2651
g57
(g78
g59
NtRp2652
(dp2653
g62
(dp2654
g82
g83
ssg71
g2648
sg64
(lp2655
S'HTTP_ACCEPT_ENCODING'
p2656
asbag57
(g78
g59
NtRp2657
(dp2658
g62
(dp2659
g89
g90
ssg71
g2648
sg64
(lp2660
S':'
asbag57
(g78
g59
NtRp2661
(dp2662
g62
(dp2663
sg71
g2648
sg64
(lp2664
g57
(g58
g59
NtRp2665
(dp2666
g62
(dp2667
g70
I3
ssg71
g2661
sg64
(lp2668
g1050
asbasbasbag57
(g73
g59
NtRp2669
(dp2670
g62
(dp2671
sg71
g2623
sg64
(lp2672
g57
(g78
g59
NtRp2673
(dp2674
g62
(dp2675
g82
g83
ssg71
g2669
sg64
(lp2676
S'HTTP_ACCEPT_LANGUAGE'
p2677
asbag57
(g78
g59
NtRp2678
(dp2679
g62
(dp2680
g89
g90
ssg71
g2669
sg64
(lp2681
S':'
asbag57
(g78
g59
NtRp2682
(dp2683
g62
(dp2684
sg71
g2669
sg64
(lp2685
g57
(g58
g59
NtRp2686
(dp2687
g62
(dp2688
g70
I3
ssg71
g2682
sg64
(lp2689
g1072
asbasbasbag57
(g73
g59
NtRp2690
(dp2691
g62
(dp2692
sg71
g2623
sg64
(lp2693
g57
(g78
g59
NtRp2694
(dp2695
g62
(dp2696
g82
g83
ssg71
g2690
sg64
(lp2697
S'HTTP_CONNECTION'
p2698
asbag57
(g78
g59
NtRp2699
(dp2700
g62
(dp2701
g89
g90
ssg71
g2690
sg64
(lp2702
S':'
asbag57
(g78
g59
NtRp2703
(dp2704
g62
(dp2705
sg71
g2690
sg64
(lp2706
g57
(g58
g59
NtRp2707
(dp2708
g62
(dp2709
g70
I3
ssg71
g2703
sg64
(lp2710
g1094
asbasbasbag57
(g73
g59
NtRp2711
(dp2712
g62
(dp2713
sg71
g2623
sg64
(lp2714
g57
(g78
g59
NtRp2715
(dp2716
g62
(dp2717
g82
g83
ssg71
g2711
sg64
(lp2718
S'HTTP_COOKIE'
p2719
asbag57
(g78
g59
NtRp2720
(dp2721
g62
(dp2722
g89
g90
ssg71
g2711
sg64
(lp2723
S':'
asbag57
(g78
g59
NtRp2724
(dp2725
g62
(dp2726
sg71
g2711
sg64
(lp2727
g57
(g58
g59
NtRp2728
(dp2729
g62
(dp2730
g70
I3
ssg71
g2724
sg64
(lp2731
g1116
asbasbasbag57
(g73
g59
NtRp2732
(dp2733
g62
(dp2734
sg71
g2623
sg64
(lp2735
g57
(g78
g59
NtRp2736
(dp2737
g62
(dp2738
g82
g83
ssg71
g2732
sg64
(lp2739
S'HTTP_HOST'
p2740
asbag57
(g78
g59
NtRp2741
(dp2742
g62
(dp2743
g89
g90
ssg71
g2732
sg64
(lp2744
S':'
asbag57
(g78
g59
NtRp2745
(dp2746
g62
(dp2747
sg71
g2732
sg64
(lp2748
g57
(g58
g59
NtRp2749
(dp2750
g62
(dp2751
g70
I3
ssg71
g2745
sg64
(lp2752
g1138
asbasbasbag57
(g73
g59
NtRp2753
(dp2754
g62
(dp2755
sg71
g2623
sg64
(lp2756
g57
(g78
g59
NtRp2757
(dp2758
g62
(dp2759
g82
g83
ssg71
g2753
sg64
(lp2760
S'HTTP_REFERER'
p2761
asbag57
(g78
g59
NtRp2762
(dp2763
g62
(dp2764
g89
g90
ssg71
g2753
sg64
(lp2765
S':'
asbag57
(g78
g59
NtRp2766
(dp2767
g62
(dp2768
sg71
g2753
sg64
(lp2769
g57
(g58
g59
NtRp2770
(dp2771
g62
(dp2772
g70
I3
ssg71
g2766
sg64
(lp2773
g1160
asbasbasbag57
(g73
g59
NtRp2774
(dp2775
g62
(dp2776
sg71
g2623
sg64
(lp2777
g57
(g78
g59
NtRp2778
(dp2779
g62
(dp2780
g82
g83
ssg71
g2774
sg64
(lp2781
S'HTTP_USER_AGENT'
p2782
asbag57
(g78
g59
NtRp2783
(dp2784
g62
(dp2785
g89
g90
ssg71
g2774
sg64
(lp2786
S':'
asbag57
(g78
g59
NtRp2787
(dp2788
g62
(dp2789
sg71
g2774
sg64
(lp2790
g57
(g58
g59
NtRp2791
(dp2792
g62
(dp2793
g70
I3
ssg71
g2787
sg64
(lp2794
g1182
asbasbasbag57
(g73
g59
NtRp2795
(dp2796
g62
(dp2797
sg71
g2623
sg64
(lp2798
g57
(g78
g59
NtRp2799
(dp2800
g62
(dp2801
g82
g83
ssg71
g2795
sg64
(lp2802
S'PATH_INFO'
p2803
asbag57
(g78
g59
NtRp2804
(dp2805
g62
(dp2806
g89
g90
ssg71
g2795
sg64
(lp2807
S':'
asbag57
(g78
g59
NtRp2808
(dp2809
g62
(dp2810
sg71
g2795
sg64
(lp2811
g57
(g58
g59
NtRp2812
(dp2813
g62
(dp2814
g70
I3
ssg71
g2808
sg64
(lp2815
g1336
asbasbasbag57
(g73
g59
NtRp2816
(dp2817
g62
(dp2818
sg71
g2623
sg64
(lp2819
g57
(g78
g59
NtRp2820
(dp2821
g62
(dp2822
g82
g83
ssg71
g2816
sg64
(lp2823
S'QUERY_STRING'
p2824
asbag57
(g78
g59
NtRp2825
(dp2826
g62
(dp2827
g89
g90
ssg71
g2816
sg64
(lp2828
S':'
asbag57
(g78
g59
NtRp2829
(dp2830
g62
(dp2831
sg71
g2816
sg64
(lp2832
g57
(g58
g59
NtRp2833
(dp2834
g62
(dp2835
g70
I3
ssg71
g2829
sg64
(lp2836
S''
asbasbasbag57
(g73
g59
NtRp2837
(dp2838
g62
(dp2839
sg71
g2623
sg64
(lp2840
g57
(g78
g59
NtRp2841
(dp2842
g62
(dp2843
g82
g83
ssg71
g2837
sg64
(lp2844
S'REMOTE_ADDR'
p2845
asbag57
(g78
g59
NtRp2846
(dp2847
g62
(dp2848
g89
g90
ssg71
g2837
sg64
(lp2849
S':'
asbag57
(g78
g59
NtRp2850
(dp2851
g62
(dp2852
sg71
g2837
sg64
(lp2853
g57
(g58
g59
NtRp2854
(dp2855
g62
(dp2856
g70
I3
ssg71
g2850
sg64
(lp2857
g212
asbasbasbag57
(g73
g59
NtRp2858
(dp2859
g62
(dp2860
sg71
g2623
sg64
(lp2861
g57
(g78
g59
NtRp2862
(dp2863
g62
(dp2864
g82
g83
ssg71
g2858
sg64
(lp2865
S'REMOTE_PORT'
p2866
asbag57
(g78
g59
NtRp2867
(dp2868
g62
(dp2869
g89
g90
ssg71
g2858
sg64
(lp2870
S':'
asbag57
(g78
g59
NtRp2871
(dp2872
g62
(dp2873
sg71
g2858
sg64
(lp2874
g57
(g58
g59
NtRp2875
(dp2876
g62
(dp2877
g70
I3
ssg71
g2871
sg64
(lp2878
g1400
asbasbasbag57
(g73
g59
NtRp2879
(dp2880
g62
(dp2881
sg71
g2623
sg64
(lp2882
g57
(g78
g59
NtRp2883
(dp2884
g62
(dp2885
g82
g83
ssg71
g2879
sg64
(lp2886
S'REQUEST_METHOD'
p2887
asbag57
(g78
g59
NtRp2888
(dp2889
g62
(dp2890
g89
g90
ssg71
g2879
sg64
(lp2891
S':'
asbag57
(g78
g59
NtRp2892
(dp2893
g62
(dp2894
sg71
g2879
sg64
(lp2895
g57
(g58
g59
NtRp2896
(dp2897
g62
(dp2898
g70
I3
ssg71
g2892
sg64
(lp2899
g1422
asbasbasbag57
(g73
g59
NtRp2900
(dp2901
g62
(dp2902
sg71
g2623
sg64
(lp2903
g57
(g78
g59
NtRp2904
(dp2905
g62
(dp2906
g82
g83
ssg71
g2900
sg64
(lp2907
S'REQUEST_URI'
p2908
asbag57
(g78
g59
NtRp2909
(dp2910
g62
(dp2911
g89
g90
ssg71
g2900
sg64
(lp2912
S':'
asbag57
(g78
g59
NtRp2913
(dp2914
g62
(dp2915
sg71
g2900
sg64
(lp2916
g57
(g58
g59
NtRp2917
(dp2918
g62
(dp2919
g70
I3
ssg71
g2913
sg64
(lp2920
g1336
asbasbasbag57
(g73
g59
NtRp2921
(dp2922
g62
(dp2923
sg71
g2623
sg64
(lp2924
g57
(g78
g59
NtRp2925
(dp2926
g62
(dp2927
g82
g83
ssg71
g2921
sg64
(lp2928
S'SCRIPT_NAME'
p2929
asbag57
(g78
g59
NtRp2930
(dp2931
g62
(dp2932
g89
g90
ssg71
g2921
sg64
(lp2933
S':'
asbag57
(g78
g59
NtRp2934
(dp2935
g62
(dp2936
sg71
g2921
sg64
(lp2937
g57
(g58
g59
NtRp2938
(dp2939
g62
(dp2940
g70
I3
ssg71
g2934
sg64
(lp2941
S''
asbasbasbag57
(g73
g59
NtRp2942
(dp2943
g62
(dp2944
sg71
g2623
sg64
(lp2945
g57
(g78
g59
NtRp2946
(dp2947
g62
(dp2948
g82
g83
ssg71
g2942
sg64
(lp2949
S'SERVER_NAME'
p2950
asbag57
(g78
g59
NtRp2951
(dp2952
g62
(dp2953
g89
g90
ssg71
g2942
sg64
(lp2954
S':'
asbag57
(g78
g59
NtRp2955
(dp2956
g62
(dp2957
sg71
g2942
sg64
(lp2958
g57
(g58
g59
NtRp2959
(dp2960
g62
(dp2961
g70
I3
ssg71
g2955
sg64
(lp2962
g1486
asbasbasbag57
(g73
g59
NtRp2963
(dp2964
g62
(dp2965
sg71
g2623
sg64
(lp2966
g57
(g78
g59
NtRp2967
(dp2968
g62
(dp2969
g82
g83
ssg71
g2963
sg64
(lp2970
S'SERVER_PORT'
p2971
asbag57
(g78
g59
NtRp2972
(dp2973
g62
(dp2974
g89
g90
ssg71
g2963
sg64
(lp2975
S':'
asbag57
(g78
g59
NtRp2976
(dp2977
g62
(dp2978
sg71
g2963
sg64
(lp2979
g57
(g58
g59
NtRp2980
(dp2981
g62
(dp2982
g70
I3
ssg71
g2976
sg64
(lp2983
g1508
asbasbasbag57
(g73
g59
NtRp2984
(dp2985
g62
(dp2986
sg71
g2623
sg64
(lp2987
g57
(g78
g59
NtRp2988
(dp2989
g62
(dp2990
g82
g83
ssg71
g2984
sg64
(lp2991
S'SERVER_PROTOCOL'
p2992
asbag57
(g78
g59
NtRp2993
(dp2994
g62
(dp2995
g89
g90
ssg71
g2984
sg64
(lp2996
S':'
asbag57
(g78
g59
NtRp2997
(dp2998
g62
(dp2999
sg71
g2984
sg64
(lp3000
g57
(g58
g59
NtRp3001
(dp3002
g62
(dp3003
g70
I3
ssg71
g2997
sg64
(lp3004
g1530
asbasbasbag57
(g73
g59
NtRp3005
(dp3006
g62
(dp3007
sg71
g2623
sg64
(lp3008
g57
(g78
g59
NtRp3009
(dp3010
g62
(dp3011
g82
g83
ssg71
g3005
sg64
(lp3012
S'SERVER_SOFTWARE'
p3013
asbag57
(g78
g59
NtRp3014
(dp3015
g62
(dp3016
g89
g90
ssg71
g3005
sg64
(lp3017
S':'
asbag57
(g78
g59
NtRp3018
(dp3019
g62
(dp3020
sg71
g3005
sg64
(lp3021
g57
(g58
g59
NtRp3022
(dp3023
g62
(dp3024
g70
I3
ssg71
g3018
sg64
(lp3025
g1552
asbasbasbag57
(g73
g59
NtRp3026
(dp3027
g62
(dp3028
sg71
g2623
sg64
(lp3029
g57
(g78
g59
NtRp3030
(dp3031
g62
(dp3032
g82
g83
ssg71
g3026
sg64
(lp3033
S'wsgi.errors'
p3034
asbag57
(g78
g59
NtRp3035
(dp3036
g62
(dp3037
g89
g90
ssg71
g3026
sg64
(lp3038
S':'
asbag57
(g78
g59
NtRp3039
(dp3040
g62
(dp3041
sg71
g3026
sg64
(lp3042
g57
(g58
g59
NtRp3043
(dp3044
g62
(dp3045
g70
I3
ssg71
g3039
sg64
(lp3046
S"<open file '<stderr>', mode 'w' at 0xb73400d0>"
p3047
asbasbasbag57
(g73
g59
NtRp3048
(dp3049
g62
(dp3050
sg71
g2623
sg64
(lp3051
g57
(g78
g59
NtRp3052
(dp3053
g62
(dp3054
g82
g83
ssg71
g3048
sg64
(lp3055
S'wsgi.file_wrapper'
p3056
asbag57
(g78
g59
NtRp3057
(dp3058
g62
(dp3059
g89
g90
ssg71
g3048
sg64
(lp3060
S':'
asbag57
(g78
g59
NtRp3061
(dp3062
g62
(dp3063
sg71
g3048
sg64
(lp3064
g57
(g58
g59
NtRp3065
(dp3066
g62
(dp3067
g70
I3
ssg71
g3061
sg64
(lp3068
S'<class wsgiref.util.FileWrapper at 0x9884f8c>'
p3069
asbasbasbag57
(g73
g59
NtRp3070
(dp3071
g62
(dp3072
sg71
g2623
sg64
(lp3073
g57
(g78
g59
NtRp3074
(dp3075
g62
(dp3076
g82
g83
ssg71
g3070
sg64
(lp3077
S'wsgi.input'
p3078
asbag57
(g78
g59
NtRp3079
(dp3080
g62
(dp3081
g89
g90
ssg71
g3070
sg64
(lp3082
S':'
asbag57
(g78
g59
NtRp3083
(dp3084
g62
(dp3085
sg71
g3070
sg64
(lp3086
g57
(g58
g59
NtRp3087
(dp3088
g62
(dp3089
g70
I3
ssg71
g3083
sg64
(lp3090
S'<cStringIO.StringO object at 0xad113bc0>'
p3091
asbasbasbag57
(g73
g59
NtRp3092
(dp3093
g62
(dp3094
sg71
g2623
sg64
(lp3095
g57
(g78
g59
NtRp3096
(dp3097
g62
(dp3098
g82
g83
ssg71
g3092
sg64
(lp3099
S'wsgi.multiprocess'
p3100
asbag57
(g78
g59
NtRp3101
(dp3102
g62
(dp3103
g89
g90
ssg71
g3092
sg64
(lp3104
S':'
asbag57
(g78
g59
NtRp3105
(dp3106
g62
(dp3107
sg71
g3092
sg64
(lp3108
g57
(g58
g59
NtRp3109
(dp3110
g62
(dp3111
g70
I3
ssg71
g3105
sg64
(lp3112
g100
asbasbasbag57
(g73
g59
NtRp3113
(dp3114
g62
(dp3115
sg71
g2623
sg64
(lp3116
g57
(g78
g59
NtRp3117
(dp3118
g62
(dp3119
g82
g83
ssg71
g3113
sg64
(lp3120
S'wsgi.multithread'
p3121
asbag57
(g78
g59
NtRp3122
(dp3123
g62
(dp3124
g89
g90
ssg71
g3113
sg64
(lp3125
S':'
asbag57
(g78
g59
NtRp3126
(dp3127
g62
(dp3128
sg71
g3113
sg64
(lp3129
g57
(g58
g59
NtRp3130
(dp3131
g62
(dp3132
g70
I3
ssg71
g3126
sg64
(lp3133
g1769
asbasbasbag57
(g73
g59
NtRp3134
(dp3135
g62
(dp3136
sg71
g2623
sg64
(lp3137
g57
(g78
g59
NtRp3138
(dp3139
g62
(dp3140
g82
g83
ssg71
g3134
sg64
(lp3141
S'wsgi.run_once'
p3142
asbag57
(g78
g59
NtRp3143
(dp3144
g62
(dp3145
g89
g90
ssg71
g3134
sg64
(lp3146
S':'
asbag57
(g78
g59
NtRp3147
(dp3148
g62
(dp3149
sg71
g3134
sg64
(lp3150
g57
(g58
g59
NtRp3151
(dp3152
g62
(dp3153
g70
I3
ssg71
g3147
sg64
(lp3154
g100
asbasbasbag57
(g73
g59
NtRp3155
(dp3156
g62
(dp3157
sg71
g2623
sg64
(lp3158
g57
(g78
g59
NtRp3159
(dp3160
g62
(dp3161
g82
g83
ssg71
g3155
sg64
(lp3162
S'wsgi.url_scheme'
p3163
asbag57
(g78
g59
NtRp3164
(dp3165
g62
(dp3166
g89
g90
ssg71
g3155
sg64
(lp3167
S':'
asbag57
(g78
g59
NtRp3168
(dp3169
g62
(dp3170
sg71
g3155
sg64
(lp3171
g57
(g58
g59
NtRp3172
(dp3173
g62
(dp3174
g70
I3
ssg71
g3168
sg64
(lp3175
g1812
asbasbasbag57
(g73
g59
NtRp3176
(dp3177
g62
(dp3178
sg71
g2623
sg64
(lp3179
g57
(g78
g59
NtRp3180
(dp3181
g62
(dp3182
g82
g83
ssg71
g3176
sg64
(lp3183
S'wsgi.version'
p3184
asbag57
(g78
g59
NtRp3185
(dp3186
g62
(dp3187
g89
g90
ssg71
g3176
sg64
(lp3188
S':'
asbag57
(g78
g59
NtRp3189
(dp3190
g62
(dp3191
sg71
g3176
sg64
(lp3192
g57
(g58
g59
NtRp3193
(dp3194
g62
(dp3195
g70
I3
ssg71
g3189
sg64
(lp3196
S'1'
asbasbasbasbasbasbasbasbasbasbasbasbasbsS'frames'
p3197
(lp3198
(dp3199
S'file'
p3200
S'/home/user/Documents/2nd sem/ITWS-2/web2py/gluon/restricted.py'
p3201
sS'dump'
p3202
(dp3203
S'environment'
p3204
S"{'A': <class 'gluon.html.A'>, 'Auth': <class 'gluon.tools.Auth'>, 'B': <class 'gluon.html.B'>, 'BEAUTIFY': <class 'gluon.html.BEAUTIFY'>, 'BODY': <class 'gluon.html.BODY'>, 'BR': <class 'gluon.html.BR'>, 'BUTTON': <class 'gluon.html.BUTTON'>, 'CAT': <class 'gluon.html.CAT'>, 'CENTER': <class 'gluon.html.CENTER'>, 'CLEANUP': <class 'gluon.validators.CLEANUP'>, ...}"
p3205
sS'ccode'
p3206
S'<code object <module> at 0xb1a9b968, file "/home.../IIIT_calendars/controllers/default.py", line 11>'
p3207
ssS'lnum'
p3208
I212
sS'lines'
p3209
(dp3210
I207
S'    try:'
p3211
sI208
S'        if isinstance(code, types.CodeType):'
p3212
sI209
S'            ccode = code'
p3213
sI210
S'        else:'
p3214
sI211
S'            ccode = compile2(code, layer)'
p3215
sI212
S'        exec ccode in environment'
p3216
sI213
S'    except HTTP:'
p3217
sI214
S'        raise'
p3218
sI215
S'    except RestrictedError:'
p3219
sI216
S'        # do not encapsulate (obfuscate) the original RestrictedError'
p3220
ssS'call'
p3221
S"(code='# -*- coding: utf-8 -*-\\n# this file is released ...als()\\n\\nresponse._vars=response._caller(formedit)\\n', environment={'A': <class 'gluon.html.A'>, 'Auth': <class 'gluon.tools.Auth'>, 'B': <class 'gluon.html.B'>, 'BEAUTIFY': <class 'gluon.html.BEAUTIFY'>, 'BODY': <class 'gluon.html.BODY'>, 'BR': <class 'gluon.html.BR'>, 'BUTTON': <class 'gluon.html.BUTTON'>, 'CAT': <class 'gluon.html.CAT'>, 'CENTER': <class 'gluon.html.CENTER'>, 'CLEANUP': <class 'gluon.validators.CLEANUP'>, ...}, layer='/home/user/Documents/2nd sem/ITWS-2/web2py/applications/IIIT_calendars/controllers/default.py')"
p3222
sS'func'
p3223
S'restricted'
p3224
sa(dp3225
g3200
S'/home/user/Documents/2nd sem/ITWS-2/web2py/applications/IIIT_calendars/controllers/default.py'
p3226
sg3202
(dp3227
sg3208
I344
sg3209
(dp3228
I333
S'    t=db(db.tasks.Nameofuser==auth.user.id).select()'
p3229
sI334
S'    length=len(t)'
p3230
sI335
S'    coun=0'
p3231
sI336
S'    for i in t:'
p3232
sI337
S"        if i['Completed']==True:"
p3233
sI338
S'            coun=coun+1'
p3234
sI339
S'        if length==0:'
p3235
sI340
S'            per=0'
p3236
sI341
S'    per=coun/length*100'
p3237
sI342
S'    return locals()'
p3238
ssg3221
S'()'
p3239
sg3223
S'<module>'
p3240
sa(dp3241
g3200
S'/home/user/Documents/2nd sem/ITWS-2/web2py/gluon/globals.py'
p3242
sg3202
(dp3243
S'self'
p3244
S'undefined'
p3245
sS'f'
S'<function formedit>'
p3246
ssg3208
I193
sg3209
(dp3247
I192
S'        self._vars = None'
p3248
sI193
S'        self._caller = lambda f: f()'
p3249
sI194
S'        self._view_environment = None'
p3250
sI195
S'        self._custom_commit = None'
p3251
sI196
S'        self._custom_rollback = None'
p3252
sI197
S''
sI188
S'        self.menu = []             # used by the default view layout'
p3253
sI189
S'        self.files = []            # used by web2py_ajax.html'
p3254
sI190
S'        self.generic_patterns = []  # patterns to allow generic views'
p3255
sI191
S"        self.delimiters = ('{{', '}}')"
p3256
ssg3221
S'(f=<function formedit>)'
p3257
sg3223
S'<lambda>'
p3258
sa(dp3259
g3200
S'/home/user/Documents/2nd sem/ITWS-2/web2py/applications/IIIT_calendars/controllers/default.py'
p3260
sg3202
(dp3261
S'a'
g3245
sS'c'
S'None'
p3262
sS').select'
p3263
g3245
sS'db.events.id'
p3264
S'<gluon.dal.Field object>'
p3265
sS'global db'
p3266
S'<DAL uri="sqlite://storage.sqlite">'
p3267
sS'db.events'
p3268
S'<Table events (id,Nameofuser,TypeofCalendar,Titl...artdate,Enddate,Starttime,Endtime,All_day,Venue)>'
p3269
ssg3208
I144
sg3209
(dp3270
I139
S"    redirect(URL('index'))"
p3271
sI140
S'    return locals()'
p3272
sI141
S''
sI142
S'def formedit():'
p3273
sI143
S'    c=request.vars.event'
p3274
sI144
S'    a=db(db.events.id==c).select()[0]'
p3275
sI145
S'    return locals()'
p3276
sI146
S''
sI147
S'def formtask():'
p3277
sI148
S'    c=request.vars.task'
p3278
ssg3221
S'()'
p3279
sg3223
S'formedit'
p3280
sa(dp3281
g3200
S'/home/user/Documents/2nd sem/ITWS-2/web2py/gluon/dal.py'
p3282
sg3202
(dp3283
S'i'
S'0'
sS'self'
p3284
S'<Rows (0)>'
p3285
sS'self.records'
p3286
S'[]'
p3287
sS'row'
p3288
g3245
ssg3208
I9170
sg3209
(dp3289
I9165
S''
sI9166
S'    def __getslice__(self, a, b):'
p3290
sI9167
S'        return Rows(self.db,self.records[a:b],self.colnames)'
p3291
sI9168
S''
sI9169
S'    def __getitem__(self, i):'
p3292
sI9170
S'        row = self.records[i]'
p3293
sI9171
S'        keys = row.keys()'
p3294
sI9172
S"        if self.compact and len(keys) == 1 and keys[0] != '_extra':"
p3295
sI9173
S'            return row[row.keys()[0]]'
p3296
sI9174
S'        return row'
p3297
ssg3221
S'(self=<Rows (0)>, i=0)'
p3298
sg3223
g20
sasS'pyver'
p3299
S'Python 2.7.3: /usr/bin/python'
p3300
sS'session'
p3301
g57
(g58
g59
NtRp3302
(dp3303
g62
(dp3304
sg64
(lp3305
g57
(g66
g59
NtRp3306
(dp3307
g62
(dp3308
g70
I5
ssg71
Nsg64
(lp3309
g57
(g73
g59
NtRp3310
(dp3311
g62
(dp3312
sg71
g3306
sg64
(lp3313
g57
(g78
g59
NtRp3314
(dp3315
g62
(dp3316
g82
g83
ssg71
g3310
sg64
(lp3317
S'auth'
p3318
asbag57
(g78
g59
NtRp3319
(dp3320
g62
(dp3321
g89
g90
ssg71
g3310
sg64
(lp3322
S':'
asbag57
(g78
g59
NtRp3323
(dp3324
g62
(dp3325
sg71
g3310
sg64
(lp3326
g57
(g58
g59
NtRp3327
(dp3328
g62
(dp3329
g70
I5
ssg71
g3323
sg64
(lp3330
g57
(g66
g59
NtRp3331
(dp3332
g62
(dp3333
g70
I4
ssg71
Nsg64
(lp3334
g57
(g73
g59
NtRp3335
(dp3336
g62
(dp3337
sg71
g3331
sg64
(lp3338
g57
(g78
g59
NtRp3339
(dp3340
g62
(dp3341
g82
g83
ssg71
g3335
sg64
(lp3342
S'expiration'
p3343
asbag57
(g78
g59
NtRp3344
(dp3345
g62
(dp3346
g89
g90
ssg71
g3335
sg64
(lp3347
S':'
asbag57
(g78
g59
NtRp3348
(dp3349
g62
(dp3350
sg71
g3335
sg64
(lp3351
g57
(g58
g59
NtRp3352
(dp3353
g62
(dp3354
g70
I4
ssg71
g3348
sg64
(lp3355
S'3600'
p3356
asbasbasbag57
(g73
g59
NtRp3357
(dp3358
g62
(dp3359
sg71
g3331
sg64
(lp3360
g57
(g78
g59
NtRp3361
(dp3362
g62
(dp3363
g82
g83
ssg71
g3357
sg64
(lp3364
S'hmac_key'
p3365
asbag57
(g78
g59
NtRp3366
(dp3367
g62
(dp3368
g89
g90
ssg71
g3357
sg64
(lp3369
S':'
asbag57
(g78
g59
NtRp3370
(dp3371
g62
(dp3372
sg71
g3357
sg64
(lp3373
g57
(g58
g59
NtRp3374
(dp3375
g62
(dp3376
g70
I4
ssg71
g3370
sg64
(lp3377
S'3fefcbc3-ba38-480a-a373-39d58284242e'
p3378
asbasbasbag57
(g73
g59
NtRp3379
(dp3380
g62
(dp3381
sg71
g3331
sg64
(lp3382
g57
(g78
g59
NtRp3383
(dp3384
g62
(dp3385
g82
g83
ssg71
g3379
sg64
(lp3386
S'last_visit'
p3387
asbag57
(g78
g59
NtRp3388
(dp3389
g62
(dp3390
g89
g90
ssg71
g3379
sg64
(lp3391
S':'
asbag57
(g78
g59
NtRp3392
(dp3393
g62
(dp3394
sg71
g3379
sg64
(lp3395
g57
(g58
g59
NtRp3396
(dp3397
g62
(dp3398
g70
I4
ssg71
g3392
sg64
(lp3399
S'datetime.datetime(2013, 4, 17, 15, 58, 48, 74063)'
p3400
asbasbasbag57
(g73
g59
NtRp3401
(dp3402
g62
(dp3403
sg71
g3331
sg64
(lp3404
g57
(g78
g59
NtRp3405
(dp3406
g62
(dp3407
g82
g83
ssg71
g3401
sg64
(lp3408
S'remember'
p3409
asbag57
(g78
g59
NtRp3410
(dp3411
g62
(dp3412
g89
g90
ssg71
g3401
sg64
(lp3413
S':'
asbag57
(g78
g59
NtRp3414
(dp3415
g62
(dp3416
sg71
g3401
sg64
(lp3417
g57
(g58
g59
NtRp3418
(dp3419
g62
(dp3420
g70
I4
ssg71
g3414
sg64
(lp3421
g100
asbasbasbag57
(g73
g59
NtRp3422
(dp3423
g62
(dp3424
sg71
g3331
sg64
(lp3425
g57
(g78
g59
NtRp3426
(dp3427
g62
(dp3428
g82
g83
ssg71
g3422
sg64
(lp3429
S'user'
p3430
asbag57
(g78
g59
NtRp3431
(dp3432
g62
(dp3433
g89
g90
ssg71
g3422
sg64
(lp3434
S':'
asbag57
(g78
g59
NtRp3435
(dp3436
g62
(dp3437
sg71
g3422
sg64
(lp3438
g57
(g58
g59
NtRp3439
(dp3440
g62
(dp3441
g70
I4
ssg71
g3435
sg64
(lp3442
g57
(g66
g59
NtRp3443
(dp3444
g62
(dp3445
g70
I3
ssg71
Nsg64
(lp3446
g57
(g73
g59
NtRp3447
(dp3448
g62
(dp3449
sg71
g3443
sg64
(lp3450
g57
(g78
g59
NtRp3451
(dp3452
g62
(dp3453
g82
g83
ssg71
g3447
sg64
(lp3454
S'email'
p3455
asbag57
(g78
g59
NtRp3456
(dp3457
g62
(dp3458
g89
g90
ssg71
g3447
sg64
(lp3459
S':'
asbag57
(g78
g59
NtRp3460
(dp3461
g62
(dp3462
sg71
g3447
sg64
(lp3463
g57
(g58
g59
NtRp3464
(dp3465
g62
(dp3466
g70
I3
ssg71
g3460
sg64
(lp3467
S'simikedia93@gmail.com'
p3468
asbasbasbag57
(g73
g59
NtRp3469
(dp3470
g62
(dp3471
sg71
g3443
sg64
(lp3472
g57
(g78
g59
NtRp3473
(dp3474
g62
(dp3475
g82
g83
ssg71
g3469
sg64
(lp3476
S'first_name'
p3477
asbag57
(g78
g59
NtRp3478
(dp3479
g62
(dp3480
g89
g90
ssg71
g3469
sg64
(lp3481
S':'
asbag57
(g78
g59
NtRp3482
(dp3483
g62
(dp3484
sg71
g3469
sg64
(lp3485
g57
(g58
g59
NtRp3486
(dp3487
g62
(dp3488
g70
I3
ssg71
g3482
sg64
(lp3489
S'Simran'
p3490
asbasbasbag57
(g73
g59
NtRp3491
(dp3492
g62
(dp3493
sg71
g3443
sg64
(lp3494
g57
(g78
g59
NtRp3495
(dp3496
g62
(dp3497
g82
g83
ssg71
g3491
sg64
(lp3498
S'id'
p3499
asbag57
(g78
g59
NtRp3500
(dp3501
g62
(dp3502
g89
g90
ssg71
g3491
sg64
(lp3503
S':'
asbag57
(g78
g59
NtRp3504
(dp3505
g62
(dp3506
sg71
g3491
sg64
(lp3507
g57
(g58
g59
NtRp3508
(dp3509
g62
(dp3510
g70
I3
ssg71
g3504
sg64
(lp3511
S'17'
p3512
asbasbasbag57
(g73
g59
NtRp3513
(dp3514
g62
(dp3515
sg71
g3443
sg64
(lp3516
g57
(g78
g59
NtRp3517
(dp3518
g62
(dp3519
g82
g83
ssg71
g3513
sg64
(lp3520
S'last_name'
p3521
asbag57
(g78
g59
NtRp3522
(dp3523
g62
(dp3524
g89
g90
ssg71
g3513
sg64
(lp3525
S':'
asbag57
(g78
g59
NtRp3526
(dp3527
g62
(dp3528
sg71
g3513
sg64
(lp3529
g57
(g58
g59
NtRp3530
(dp3531
g62
(dp3532
g70
I3
ssg71
g3526
sg64
(lp3533
S'Kedia'
p3534
asbasbasbag57
(g73
g59
NtRp3535
(dp3536
g62
(dp3537
sg71
g3443
sg64
(lp3538
g57
(g78
g59
NtRp3539
(dp3540
g62
(dp3541
g82
g83
ssg71
g3535
sg64
(lp3542
S'registration_id'
p3543
asbag57
(g78
g59
NtRp3544
(dp3545
g62
(dp3546
g89
g90
ssg71
g3535
sg64
(lp3547
S':'
asbag57
(g78
g59
NtRp3548
(dp3549
g62
(dp3550
sg71
g3535
sg64
(lp3551
g57
(g58
g59
NtRp3552
(dp3553
g62
(dp3554
g70
I3
ssg71
g3548
sg64
(lp3555
S''
asbasbasbag57
(g73
g59
NtRp3556
(dp3557
g62
(dp3558
sg71
g3443
sg64
(lp3559
g57
(g78
g59
NtRp3560
(dp3561
g62
(dp3562
g82
g83
ssg71
g3556
sg64
(lp3563
S'registration_key'
p3564
asbag57
(g78
g59
NtRp3565
(dp3566
g62
(dp3567
g89
g90
ssg71
g3556
sg64
(lp3568
S':'
asbag57
(g78
g59
NtRp3569
(dp3570
g62
(dp3571
sg71
g3556
sg64
(lp3572
g57
(g58
g59
NtRp3573
(dp3574
g62
(dp3575
g70
I3
ssg71
g3569
sg64
(lp3576
S''
asbasbasbag57
(g73
g59
NtRp3577
(dp3578
g62
(dp3579
sg71
g3443
sg64
(lp3580
g57
(g78
g59
NtRp3581
(dp3582
g62
(dp3583
g82
g83
ssg71
g3577
sg64
(lp3584
S'reset_password_key'
p3585
asbag57
(g78
g59
NtRp3586
(dp3587
g62
(dp3588
g89
g90
ssg71
g3577
sg64
(lp3589
S':'
asbag57
(g78
g59
NtRp3590
(dp3591
g62
(dp3592
sg71
g3577
sg64
(lp3593
g57
(g58
g59
NtRp3594
(dp3595
g62
(dp3596
g70
I3
ssg71
g3590
sg64
(lp3597
S''
asbasbasbasbasbasbasbag57
(g73
g59
NtRp3598
(dp3599
g62
(dp3600
sg71
g3331
sg64
(lp3601
g57
(g78
g59
NtRp3602
(dp3603
g62
(dp3604
g82
g83
ssg71
g3598
sg64
(lp3605
S'user_groups'
p3606
asbag57
(g78
g59
NtRp3607
(dp3608
g62
(dp3609
g89
g90
ssg71
g3598
sg64
(lp3610
S':'
asbag57
(g78
g59
NtRp3611
(dp3612
g62
(dp3613
sg71
g3598
sg64
(lp3614
g57
(g58
g59
NtRp3615
(dp3616
g62
(dp3617
g70
I4
ssg71
g3611
sg64
(lp3618
g57
(g66
g59
NtRp3619
(dp3620
g62
(dp3621
g70
I3
ssg71
Nsg64
(lp3622
g57
(g73
g59
NtRp3623
(dp3624
g62
(dp3625
sg71
g3619
sg64
(lp3626
g57
(g78
g59
NtRp3627
(dp3628
g62
(dp3629
g82
g83
ssg71
g3623
sg64
(lp3630
S'17'
p3631
asbag57
(g78
g59
NtRp3632
(dp3633
g62
(dp3634
g89
g90
ssg71
g3623
sg64
(lp3635
S':'
asbag57
(g78
g59
NtRp3636
(dp3637
g62
(dp3638
sg71
g3623
sg64
(lp3639
g57
(g58
g59
NtRp3640
(dp3641
g62
(dp3642
g70
I3
ssg71
g3636
sg64
(lp3643
S'user_17'
p3644
asbasbasbasbasbasbasbasbasbasbasbag57
(g73
g59
NtRp3645
(dp3646
g62
(dp3647
sg71
g3306
sg64
(lp3648
g57
(g78
g59
NtRp3649
(dp3650
g62
(dp3651
g82
g83
ssg71
g3645
sg64
(lp3652
S'flash'
p3653
asbag57
(g78
g59
NtRp3654
(dp3655
g62
(dp3656
g89
g90
ssg71
g3645
sg64
(lp3657
S':'
asbag57
(g78
g59
NtRp3658
(dp3659
g62
(dp3660
sg71
g3645
sg64
(lp3661
g57
(g58
g59
NtRp3662
(dp3663
g62
(dp3664
g70
I5
ssg71
g3658
sg64
(lp3665
S'None'
p3666
asbasbasbasbasbsS'etype'
p3667
S"<type 'exceptions.IndexError'>"
p3668
sS'date'
p3669
S'Wed Apr 17 15:58:48 2013'
p3670
sS'response'
p3671
g57
(g58
g59
NtRp3672
(dp3673
g62
(dp3674
sg64
(lp3675
g57
(g66
g59
NtRp3676
(dp3677
g62
(dp3678
g70
I5
ssg71
Nsg64
(lp3679
g57
(g73
g59
NtRp3680
(dp3681
g62
(dp3682
sg71
g3676
sg64
(lp3683
g57
(g78
g59
NtRp3684
(dp3685
g62
(dp3686
g82
g83
ssg71
g3680
sg64
(lp3687
g155
asbag57
(g78
g59
NtRp3688
(dp3689
g62
(dp3690
g89
g90
ssg71
g3680
sg64
(lp3691
S':'
asbag57
(g78
g59
NtRp3692
(dp3693
g62
(dp3694
sg71
g3680
sg64
(lp3695
g57
(g58
g59
NtRp3696
(dp3697
g62
(dp3698
g70
I5
ssg71
g3692
sg64
(lp3699
S'<cStringIO.StringO object at 0xacd67540>'
p3700
asbasbasbag57
(g73
g59
NtRp3701
(dp3702
g62
(dp3703
sg71
g3676
sg64
(lp3704
g57
(g78
g59
NtRp3705
(dp3706
g62
(dp3707
g82
g83
ssg71
g3701
sg64
(lp3708
g243
asbag57
(g78
g59
NtRp3709
(dp3710
g62
(dp3711
g89
g90
ssg71
g3701
sg64
(lp3712
S':'
asbag57
(g78
g59
NtRp3713
(dp3714
g62
(dp3715
sg71
g3701
sg64
(lp3716
g57
(g58
g59
NtRp3717
(dp3718
g62
(dp3719
g70
I5
ssg71
g3713
sg64
(lp3720
g57
(g66
g59
NtRp3721
(dp3722
g62
(dp3723
g70
I4
ssg71
Nsg64
(lp3724
g57
(g73
g59
NtRp3725
(dp3726
g62
(dp3727
sg71
g3721
sg64
(lp3728
g57
(g78
g59
NtRp3729
(dp3730
g62
(dp3731
g82
g83
ssg71
g3725
sg64
(lp3732
S'session_id_iiit_calendars'
p3733
asbag57
(g78
g59
NtRp3734
(dp3735
g62
(dp3736
g89
g90
ssg71
g3725
sg64
(lp3737
S':'
asbag57
(g78
g59
NtRp3738
(dp3739
g62
(dp3740
sg71
g3725
sg64
(lp3741
g57
(g58
g59
NtRp3742
(dp3743
g62
(dp3744
g70
I4
ssg71
g3738
sg64
(lp3745
g475
ag57
(g66
g59
NtRp3746
(dp3747
g62
(dp3748
g70
I3
ssg71
Nsg64
(lp3749
g57
(g73
g59
NtRp3750
(dp3751
g62
(dp3752
sg71
g3746
sg64
(lp3753
g57
(g78
g59
NtRp3754
(dp3755
g62
(dp3756
g82
g83
ssg71
g3750
sg64
(lp3757
g294
asbag57
(g78
g59
NtRp3758
(dp3759
g62
(dp3760
g89
g90
ssg71
g3750
sg64
(lp3761
S':'
asbag57
(g78
g59
NtRp3762
(dp3763
g62
(dp3764
sg71
g3750
sg64
(lp3765
g57
(g58
g59
NtRp3766
(dp3767
g62
(dp3768
g70
I3
ssg71
g3762
sg64
(lp3769
S''
asbasbasbag57
(g73
g59
NtRp3770
(dp3771
g62
(dp3772
sg71
g3746
sg64
(lp3773
g57
(g78
g59
NtRp3774
(dp3775
g62
(dp3776
g82
g83
ssg71
g3770
sg64
(lp3777
g315
asbag57
(g78
g59
NtRp3778
(dp3779
g62
(dp3780
g89
g90
ssg71
g3770
sg64
(lp3781
S':'
asbag57
(g78
g59
NtRp3782
(dp3783
g62
(dp3784
sg71
g3770
sg64
(lp3785
g57
(g58
g59
NtRp3786
(dp3787
g62
(dp3788
g70
I3
ssg71
g3782
sg64
(lp3789
S''
asbasbasbag57
(g73
g59
NtRp3790
(dp3791
g62
(dp3792
sg71
g3746
sg64
(lp3793
g57
(g78
g59
NtRp3794
(dp3795
g62
(dp3796
g82
g83
ssg71
g3790
sg64
(lp3797
g336
asbag57
(g78
g59
NtRp3798
(dp3799
g62
(dp3800
g89
g90
ssg71
g3790
sg64
(lp3801
S':'
asbag57
(g78
g59
NtRp3802
(dp3803
g62
(dp3804
sg71
g3790
sg64
(lp3805
g57
(g58
g59
NtRp3806
(dp3807
g62
(dp3808
g70
I3
ssg71
g3802
sg64
(lp3809
S''
asbasbasbag57
(g73
g59
NtRp3810
(dp3811
g62
(dp3812
sg71
g3746
sg64
(lp3813
g57
(g78
g59
NtRp3814
(dp3815
g62
(dp3816
g82
g83
ssg71
g3810
sg64
(lp3817
g357
asbag57
(g78
g59
NtRp3818
(dp3819
g62
(dp3820
g89
g90
ssg71
g3810
sg64
(lp3821
S':'
asbag57
(g78
g59
NtRp3822
(dp3823
g62
(dp3824
sg71
g3810
sg64
(lp3825
g57
(g58
g59
NtRp3826
(dp3827
g62
(dp3828
g70
I3
ssg71
g3822
sg64
(lp3829
S''
asbasbasbag57
(g73
g59
NtRp3830
(dp3831
g62
(dp3832
sg71
g3746
sg64
(lp3833
g57
(g78
g59
NtRp3834
(dp3835
g62
(dp3836
g82
g83
ssg71
g3830
sg64
(lp3837
g378
asbag57
(g78
g59
NtRp3838
(dp3839
g62
(dp3840
g89
g90
ssg71
g3830
sg64
(lp3841
S':'
asbag57
(g78
g59
NtRp3842
(dp3843
g62
(dp3844
sg71
g3830
sg64
(lp3845
g57
(g58
g59
NtRp3846
(dp3847
g62
(dp3848
g70
I3
ssg71
g3842
sg64
(lp3849
S''
asbasbasbag57
(g73
g59
NtRp3850
(dp3851
g62
(dp3852
sg71
g3746
sg64
(lp3853
g57
(g78
g59
NtRp3854
(dp3855
g62
(dp3856
g82
g83
ssg71
g3850
sg64
(lp3857
g399
asbag57
(g78
g59
NtRp3858
(dp3859
g62
(dp3860
g89
g90
ssg71
g3850
sg64
(lp3861
S':'
asbag57
(g78
g59
NtRp3862
(dp3863
g62
(dp3864
sg71
g3850
sg64
(lp3865
g57
(g58
g59
NtRp3866
(dp3867
g62
(dp3868
g70
I3
ssg71
g3862
sg64
(lp3869
S'/'
asbasbasbag57
(g73
g59
NtRp3870
(dp3871
g62
(dp3872
sg71
g3746
sg64
(lp3873
g57
(g78
g59
NtRp3874
(dp3875
g62
(dp3876
g82
g83
ssg71
g3870
sg64
(lp3877
g420
asbag57
(g78
g59
NtRp3878
(dp3879
g62
(dp3880
g89
g90
ssg71
g3870
sg64
(lp3881
S':'
asbag57
(g78
g59
NtRp3882
(dp3883
g62
(dp3884
sg71
g3870
sg64
(lp3885
g57
(g58
g59
NtRp3886
(dp3887
g62
(dp3888
g70
I3
ssg71
g3882
sg64
(lp3889
S''
asbasbasbag57
(g73
g59
NtRp3890
(dp3891
g62
(dp3892
sg71
g3746
sg64
(lp3893
g57
(g78
g59
NtRp3894
(dp3895
g62
(dp3896
g82
g83
ssg71
g3890
sg64
(lp3897
g441
asbag57
(g78
g59
NtRp3898
(dp3899
g62
(dp3900
g89
g90
ssg71
g3890
sg64
(lp3901
S':'
asbag57
(g78
g59
NtRp3902
(dp3903
g62
(dp3904
sg71
g3890
sg64
(lp3905
g57
(g58
g59
NtRp3906
(dp3907
g62
(dp3908
g70
I3
ssg71
g3902
sg64
(lp3909
S''
asbasbasbasbasbasbasbasbasbasbasbag57
(g73
g59
NtRp3910
(dp3911
g62
(dp3912
sg71
g3676
sg64
(lp3913
g57
(g78
g59
NtRp3914
(dp3915
g62
(dp3916
g82
g83
ssg71
g3910
sg64
(lp3917
S'delimiters'
p3918
asbag57
(g78
g59
NtRp3919
(dp3920
g62
(dp3921
g89
g90
ssg71
g3910
sg64
(lp3922
S':'
asbag57
(g78
g59
NtRp3923
(dp3924
g62
(dp3925
sg71
g3910
sg64
(lp3926
g57
(g58
g59
NtRp3927
(dp3928
g62
(dp3929
g70
I5
ssg71
g3923
sg64
(lp3930
g57
(g66
g59
NtRp3931
(dp3932
g62
(dp3933
g70
I4
ssg71
Nsg64
(lp3934
g57
(g73
g59
NtRp3935
(dp3936
g62
(dp3937
sg71
g3931
sg64
(lp3938
g57
(g78
g59
NtRp3939
(dp3940
g62
(dp3941
sg71
g3935
sg64
(lp3942
g57
(g58
g59
NtRp3943
(dp3944
g62
(dp3945
g70
I4
ssg71
g3939
sg64
(lp3946
S'{{'
p3947
asbasbasbag57
(g73
g59
NtRp3948
(dp3949
g62
(dp3950
sg71
g3931
sg64
(lp3951
g57
(g78
g59
NtRp3952
(dp3953
g62
(dp3954
sg71
g3948
sg64
(lp3955
g57
(g58
g59
NtRp3956
(dp3957
g62
(dp3958
g70
I4
ssg71
g3952
sg64
(lp3959
S'}}'
p3960
asbasbasbasbasbasbasbag57
(g73
g59
NtRp3961
(dp3962
g62
(dp3963
sg71
g3676
sg64
(lp3964
g57
(g78
g59
NtRp3965
(dp3966
g62
(dp3967
g82
g83
ssg71
g3961
sg64
(lp3968
S'files'
p3969
asbag57
(g78
g59
NtRp3970
(dp3971
g62
(dp3972
g89
g90
ssg71
g3961
sg64
(lp3973
S':'
asbag57
(g78
g59
NtRp3974
(dp3975
g62
(dp3976
sg71
g3961
sg64
(lp3977
g57
(g58
g59
NtRp3978
(dp3979
g62
(dp3980
g70
I5
ssg71
g3974
sg64
(lp3981
g57
(g66
g59
NtRp3982
(dp3983
g62
(dp3984
g70
I4
ssg71
Nsg64
(lp3985
sbasbasbasbag57
(g73
g59
NtRp3986
(dp3987
g62
(dp3988
sg71
g3676
sg64
(lp3989
g57
(g78
g59
NtRp3990
(dp3991
g62
(dp3992
g82
g83
ssg71
g3986
sg64
(lp3993
S'flash'
p3994
asbag57
(g78
g59
NtRp3995
(dp3996
g62
(dp3997
g89
g90
ssg71
g3986
sg64
(lp3998
S':'
asbag57
(g78
g59
NtRp3999
(dp4000
g62
(dp4001
sg71
g3986
sg64
(lp4002
g57
(g58
g59
NtRp4003
(dp4004
g62
(dp4005
g70
I5
ssg71
g3999
sg64
(lp4006
S''
asbasbasbag57
(g73
g59
NtRp4007
(dp4008
g62
(dp4009
sg71
g3676
sg64
(lp4010
g57
(g78
g59
NtRp4011
(dp4012
g62
(dp4013
g82
g83
ssg71
g4007
sg64
(lp4014
S'generic_patterns'
p4015
asbag57
(g78
g59
NtRp4016
(dp4017
g62
(dp4018
g89
g90
ssg71
g4007
sg64
(lp4019
S':'
asbag57
(g78
g59
NtRp4020
(dp4021
g62
(dp4022
sg71
g4007
sg64
(lp4023
g57
(g58
g59
NtRp4024
(dp4025
g62
(dp4026
g70
I5
ssg71
g4020
sg64
(lp4027
g57
(g66
g59
NtRp4028
(dp4029
g62
(dp4030
g70
I4
ssg71
Nsg64
(lp4031
g57
(g73
g59
NtRp4032
(dp4033
g62
(dp4034
sg71
g4028
sg64
(lp4035
g57
(g78
g59
NtRp4036
(dp4037
g62
(dp4038
sg71
g4032
sg64
(lp4039
g57
(g58
g59
NtRp4040
(dp4041
g62
(dp4042
g70
I4
ssg71
g4036
sg64
(lp4043
S'*'
asbasbasbasbasbasbasbag57
(g73
g59
NtRp4044
(dp4045
g62
(dp4046
sg71
g3676
sg64
(lp4047
g57
(g78
g59
NtRp4048
(dp4049
g62
(dp4050
g82
g83
ssg71
g4044
sg64
(lp4051
S'google_analytics_id'
p4052
asbag57
(g78
g59
NtRp4053
(dp4054
g62
(dp4055
g89
g90
ssg71
g4044
sg64
(lp4056
S':'
asbag57
(g78
g59
NtRp4057
(dp4058
g62
(dp4059
sg71
g4044
sg64
(lp4060
g57
(g58
g59
NtRp4061
(dp4062
g62
(dp4063
g70
I5
ssg71
g4057
sg64
(lp4064
S'None'
p4065
asbasbasbag57
(g73
g59
NtRp4066
(dp4067
g62
(dp4068
sg71
g3676
sg64
(lp4069
g57
(g78
g59
NtRp4070
(dp4071
g62
(dp4072
g82
g83
ssg71
g4066
sg64
(lp4073
S'headers'
p4074
asbag57
(g78
g59
NtRp4075
(dp4076
g62
(dp4077
g89
g90
ssg71
g4066
sg64
(lp4078
S':'
asbag57
(g78
g59
NtRp4079
(dp4080
g62
(dp4081
sg71
g4066
sg64
(lp4082
g57
(g58
g59
NtRp4083
(dp4084
g62
(dp4085
g70
I5
ssg71
g4079
sg64
(lp4086
g57
(g66
g59
NtRp4087
(dp4088
g62
(dp4089
g70
I4
ssg71
Nsg64
(lp4090
g57
(g73
g59
NtRp4091
(dp4092
g62
(dp4093
sg71
g4087
sg64
(lp4094
g57
(g78
g59
NtRp4095
(dp4096
g62
(dp4097
g82
g83
ssg71
g4091
sg64
(lp4098
S'X-Powered-By'
p4099
asbag57
(g78
g59
NtRp4100
(dp4101
g62
(dp4102
g89
g90
ssg71
g4091
sg64
(lp4103
S':'
asbag57
(g78
g59
NtRp4104
(dp4105
g62
(dp4106
sg71
g4091
sg64
(lp4107
g57
(g58
g59
NtRp4108
(dp4109
g62
(dp4110
g70
I4
ssg71
g4104
sg64
(lp4111
S'web2py'
p4112
asbasbasbasbasbasbasbag57
(g73
g59
NtRp4113
(dp4114
g62
(dp4115
sg71
g3676
sg64
(lp4116
g57
(g78
g59
NtRp4117
(dp4118
g62
(dp4119
g82
g83
ssg71
g4113
sg64
(lp4120
S'logo'
p4121
asbag57
(g78
g59
NtRp4122
(dp4123
g62
(dp4124
g89
g90
ssg71
g4113
sg64
(lp4125
S':'
asbag57
(g78
g59
NtRp4126
(dp4127
g62
(dp4128
sg71
g4113
sg64
(lp4129
g57
(g58
g59
NtRp4130
(dp4131
g62
(dp4132
g70
I5
ssg71
g4126
sg64
(lp4133
g57
(cgluon.html
A
p4134
g59
NtRp4135
(dp4136
g62
(dp4137
S'_class'
p4138
S'brand'
p4139
sS'_href'
p4140
S'http://www.web2py.com/'
p4141
ssg71
Nsg64
(lp4142
g57
(cgluon.html
B
p4143
g59
NtRp4144
(dp4145
g62
(dp4146
sg71
g4135
sg64
(lp4147
S'web'
p4148
ag57
(cgluon.html
SPAN
p4149
g59
NtRp4150
(dp4151
g62
(dp4152
sg71
g4144
sg64
(lp4153
I2
asbaS'py'
p4154
asbacgluon.html
XML_unpickle
p4155
(S's\r\x00\x00\x00&trade;&nbsp;'
tRp4156
asbasbasbasbag57
(g73
g59
NtRp4157
(dp4158
g62
(dp4159
sg71
g3676
sg64
(lp4160
g57
(g78
g59
NtRp4161
(dp4162
g62
(dp4163
g82
g83
ssg71
g4157
sg64
(lp4164
S'menu'
p4165
asbag57
(g78
g59
NtRp4166
(dp4167
g62
(dp4168
g89
g90
ssg71
g4157
sg64
(lp4169
S':'
asbag57
(g78
g59
NtRp4170
(dp4171
g62
(dp4172
sg71
g4157
sg64
(lp4173
g57
(g58
g59
NtRp4174
(dp4175
g62
(dp4176
g70
I5
ssg71
g4170
sg64
(lp4177
g57
(g66
g59
NtRp4178
(dp4179
g62
(dp4180
g70
I4
ssg71
Nsg64
(lp4181
g57
(g73
g59
NtRp4182
(dp4183
g62
(dp4184
sg71
g4178
sg64
(lp4185
g57
(g78
g59
NtRp4186
(dp4187
g62
(dp4188
sg71
g4182
sg64
(lp4189
g57
(g58
g59
NtRp4190
(dp4191
g62
(dp4192
g70
I4
ssg71
g4186
sg64
(lp4193
g57
(g66
g59
NtRp4194
(dp4195
g62
(dp4196
g70
I3
ssg71
Nsg64
(lp4197
g57
(g73
g59
NtRp4198
(dp4199
g62
(dp4200
sg71
g4194
sg64
(lp4201
g57
(g78
g59
NtRp4202
(dp4203
g62
(dp4204
sg71
g4198
sg64
(lp4205
g57
(g58
g59
NtRp4206
(dp4207
g62
(dp4208
g70
I3
ssg71
g4202
sg64
(lp4209
cgluon.languages
lazyT_unpickle
p4210
(S's\x04\x00\x00\x00Home'
tRp4211
asbasbasbag57
(g73
g59
NtRp4212
(dp4213
g62
(dp4214
sg71
g4194
sg64
(lp4215
g57
(g78
g59
NtRp4216
(dp4217
g62
(dp4218
sg71
g4212
sg64
(lp4219
g57
(g58
g59
NtRp4220
(dp4221
g62
(dp4222
g70
I3
ssg71
g4216
sg64
(lp4223
g100
asbasbasbag57
(g73
g59
NtRp4224
(dp4225
g62
(dp4226
sg71
g4194
sg64
(lp4227
g57
(g78
g59
NtRp4228
(dp4229
g62
(dp4230
sg71
g4224
sg64
(lp4231
g57
(g58
g59
NtRp4232
(dp4233
g62
(dp4234
g70
I3
ssg71
g4228
sg64
(lp4235
S'/IIIT_calendars/default/index'
p4236
asbasbasbag57
(g73
g59
NtRp4237
(dp4238
g62
(dp4239
sg71
g4194
sg64
(lp4240
g57
(g78
g59
NtRp4241
(dp4242
g62
(dp4243
sg71
g4237
sg64
(lp4244
g57
(g58
g59
NtRp4245
(dp4246
g62
(dp4247
g70
I3
ssg71
g4241
sg64
(lp4248
g57
(g66
g59
NtRp4249
(dp4250
g62
(dp4251
g70
I2
ssg71
Nsg64
(lp4252
sbasbasbasbasbasbasbasbag57
(g73
g59
NtRp4253
(dp4254
g62
(dp4255
sg71
g4178
sg64
(lp4256
g57
(g78
g59
NtRp4257
(dp4258
g62
(dp4259
sg71
g4253
sg64
(lp4260
g57
(g58
g59
NtRp4261
(dp4262
g62
(dp4263
g70
I4
ssg71
g4257
sg64
(lp4264
g57
(g66
g59
NtRp4265
(dp4266
g62
(dp4267
g70
I3
ssg71
Nsg64
(lp4268
g57
(g73
g59
NtRp4269
(dp4270
g62
(dp4271
sg71
g4265
sg64
(lp4272
g57
(g78
g59
NtRp4273
(dp4274
g62
(dp4275
sg71
g4269
sg64
(lp4276
g57
(g58
g59
NtRp4277
(dp4278
g62
(dp4279
g70
I3
ssg71
g4273
sg64
(lp4280
g57
(g4149
g59
NtRp4281
(dp4282
g62
(dp4283
g4138
S'highlighted'
p4284
ssg71
Nsg64
(lp4285
g4112
asbasbasbasbag57
(g73
g59
NtRp4286
(dp4287
g62
(dp4288
sg71
g4265
sg64
(lp4289
g57
(g78
g59
NtRp4290
(dp4291
g62
(dp4292
sg71
g4286
sg64
(lp4293
g57
(g58
g59
NtRp4294
(dp4295
g62
(dp4296
g70
I3
ssg71
g4290
sg64
(lp4297
g100
asbasbasbag57
(g73
g59
NtRp4298
(dp4299
g62
(dp4300
sg71
g4265
sg64
(lp4301
g57
(g78
g59
NtRp4302
(dp4303
g62
(dp4304
sg71
g4298
sg64
(lp4305
g57
(g58
g59
NtRp4306
(dp4307
g62
(dp4308
g70
I3
ssg71
g4302
sg64
(lp4309
S'http://web2py.com'
p4310
asbasbasbag57
(g73
g59
NtRp4311
(dp4312
g62
(dp4313
sg71
g4265
sg64
(lp4314
g57
(g78
g59
NtRp4315
(dp4316
g62
(dp4317
sg71
g4311
sg64
(lp4318
g57
(g58
g59
NtRp4319
(dp4320
g62
(dp4321
g70
I3
ssg71
g4315
sg64
(lp4322
g57
(g66
g59
NtRp4323
(dp4324
g62
(dp4325
g70
I2
ssg71
Nsg64
(lp4326
g57
(g73
g59
NtRp4327
(dp4328
g62
(dp4329
sg71
g4323
sg64
(lp4330
g57
(g78
g59
NtRp4331
(dp4332
g62
(dp4333
sg71
g4327
sg64
(lp4334
g57
(g58
g59
NtRp4335
(dp4336
g62
(dp4337
g70
I2
ssg71
g4331
sg64
(lp4338
g57
(g66
g59
NtRp4339
(dp4340
g62
(dp4341
g70
I1
ssg71
Nsg64
(lp4342
g57
(g73
g59
NtRp4343
(dp4344
g62
(dp4345
sg71
g4339
sg64
(lp4346
g57
(g78
g59
NtRp4347
(dp4348
g62
(dp4349
sg71
g4343
sg64
(lp4350
g57
(g58
g59
NtRp4351
(dp4352
g62
(dp4353
g70
I1
ssg71
g4347
sg64
(lp4354
g4210
(S's\x08\x00\x00\x00My Sites'
tRp4355
asbasbasbag57
(g73
g59
NtRp4356
(dp4357
g62
(dp4358
sg71
g4339
sg64
(lp4359
g57
(g78
g59
NtRp4360
(dp4361
g62
(dp4362
sg71
g4356
sg64
(lp4363
g57
(g58
g59
NtRp4364
(dp4365
g62
(dp4366
g70
I1
ssg71
g4360
sg64
(lp4367
I00
asbasbasbag57
(g73
g59
NtRp4368
(dp4369
g62
(dp4370
sg71
g4339
sg64
(lp4371
g57
(g78
g59
NtRp4372
(dp4373
g62
(dp4374
sg71
g4368
sg64
(lp4375
g57
(g58
g59
NtRp4376
(dp4377
g62
(dp4378
g70
I1
ssg71
g4372
sg64
(lp4379
S'/admin/default/site'
p4380
asbasbasbasbasbasbasbag57
(g73
g59
NtRp4381
(dp4382
g62
(dp4383
sg71
g4323
sg64
(lp4384
g57
(g78
g59
NtRp4385
(dp4386
g62
(dp4387
sg71
g4381
sg64
(lp4388
g57
(g58
g59
NtRp4389
(dp4390
g62
(dp4391
g70
I2
ssg71
g4385
sg64
(lp4392
g57
(g66
g59
NtRp4393
(dp4394
g62
(dp4395
g70
I1
ssg71
Nsg64
(lp4396
g57
(g73
g59
NtRp4397
(dp4398
g62
(dp4399
sg71
g4393
sg64
(lp4400
g57
(g78
g59
NtRp4401
(dp4402
g62
(dp4403
sg71
g4397
sg64
(lp4404
g57
(g58
g59
NtRp4405
(dp4406
g62
(dp4407
g70
I1
ssg71
g4401
sg64
(lp4408
g4210
(S's\x08\x00\x00\x00This App'
tRp4409
asbasbasbag57
(g73
g59
NtRp4410
(dp4411
g62
(dp4412
sg71
g4393
sg64
(lp4413
g57
(g78
g59
NtRp4414
(dp4415
g62
(dp4416
sg71
g4410
sg64
(lp4417
g57
(g58
g59
NtRp4418
(dp4419
g62
(dp4420
g70
I1
ssg71
g4414
sg64
(lp4421
I00
asbasbasbag57
(g73
g59
NtRp4422
(dp4423
g62
(dp4424
sg71
g4393
sg64
(lp4425
g57
(g78
g59
NtRp4426
(dp4427
g62
(dp4428
sg71
g4422
sg64
(lp4429
g57
(g58
g59
NtRp4430
(dp4431
g62
(dp4432
g70
I1
ssg71
g4426
sg64
(lp4433
S'/admin/default/design/IIIT_calendars'
p4434
asbasbasbag57
(g73
g59
NtRp4435
(dp4436
g62
(dp4437
sg71
g4393
sg64
(lp4438
g57
(g78
g59
NtRp4439
(dp4440
g62
(dp4441
sg71
g4435
sg64
(lp4442
g57
(g58
g59
NtRp4443
(dp4444
g62
(dp4445
g70
I1
ssg71
g4439
sg64
(lp4446
(lp4447
(g4210
(S's\n\x00\x00\x00Controller'
tRp4448
I00
S'/admin/default/edit/IIIT_calendars/controllers/default.py'
tp4449
a(g4210
(S's\x04\x00\x00\x00View'
tRp4450
I00
S'/admin/default/edit/IIIT_calendars/views/default/formedit.html'
tp4451
a(g4210
(S's\x06\x00\x00\x00Layout'
tRp4452
I00
S'/admin/default/edit/IIIT_calendars/views/layout.html'
tp4453
a(g4210
(S's\n\x00\x00\x00Stylesheet'
tRp4454
I00
S'/admin/default/edit/IIIT_calendars/static/css/web2py.css'
tp4455
a(g4210
(S's\x08\x00\x00\x00DB Model'
tRp4456
I00
S'/admin/default/edit/IIIT_calendars/models/db.py'
tp4457
a(g4210
(S's\n\x00\x00\x00Menu Model'
tRp4458
I00
S'/admin/default/edit/IIIT_calendars/models/menu.py'
tp4459
a(g4210
(S's\x08\x00\x00\x00Database'
tRp4460
I00
S'/IIIT_calendars/appadmin/index'
tp4461
a(g4210
(S's\x06\x00\x00\x00Errors'
tRp4462
I00
S'/admin/default/errors/IIIT_calendars'
tp4463
a(g4210
(S's\x05\x00\x00\x00About'
tRp4464
I00
S'/admin/default/about/IIIT_calendars'
tp4465
aasbasbasbasbasbasbasbag57
(g73
g59
NtRp4466
(dp4467
g62
(dp4468
sg71
g4323
sg64
(lp4469
g57
(g78
g59
NtRp4470
(dp4471
g62
(dp4472
sg71
g4466
sg64
(lp4473
g57
(g58
g59
NtRp4474
(dp4475
g62
(dp4476
g70
I2
ssg71
g4470
sg64
(lp4477
g57
(g66
g59
NtRp4478
(dp4479
g62
(dp4480
g70
I1
ssg71
Nsg64
(lp4481
g57
(g73
g59
NtRp4482
(dp4483
g62
(dp4484
sg71
g4478
sg64
(lp4485
g57
(g78
g59
NtRp4486
(dp4487
g62
(dp4488
sg71
g4482
sg64
(lp4489
g57
(g58
g59
NtRp4490
(dp4491
g62
(dp4492
g70
I1
ssg71
g4486
sg64
(lp4493
S'web2py.com'
p4494
asbasbasbag57
(g73
g59
NtRp4495
(dp4496
g62
(dp4497
sg71
g4478
sg64
(lp4498
g57
(g78
g59
NtRp4499
(dp4500
g62
(dp4501
sg71
g4495
sg64
(lp4502
g57
(g58
g59
NtRp4503
(dp4504
g62
(dp4505
g70
I1
ssg71
g4499
sg64
(lp4506
I00
asbasbasbag57
(g73
g59
NtRp4507
(dp4508
g62
(dp4509
sg71
g4478
sg64
(lp4510
g57
(g78
g59
NtRp4511
(dp4512
g62
(dp4513
sg71
g4507
sg64
(lp4514
g57
(g58
g59
NtRp4515
(dp4516
g62
(dp4517
g70
I1
ssg71
g4511
sg64
(lp4518
S'http://www.web2py.com'
p4519
asbasbasbag57
(g73
g59
NtRp4520
(dp4521
g62
(dp4522
sg71
g4478
sg64
(lp4523
g57
(g78
g59
NtRp4524
(dp4525
g62
(dp4526
sg71
g4520
sg64
(lp4527
g57
(g58
g59
NtRp4528
(dp4529
g62
(dp4530
g70
I1
ssg71
g4524
sg64
(lp4531
(lp4532
(g4210
(S's\x08\x00\x00\x00Download'
tRp4533
I00
S'http://www.web2py.com/examples/default/download'
p4534
tp4535
a(g4210
(S's\x07\x00\x00\x00Support'
tRp4536
I00
S'http://www.web2py.com/examples/default/support'
p4537
tp4538
a(g4210
(S's\x04\x00\x00\x00Demo'
tRp4539
I00
S'http://web2py.com/demo_admin'
p4540
tp4541
a(g4210
(S's\x0e\x00\x00\x00Quick Examples'
tRp4542
I00
S'http://web2py.com/examples/default/examples'
p4543
tp4544
a(g4210
(S's\x03\x00\x00\x00FAQ'
tRp4545
I00
S'http://web2py.com/AlterEgo'
p4546
tp4547
a(g4210
(S's\x06\x00\x00\x00Videos'
tRp4548
I00
S'http://www.web2py.com/examples/default/videos/'
p4549
tp4550
a(g4210
(S's\x11\x00\x00\x00Free Applications'
tRp4551
I00
S'http://web2py.com/appliances'
p4552
tp4553
a(g4210
(S's\x07\x00\x00\x00Plugins'
tRp4554
I00
S'http://web2py.com/plugins'
p4555
tp4556
a(g4210
(S's\x07\x00\x00\x00Layouts'
tRp4557
I00
S'http://web2py.com/layouts'
p4558
tp4559
a(g4210
(S's\x07\x00\x00\x00Recipes'
tRp4560
I00
S'http://web2pyslices.com/'
p4561
tp4562
a(g4210
(S's\x08\x00\x00\x00Semantic'
tRp4563
I00
S'http://web2py.com/semantic'
p4564
tp4565
aasbasbasbasbasbasbasbag57
(g73
g59
NtRp4566
(dp4567
g62
(dp4568
sg71
g4323
sg64
(lp4569
g57
(g78
g59
NtRp4570
(dp4571
g62
(dp4572
sg71
g4566
sg64
(lp4573
g57
(g58
g59
NtRp4574
(dp4575
g62
(dp4576
g70
I2
ssg71
g4570
sg64
(lp4577
g57
(g66
g59
NtRp4578
(dp4579
g62
(dp4580
g70
I1
ssg71
Nsg64
(lp4581
g57
(g73
g59
NtRp4582
(dp4583
g62
(dp4584
sg71
g4578
sg64
(lp4585
g57
(g78
g59
NtRp4586
(dp4587
g62
(dp4588
sg71
g4582
sg64
(lp4589
g57
(g58
g59
NtRp4590
(dp4591
g62
(dp4592
g70
I1
ssg71
g4586
sg64
(lp4593
g4210
(S's\r\x00\x00\x00Documentation'
tRp4594
asbasbasbag57
(g73
g59
NtRp4595
(dp4596
g62
(dp4597
sg71
g4578
sg64
(lp4598
g57
(g78
g59
NtRp4599
(dp4600
g62
(dp4601
sg71
g4595
sg64
(lp4602
g57
(g58
g59
NtRp4603
(dp4604
g62
(dp4605
g70
I1
ssg71
g4599
sg64
(lp4606
I00
asbasbasbag57
(g73
g59
NtRp4607
(dp4608
g62
(dp4609
sg71
g4578
sg64
(lp4610
g57
(g78
g59
NtRp4611
(dp4612
g62
(dp4613
sg71
g4607
sg64
(lp4614
g57
(g58
g59
NtRp4615
(dp4616
g62
(dp4617
g70
I1
ssg71
g4611
sg64
(lp4618
S'http://www.web2py.com/book'
p4619
asbasbasbag57
(g73
g59
NtRp4620
(dp4621
g62
(dp4622
sg71
g4578
sg64
(lp4623
g57
(g78
g59
NtRp4624
(dp4625
g62
(dp4626
sg71
g4620
sg64
(lp4627
g57
(g58
g59
NtRp4628
(dp4629
g62
(dp4630
g70
I1
ssg71
g4624
sg64
(lp4631
(lp4632
(g4210
(S's\x07\x00\x00\x00Preface'
tRp4633
I00
S'http://www.web2py.com/book/default/chapter/00'
p4634
tp4635
a(g4210
(S's\x0c\x00\x00\x00Introduction'
tRp4636
I00
S'http://www.web2py.com/book/default/chapter/01'
p4637
tp4638
a(g4210
(S's\x06\x00\x00\x00Python'
tRp4639
I00
S'http://www.web2py.com/book/default/chapter/02'
p4640
tp4641
a(g4210
(S's\x08\x00\x00\x00Overview'
tRp4642
I00
S'http://www.web2py.com/book/default/chapter/03'
p4643
tp4644
a(g4210
(S's\x08\x00\x00\x00The Core'
tRp4645
I00
S'http://www.web2py.com/book/default/chapter/04'
p4646
tp4647
a(g4210
(S's\t\x00\x00\x00The Views'
tRp4648
I00
S'http://www.web2py.com/book/default/chapter/05'
p4649
tp4650
a(g4210
(S's\x08\x00\x00\x00Database'
tRp4651
I00
S'http://www.web2py.com/book/default/chapter/06'
p4652
tp4653
a(g4210
(S's\x14\x00\x00\x00Forms and Validators'
tRp4654
I00
S'http://www.web2py.com/book/default/chapter/07'
p4655
tp4656
a(g4210
(S's\r\x00\x00\x00Email and SMS'
tRp4657
I00
S'http://www.web2py.com/book/default/chapter/08'
p4658
tp4659
a(g4210
(S's\x0e\x00\x00\x00Access Control'
tRp4660
I00
S'http://www.web2py.com/book/default/chapter/09'
p4661
tp4662
a(g4210
(S's\x08\x00\x00\x00Services'
tRp4663
I00
S'http://www.web2py.com/book/default/chapter/10'
p4664
tp4665
a(g4210
(S's\x0c\x00\x00\x00Ajax Recipes'
tRp4666
I00
S'http://www.web2py.com/book/default/chapter/11'
p4667
tp4668
a(g4210
(S's\x16\x00\x00\x00Components and Plugins'
tRp4669
I00
S'http://www.web2py.com/book/default/chapter/12'
p4670
tp4671
a(g4210
(S's\x12\x00\x00\x00Deployment Recipes'
tRp4672
I00
S'http://www.web2py.com/book/default/chapter/13'
p4673
tp4674
a(g4210
(S's\r\x00\x00\x00Other Recipes'
tRp4675
I00
S'http://www.web2py.com/book/default/chapter/14'
p4676
tp4677
a(g4210
(S's\r\x00\x00\x00Buy this book'
tRp4678
I00
S'http://stores.lulu.com/web2py'
p4679
tp4680
aasbasbasbasbasbasbasbag57
(g73
g59
NtRp4681
(dp4682
g62
(dp4683
sg71
g4323
sg64
(lp4684
g57
(g78
g59
NtRp4685
(dp4686
g62
(dp4687
sg71
g4681
sg64
(lp4688
g57
(g58
g59
NtRp4689
(dp4690
g62
(dp4691
g70
I2
ssg71
g4685
sg64
(lp4692
g57
(g66
g59
NtRp4693
(dp4694
g62
(dp4695
g70
I1
ssg71
Nsg64
(lp4696
g57
(g73
g59
NtRp4697
(dp4698
g62
(dp4699
sg71
g4693
sg64
(lp4700
g57
(g78
g59
NtRp4701
(dp4702
g62
(dp4703
sg71
g4697
sg64
(lp4704
g57
(g58
g59
NtRp4705
(dp4706
g62
(dp4707
g70
I1
ssg71
g4701
sg64
(lp4708
g4210
(S's\t\x00\x00\x00Community'
tRp4709
asbasbasbag57
(g73
g59
NtRp4710
(dp4711
g62
(dp4712
sg71
g4693
sg64
(lp4713
g57
(g78
g59
NtRp4714
(dp4715
g62
(dp4716
sg71
g4710
sg64
(lp4717
g57
(g58
g59
NtRp4718
(dp4719
g62
(dp4720
g70
I1
ssg71
g4714
sg64
(lp4721
I00
asbasbasbag57
(g73
g59
NtRp4722
(dp4723
g62
(dp4724
sg71
g4693
sg64
(lp4725
g57
(g78
g59
NtRp4726
(dp4727
g62
(dp4728
sg71
g4722
sg64
(lp4729
g57
(g58
g59
NtRp4730
(dp4731
g62
(dp4732
g70
I1
ssg71
g4726
sg64
(lp4733
Nasbasbasbag57
(g73
g59
NtRp4734
(dp4735
g62
(dp4736
sg71
g4693
sg64
(lp4737
g57
(g78
g59
NtRp4738
(dp4739
g62
(dp4740
sg71
g4734
sg64
(lp4741
g57
(g58
g59
NtRp4742
(dp4743
g62
(dp4744
g70
I1
ssg71
g4738
sg64
(lp4745
(lp4746
(g4210
(S's\x06\x00\x00\x00Groups'
tRp4747
I00
S'http://www.web2py.com/examples/default/usergroups'
p4748
tp4749
a(g4210
(S's\x07\x00\x00\x00Twitter'
tRp4750
I00
S'http://twitter.com/web2py'
p4751
tp4752
a(g4210
(S's\t\x00\x00\x00Live Chat'
tRp4753
I00
S'http://webchat.freenode.net/?channels=web2py'
p4754
tp4755
aasbasbasbasbasbasbasbag57
(g73
g59
NtRp4756
(dp4757
g62
(dp4758
sg71
g4323
sg64
(lp4759
g57
(g78
g59
NtRp4760
(dp4761
g62
(dp4762
sg71
g4756
sg64
(lp4763
g57
(g58
g59
NtRp4764
(dp4765
g62
(dp4766
g70
I2
ssg71
g4760
sg64
(lp4767
g57
(g66
g59
NtRp4768
(dp4769
g62
(dp4770
g70
I1
ssg71
Nsg64
(lp4771
g57
(g73
g59
NtRp4772
(dp4773
g62
(dp4774
sg71
g4768
sg64
(lp4775
g57
(g78
g59
NtRp4776
(dp4777
g62
(dp4778
sg71
g4772
sg64
(lp4779
g57
(g58
g59
NtRp4780
(dp4781
g62
(dp4782
g70
I1
ssg71
g4776
sg64
(lp4783
g4210
(S's\x07\x00\x00\x00Plugins'
tRp4784
asbasbasbag57
(g73
g59
NtRp4785
(dp4786
g62
(dp4787
sg71
g4768
sg64
(lp4788
g57
(g78
g59
NtRp4789
(dp4790
g62
(dp4791
sg71
g4785
sg64
(lp4792
g57
(g58
g59
NtRp4793
(dp4794
g62
(dp4795
g70
I1
ssg71
g4789
sg64
(lp4796
I00
asbasbasbag57
(g73
g59
NtRp4797
(dp4798
g62
(dp4799
sg71
g4768
sg64
(lp4800
g57
(g78
g59
NtRp4801
(dp4802
g62
(dp4803
sg71
g4797
sg64
(lp4804
g57
(g58
g59
NtRp4805
(dp4806
g62
(dp4807
g70
I1
ssg71
g4801
sg64
(lp4808
Nasbasbasbag57
(g73
g59
NtRp4809
(dp4810
g62
(dp4811
sg71
g4768
sg64
(lp4812
g57
(g78
g59
NtRp4813
(dp4814
g62
(dp4815
sg71
g4809
sg64
(lp4816
g57
(g58
g59
NtRp4817
(dp4818
g62
(dp4819
g70
I1
ssg71
g4813
sg64
(lp4820
(lp4821
(S'plugin_wiki'
p4822
I00
S'http://web2py.com/examples/default/download'
p4823
tp4824
a(g4210
(S's\r\x00\x00\x00Other Plugins'
tRp4825
I00
g4555
tp4826
a(g4210
(S's\x0e\x00\x00\x00Layout Plugins'
tRp4827
I00
g4558
tp4828
aasbasbasbasbasbasbasbasbasbasbasbasbasbasbasbasbasbasbasbag57
(g73
g59
NtRp4829
(dp4830
g62
(dp4831
sg71
g3676
sg64
(lp4832
g57
(g78
g59
NtRp4833
(dp4834
g62
(dp4835
g82
g83
ssg71
g4829
sg64
(lp4836
S'meta'
p4837
asbag57
(g78
g59
NtRp4838
(dp4839
g62
(dp4840
g89
g90
ssg71
g4829
sg64
(lp4841
S':'
asbag57
(g78
g59
NtRp4842
(dp4843
g62
(dp4844
sg71
g4829
sg64
(lp4845
g57
(g58
g59
NtRp4846
(dp4847
g62
(dp4848
g70
I5
ssg71
g4842
sg64
(lp4849
g57
(g66
g59
NtRp4850
(dp4851
g62
(dp4852
g70
I4
ssg71
Nsg64
(lp4853
g57
(g73
g59
NtRp4854
(dp4855
g62
(dp4856
sg71
g4850
sg64
(lp4857
g57
(g78
g59
NtRp4858
(dp4859
g62
(dp4860
g82
g83
ssg71
g4854
sg64
(lp4861
S'author'
p4862
asbag57
(g78
g59
NtRp4863
(dp4864
g62
(dp4865
g89
g90
ssg71
g4854
sg64
(lp4866
S':'
asbag57
(g78
g59
NtRp4867
(dp4868
g62
(dp4869
sg71
g4854
sg64
(lp4870
g57
(g58
g59
NtRp4871
(dp4872
g62
(dp4873
g70
I4
ssg71
g4867
sg64
(lp4874
S'Your Name <you@example.com>'
p4875
asbasbasbag57
(g73
g59
NtRp4876
(dp4877
g62
(dp4878
sg71
g4850
sg64
(lp4879
g57
(g78
g59
NtRp4880
(dp4881
g62
(dp4882
g82
g83
ssg71
g4876
sg64
(lp4883
S'description'
p4884
asbag57
(g78
g59
NtRp4885
(dp4886
g62
(dp4887
g89
g90
ssg71
g4876
sg64
(lp4888
S':'
asbag57
(g78
g59
NtRp4889
(dp4890
g62
(dp4891
sg71
g4876
sg64
(lp4892
g57
(g58
g59
NtRp4893
(dp4894
g62
(dp4895
g70
I4
ssg71
g4889
sg64
(lp4896
S'a cool new app'
p4897
asbasbasbag57
(g73
g59
NtRp4898
(dp4899
g62
(dp4900
sg71
g4850
sg64
(lp4901
g57
(g78
g59
NtRp4902
(dp4903
g62
(dp4904
g82
g83
ssg71
g4898
sg64
(lp4905
S'generator'
p4906
asbag57
(g78
g59
NtRp4907
(dp4908
g62
(dp4909
g89
g90
ssg71
g4898
sg64
(lp4910
S':'
asbag57
(g78
g59
NtRp4911
(dp4912
g62
(dp4913
sg71
g4898
sg64
(lp4914
g57
(g58
g59
NtRp4915
(dp4916
g62
(dp4917
g70
I4
ssg71
g4911
sg64
(lp4918
S'Web2py Web Framework'
p4919
asbasbasbag57
(g73
g59
NtRp4920
(dp4921
g62
(dp4922
sg71
g4850
sg64
(lp4923
g57
(g78
g59
NtRp4924
(dp4925
g62
(dp4926
g82
g83
ssg71
g4920
sg64
(lp4927
S'keywords'
p4928
asbag57
(g78
g59
NtRp4929
(dp4930
g62
(dp4931
g89
g90
ssg71
g4920
sg64
(lp4932
S':'
asbag57
(g78
g59
NtRp4933
(dp4934
g62
(dp4935
sg71
g4920
sg64
(lp4936
g57
(g58
g59
NtRp4937
(dp4938
g62
(dp4939
g70
I4
ssg71
g4933
sg64
(lp4940
S'web2py, python, framework'
p4941
asbasbasbasbasbasbasbag57
(g73
g59
NtRp4942
(dp4943
g62
(dp4944
sg71
g3676
sg64
(lp4945
g57
(g78
g59
NtRp4946
(dp4947
g62
(dp4948
g82
g83
ssg71
g4942
sg64
(lp4949
S'models_to_run'
p4950
asbag57
(g78
g59
NtRp4951
(dp4952
g62
(dp4953
g89
g90
ssg71
g4942
sg64
(lp4954
S':'
asbag57
(g78
g59
NtRp4955
(dp4956
g62
(dp4957
sg71
g4942
sg64
(lp4958
g57
(g58
g59
NtRp4959
(dp4960
g62
(dp4961
g70
I5
ssg71
g4955
sg64
(lp4962
g57
(g66
g59
NtRp4963
(dp4964
g62
(dp4965
g70
I4
ssg71
Nsg64
(lp4966
g57
(g73
g59
NtRp4967
(dp4968
g62
(dp4969
sg71
g4963
sg64
(lp4970
g57
(g78
g59
NtRp4971
(dp4972
g62
(dp4973
sg71
g4967
sg64
(lp4974
g57
(g58
g59
NtRp4975
(dp4976
g62
(dp4977
g70
I4
ssg71
g4971
sg64
(lp4978
S'^\\w+\\.py$'
p4979
asbasbasbag57
(g73
g59
NtRp4980
(dp4981
g62
(dp4982
sg71
g4963
sg64
(lp4983
g57
(g78
g59
NtRp4984
(dp4985
g62
(dp4986
sg71
g4980
sg64
(lp4987
g57
(g58
g59
NtRp4988
(dp4989
g62
(dp4990
g70
I4
ssg71
g4984
sg64
(lp4991
S'^default/\\w+\\.py$'
p4992
asbasbasbag57
(g73
g59
NtRp4993
(dp4994
g62
(dp4995
sg71
g4963
sg64
(lp4996
g57
(g78
g59
NtRp4997
(dp4998
g62
(dp4999
sg71
g4993
sg64
(lp5000
g57
(g58
g59
NtRp5001
(dp5002
g62
(dp5003
g70
I4
ssg71
g4997
sg64
(lp5004
S'^default/formedit/\\w+\\.py$'
p5005
asbasbasbasbasbasbasbag57
(g73
g59
NtRp5006
(dp5007
g62
(dp5008
sg71
g3676
sg64
(lp5009
g57
(g78
g59
NtRp5010
(dp5011
g62
(dp5012
g82
g83
ssg71
g5006
sg64
(lp5013
S'postprocessing'
p5014
asbag57
(g78
g59
NtRp5015
(dp5016
g62
(dp5017
g89
g90
ssg71
g5006
sg64
(lp5018
S':'
asbag57
(g78
g59
NtRp5019
(dp5020
g62
(dp5021
sg71
g5006
sg64
(lp5022
g57
(g58
g59
NtRp5023
(dp5024
g62
(dp5025
g70
I5
ssg71
g5019
sg64
(lp5026
g57
(g66
g59
NtRp5027
(dp5028
g62
(dp5029
g70
I4
ssg71
Nsg64
(lp5030
sbasbasbasbag57
(g73
g59
NtRp5031
(dp5032
g62
(dp5033
sg71
g3676
sg64
(lp5034
g57
(g78
g59
NtRp5035
(dp5036
g62
(dp5037
g82
g83
ssg71
g5031
sg64
(lp5038
S'session_cookie_expires'
p5039
asbag57
(g78
g59
NtRp5040
(dp5041
g62
(dp5042
g89
g90
ssg71
g5031
sg64
(lp5043
S':'
asbag57
(g78
g59
NtRp5044
(dp5045
g62
(dp5046
sg71
g5031
sg64
(lp5047
g57
(g58
g59
NtRp5048
(dp5049
g62
(dp5050
g70
I5
ssg71
g5044
sg64
(lp5051
S'None'
p5052
asbasbasbag57
(g73
g59
NtRp5053
(dp5054
g62
(dp5055
sg71
g3676
sg64
(lp5056
g57
(g78
g59
NtRp5057
(dp5058
g62
(dp5059
g82
g83
ssg71
g5053
sg64
(lp5060
S'session_data_name'
p5061
asbag57
(g78
g59
NtRp5062
(dp5063
g62
(dp5064
g89
g90
ssg71
g5053
sg64
(lp5065
S':'
asbag57
(g78
g59
NtRp5066
(dp5067
g62
(dp5068
sg71
g5053
sg64
(lp5069
g57
(g58
g59
NtRp5070
(dp5071
g62
(dp5072
g70
I5
ssg71
g5066
sg64
(lp5073
S'session_data_iiit_calendars'
p5074
asbasbasbag57
(g73
g59
NtRp5075
(dp5076
g62
(dp5077
sg71
g3676
sg64
(lp5078
g57
(g78
g59
NtRp5079
(dp5080
g62
(dp5081
g82
g83
ssg71
g5075
sg64
(lp5082
S'session_file'
p5083
asbag57
(g78
g59
NtRp5084
(dp5085
g62
(dp5086
g89
g90
ssg71
g5075
sg64
(lp5087
S':'
asbag57
(g78
g59
NtRp5088
(dp5089
g62
(dp5090
sg71
g5075
sg64
(lp5091
g57
(g58
g59
NtRp5092
(dp5093
g62
(dp5094
g70
I5
ssg71
g5088
sg64
(lp5095
S"<open file '/home/user/Documents/2nd sem/ITWS-2/web2py/applications/IIIT_calendars/sessions/127.0.0.1-c725406e-a78b-4874-862b-2d9dbd976271', mode 'rb+' at 0xb065a440>"
p5096
asbasbasbag57
(g73
g59
NtRp5097
(dp5098
g62
(dp5099
sg71
g3676
sg64
(lp5100
g57
(g78
g59
NtRp5101
(dp5102
g62
(dp5103
g82
g83
ssg71
g5097
sg64
(lp5104
S'session_filename'
p5105
asbag57
(g78
g59
NtRp5106
(dp5107
g62
(dp5108
g89
g90
ssg71
g5097
sg64
(lp5109
S':'
asbag57
(g78
g59
NtRp5110
(dp5111
g62
(dp5112
sg71
g5097
sg64
(lp5113
g57
(g58
g59
NtRp5114
(dp5115
g62
(dp5116
g70
I5
ssg71
g5110
sg64
(lp5117
S'/home/user/Documents/2nd sem/ITWS-2/web2py/applications/IIIT_calendars/sessions/127.0.0.1-c725406e-a78b-4874-862b-2d9dbd976271'
p5118
asbasbasbag57
(g73
g59
NtRp5119
(dp5120
g62
(dp5121
sg71
g3676
sg64
(lp5122
g57
(g78
g59
NtRp5123
(dp5124
g62
(dp5125
g82
g83
ssg71
g5119
sg64
(lp5126
S'session_id'
p5127
asbag57
(g78
g59
NtRp5128
(dp5129
g62
(dp5130
g89
g90
ssg71
g5119
sg64
(lp5131
S':'
asbag57
(g78
g59
NtRp5132
(dp5133
g62
(dp5134
sg71
g5119
sg64
(lp5135
g57
(g58
g59
NtRp5136
(dp5137
g62
(dp5138
g70
I5
ssg71
g5132
sg64
(lp5139
g475
asbasbasbag57
(g73
g59
NtRp5140
(dp5141
g62
(dp5142
sg71
g3676
sg64
(lp5143
g57
(g78
g59
NtRp5144
(dp5145
g62
(dp5146
g82
g83
ssg71
g5140
sg64
(lp5147
S'session_id_name'
p5148
asbag57
(g78
g59
NtRp5149
(dp5150
g62
(dp5151
g89
g90
ssg71
g5140
sg64
(lp5152
S':'
asbag57
(g78
g59
NtRp5153
(dp5154
g62
(dp5155
sg71
g5140
sg64
(lp5156
g57
(g58
g59
NtRp5157
(dp5158
g62
(dp5159
g70
I5
ssg71
g5153
sg64
(lp5160
g3733
asbasbasbag57
(g73
g59
NtRp5161
(dp5162
g62
(dp5163
sg71
g3676
sg64
(lp5164
g57
(g78
g59
NtRp5165
(dp5166
g62
(dp5167
g82
g83
ssg71
g5161
sg64
(lp5168
S'session_locked'
p5169
asbag57
(g78
g59
NtRp5170
(dp5171
g62
(dp5172
g89
g90
ssg71
g5161
sg64
(lp5173
S':'
asbag57
(g78
g59
NtRp5174
(dp5175
g62
(dp5176
sg71
g5161
sg64
(lp5177
g57
(g58
g59
NtRp5178
(dp5179
g62
(dp5180
g70
I5
ssg71
g5174
sg64
(lp5181
g1769
asbasbasbag57
(g73
g59
NtRp5182
(dp5183
g62
(dp5184
sg71
g3676
sg64
(lp5185
g57
(g78
g59
NtRp5186
(dp5187
g62
(dp5188
g82
g83
ssg71
g5182
sg64
(lp5189
S'session_new'
p5190
asbag57
(g78
g59
NtRp5191
(dp5192
g62
(dp5193
g89
g90
ssg71
g5182
sg64
(lp5194
S':'
asbag57
(g78
g59
NtRp5195
(dp5196
g62
(dp5197
sg71
g5182
sg64
(lp5198
g57
(g58
g59
NtRp5199
(dp5200
g62
(dp5201
g70
I5
ssg71
g5195
sg64
(lp5202
g100
asbasbasbag57
(g73
g59
NtRp5203
(dp5204
g62
(dp5205
sg71
g3676
sg64
(lp5206
g57
(g78
g59
NtRp5207
(dp5208
g62
(dp5209
g82
g83
ssg71
g5203
sg64
(lp5210
S'session_storage_type'
p5211
asbag57
(g78
g59
NtRp5212
(dp5213
g62
(dp5214
g89
g90
ssg71
g5203
sg64
(lp5215
S':'
asbag57
(g78
g59
NtRp5216
(dp5217
g62
(dp5218
sg71
g5203
sg64
(lp5219
g57
(g58
g59
NtRp5220
(dp5221
g62
(dp5222
g70
I5
ssg71
g5216
sg64
(lp5223
g3200
asbasbasbag57
(g73
g59
NtRp5224
(dp5225
g62
(dp5226
sg71
g3676
sg64
(lp5227
g57
(g78
g59
NtRp5228
(dp5229
g62
(dp5230
g82
g83
ssg71
g5224
sg64
(lp5231
S'status'
p5232
asbag57
(g78
g59
NtRp5233
(dp5234
g62
(dp5235
g89
g90
ssg71
g5224
sg64
(lp5236
S':'
asbag57
(g78
g59
NtRp5237
(dp5238
g62
(dp5239
sg71
g5224
sg64
(lp5240
g57
(g58
g59
NtRp5241
(dp5242
g62
(dp5243
g70
I5
ssg71
g5237
sg64
(lp5244
S'200'
p5245
asbasbasbag57
(g73
g59
NtRp5246
(dp5247
g62
(dp5248
sg71
g3676
sg64
(lp5249
g57
(g78
g59
NtRp5250
(dp5251
g62
(dp5252
g82
g83
ssg71
g5246
sg64
(lp5253
S'subtitle'
p5254
asbag57
(g78
g59
NtRp5255
(dp5256
g62
(dp5257
g89
g90
ssg71
g5246
sg64
(lp5258
S':'
asbag57
(g78
g59
NtRp5259
(dp5260
g62
(dp5261
sg71
g5246
sg64
(lp5262
g57
(g58
g59
NtRp5263
(dp5264
g62
(dp5265
g70
I5
ssg71
g5259
sg64
(lp5266
g4210
(S's\r\x00\x00\x00customize me!'
tRp5267
asbasbasbag57
(g73
g59
NtRp5268
(dp5269
g62
(dp5270
sg71
g3676
sg64
(lp5271
g57
(g78
g59
NtRp5272
(dp5273
g62
(dp5274
g82
g83
ssg71
g5268
sg64
(lp5275
S'title'
p5276
asbag57
(g78
g59
NtRp5277
(dp5278
g62
(dp5279
g89
g90
ssg71
g5268
sg64
(lp5280
S':'
asbag57
(g78
g59
NtRp5281
(dp5282
g62
(dp5283
sg71
g5268
sg64
(lp5284
g57
(g58
g59
NtRp5285
(dp5286
g62
(dp5287
g70
I5
ssg71
g5281
sg64
(lp5288
S'Iiit Calendars'
p5289
asbasbasbag57
(g73
g59
NtRp5290
(dp5291
g62
(dp5292
sg71
g3676
sg64
(lp5293
g57
(g78
g59
NtRp5294
(dp5295
g62
(dp5296
g82
g83
ssg71
g5290
sg64
(lp5297
S'view'
p5298
asbag57
(g78
g59
NtRp5299
(dp5300
g62
(dp5301
g89
g90
ssg71
g5290
sg64
(lp5302
S':'
asbag57
(g78
g59
NtRp5303
(dp5304
g62
(dp5305
sg71
g5290
sg64
(lp5306
g57
(g58
g59
NtRp5307
(dp5308
g62
(dp5309
g70
I5
ssg71
g5303
sg64
(lp5310
S'default/formedit.html'
p5311
asbasbasbasbasbsS'locals'
p5312
(dp5313
S'i'
S'0'
sS'self'
p5314
S'<Rows (0)>'
p5315
sssS'traceback'
p5316
S'Traceback (most recent call last):\n  File "/home/user/Documents/2nd sem/ITWS-2/web2py/gluon/restricted.py", line 212, in restricted\n    exec ccode in environment\n  File "/home/user/Documents/2nd sem/ITWS-2/web2py/applications/IIIT_calendars/controllers/default.py", line 344, in <module>\n  File "/home/user/Documents/2nd sem/ITWS-2/web2py/gluon/globals.py", line 193, in <lambda>\n    self._caller = lambda f: f()\n  File "/home/user/Documents/2nd sem/ITWS-2/web2py/applications/IIIT_calendars/controllers/default.py", line 144, in formedit\n    a=db(db.events.id==c).select()[0]\n  File "/home/user/Documents/2nd sem/ITWS-2/web2py/gluon/dal.py", line 9170, in __getitem__\n    row = self.records[i]\nIndexError: list index out of range\n'
p5317
s.