(dp1
S'output'
p2
S'Unable to open included view file: /home/user/Documents/2nd sem/ITWS-2/web2py/applications/IIIT_calendars/views/css.html'
p3
sS'layer'
p4
S'ParserContainer'
p5
sS'code'
p6
S'{{extend \'new.html\'}}\n{{extend \'css.html\'}}\n<body>\n    <h1 align="center" style="color:red bgcolor:silver"> Hi {{=name}} </h1>\n<div style="text-align:center">\n<br/> <br/> <br/> <br>\n    <a href="calendar.html" class="btn btn-primary"> View Calendar <i class="icon-eye-open icon-white"> </i> </a> <br />\n</div>\n<br /> <br />\n<div class="btn-toolbar pagination-centered">\n<div class="btn-group">\n<a class="btn btn-inverse" href="#"><i class="icon-th-list icon-white"></i> Events </a>\n<a class="btn btn-inverse dropdown-toggle" data-toggle="dropdown" href="#"><span class="caret"></span></a>\n<ul class="dropdown-menu">\n    <li><a href="editeventdetails.html"><i class="icon-pencil"></i> Edit</a></li>\n<li><a href="delete_eventdetails.html"><i class="icon-trash"></i> Delete</a></li>\n<li><a href="add_events.html"><i class="icon-plus"></i> Add</a></li>\n</ul>\n</div>\n</div>\n<br/><br/>\n<div class="btn-toolbar pagination-centered">\n<div class="btn-group">\n<a class="btn btn-danger" href="#"><i class="icon-th-list icon-white"></i> Tasks </a>\n<a class="btn btn-danger dropdown-toggle" data-toggle="dropdown" href="#"><span class="caret"></span></a>\n<ul class="dropdown-menu">\n<li><a href="edittaskdetails.html"><i class="icon-pencil"></i> Edit</a></li>\n<li><a href="delete_taskdetails.html"><i class="icon-trash"></i> Delete</a></li>\n<li><a href="add_tasks.html"><i class="icon-plus"></i> Add</a></li>\n<li><a href="taskdonedetails.html"><i class="icon-check"></i> Mark as done</a></li>\n<li><a href="taskstat.html"><i class="icon-check"></i> Task Statistics</a></li>\n</ul>\n</div>\n</div>\n</body>\n'
p7
sS'snapshot'
p8
(dp9
S'exception'
p10
(dp11
S'__getslice__'
p12
S"<method-wrapper '__getslice__' of exceptions.IOError object>"
p13
sS'__str__'
p14
S"<method-wrapper '__str__' of exceptions.IOError object>"
p15
sS'__reduce__'
p16
S'<built-in method __reduce__ of exceptions.IOError object>'
p17
sS'__dict__'
p18
S'{}'
p19
sS'__sizeof__'
p20
S'<built-in method __sizeof__ of exceptions.IOError object>'
p21
sS'__init__'
p22
S"<method-wrapper '__init__' of exceptions.IOError object>"
p23
sS'__setattr__'
p24
S"<method-wrapper '__setattr__' of exceptions.IOError object>"
p25
sS'__reduce_ex__'
p26
S'<built-in method __reduce_ex__ of exceptions.IOError object>'
p27
sS'__new__'
p28
S'<built-in method __new__ of type object>'
p29
sS'errno'
p30
S'2'
sS'__format__'
p31
S'<built-in method __format__ of exceptions.IOError object>'
p32
sS'__class__'
p33
S"<type 'exceptions.IOError'>"
p34
sS'filename'
p35
S"'/home/user/Documents/2nd sem/ITWS-2/web2py/applications/IIIT_calendars/views/css.html'"
p36
sS'__doc__'
p37
S"'I/O operation failed.'"
p38
sS'__getitem__'
p39
S"<method-wrapper '__getitem__' of exceptions.IOError object>"
p40
sS'__setstate__'
p41
S'<built-in method __setstate__ of exceptions.IOError object>'
p42
sS'__getattribute__'
p43
S"<method-wrapper '__getattribute__' of exceptions.IOError object>"
p44
sS'args'
p45
S"(2, 'No such file or directory')"
p46
sS'__subclasshook__'
p47
S'<built-in method __subclasshook__ of type object>'
p48
sS'__unicode__'
p49
S'<built-in method __unicode__ of exceptions.IOError object>'
p50
sS'strerror'
p51
S"'No such file or directory'"
p52
sS'__delattr__'
p53
S"<method-wrapper '__delattr__' of exceptions.IOError object>"
p54
sS'__repr__'
p55
S"<method-wrapper '__repr__' of exceptions.IOError object>"
p56
sS'__hash__'
p57
S"<method-wrapper '__hash__' of exceptions.IOError object>"
p58
ssS'evalue'
p59
S"[Errno 2] No such file or directory: '/home/user/Documents/2nd sem/ITWS-2/web2py/applications/IIIT_calendars/views/css.html'"
p60
sS'frames'
p61
(lp62
(dp63
S'file'
p64
S'/home/user/Documents/2nd sem/ITWS-2/web2py/gluon/template.py'
p65
sS'dump'
p66
(dp67
S'builtinopen'
p68
S'<built-in function open>'
p69
sS'fileobj'
p70
S'undefined'
p71
sS'filepath'
p72
S"'/home/user/Documents/2nd sem/ITWS-2/web2py/applications/IIIT_calendars/views/css.html'"
p73
ssS'lnum'
p74
I443
sS'lines'
p75
(dp76
I438
S'        # Get the path of the file on the system.'
p77
sI439
S'        filepath = self.path and os.path.join(self.path, filename) or filename'
p78
sI440
S''
sI441
S'        # try to read the text.'
p79
sI442
S'        try:'
p80
sI443
S"            fileobj = open(filepath, 'rb')"
p81
sI444
S'            text = fileobj.read()'
p82
sI445
S'            fileobj.close()'
p83
sI446
S'        except IOError:'
p84
sI447
S"            self._raise_error('Unable to open included view file: ' + filepath)"
p85
ssS'call'
p86
S"(self=<gluon.template.TemplateParser object>, filename='css.html')"
p87
sS'func'
p88
S'_get_file_text'
p89
sasS'pyver'
p90
S'Python 2.7.3: /usr/bin/python'
p91
sS'etype'
p92
S"<type 'exceptions.IOError'>"
p93
sS'date'
p94
S'Wed Apr 17 03:16:30 2013'
p95
sS'locals'
p96
(dp97
S'self'
p98
S'<gluon.template.TemplateParser object>'
p99
sS'filepath'
p100
S"'/home/user/Documents/2nd sem/ITWS-2/web2py/applications/IIIT_calendars/views/css.html'"
p101
sS'context'
p102
S"{'A': <class 'gluon.html.A'>, 'Auth': <class 'gluon.tools.Auth'>, 'B': <class 'gluon.html.B'>, 'BEAUTIFY': <class 'gluon.html.BEAUTIFY'>, 'BODY': <class 'gluon.html.BODY'>, 'BR': <class 'gluon.html.BR'>, 'BUTTON': <class 'gluon.html.BUTTON'>, 'CAT': <class 'gluon.html.CAT'>, 'CENTER': <class 'gluon.html.CENTER'>, 'CLEANUP': <class 'gluon.validators.CLEANUP'>, ...}"
p103
sg35
S"'css.html'"
p104
sssS'traceback'
p105
S'Traceback (most recent call last):\n  File "/home/user/Documents/2nd sem/ITWS-2/web2py/gluon/template.py", line 443, in _get_file_text\n    fileobj = open(filepath, \'rb\')\nIOError: [Errno 2] No such file or directory: \'/home/user/Documents/2nd sem/ITWS-2/web2py/applications/IIIT_calendars/views/css.html\'\n'
p106
s.