(dp1
S'output'
p2
S"<type 'exceptions.IndexError'> list index out of range"
p3
sS'layer'
p4
S'/home/simran/web2py/applications/IIIT_calendars/views/default/calendar.html'
p5
sS'code'
p6
S'response.files.append(URL(r=request,c=\'static\',f=\'js/ui.core.js\'))\nresponse.write(\'\\n\', escape=False)\nresponse.files.append(URL(r=request,c=\'static\',f=\'js/ui.draggable.js\'))\nresponse.write(\'\\n\', escape=False)\nresponse.files.append(URL(r=request,c=\'static\',f=\'js/ui.resizable.js\'))\nresponse.write(\'\\n\', escape=False)\nresponse.files.append(URL(r=request,c=\'static\',f=\'js/fullcalendar.min.js\'))\nresponse.write(\'\\n\\n\\n\', escape=False)\nresponse.files.append(URL(r=request,c=\'static\',f=\'css/fullcalendar.css\'))\nresponse.write(\'\\n\', escape=False)\nresponse.write(\'<!DOCTYPE html>\\n<!-- paulirish.com/2008/conditional-stylesheets-vs-css-hacks-answer-neither/ -->\\n<!--[if lt IE 7]><html class="ie ie6 ie-lte9 ie-lte8 ie-lte7 no-js" lang="\', escape=False)\nresponse.write(T.accepted_language or \'en\')\nresponse.write(\'"> <![endif]-->\\n<!--[if IE 7]><html class="ie ie7 ie-lte9 ie-lte8 ie-lte7 no-js" lang="\', escape=False)\nresponse.write(T.accepted_language or \'en\')\nresponse.write(\'"> <![endif]-->\\n<!--[if IE 8]><html class="ie ie8 ie-lte9 ie-lte8 no-js" lang="\', escape=False)\nresponse.write(T.accepted_language or \'en\')\nresponse.write(\'"> <![endif]-->\\n<!--[if IE 9]><html class="ie9 ie-lte9 no-js" lang="\', escape=False)\nresponse.write(T.accepted_language or \'en\')\nresponse.write(\'"> <![endif]-->\\n<!--[if (gt IE 9)|!(IE)]><!--> <html class="no-js" lang="\', escape=False)\nresponse.write(T.accepted_language or \'en\')\nresponse.write(\'"> <!--<![endif]-->\\n<head>\\n  <meta charset="utf-8" />\\n  <!-- www.phpied.com/conditional-comments-block-downloads/ -->\\n  <!-- Always force latest IE rendering engine\\n       (even in intranet) & Chrome Frame\\n       Remove this if you use the .htaccess -->\\n \\n      <meta http-equiv="X-UA-Compatible" content="IE=edge\', escape=False)\nresponse.write(not request.is_local and \',chrome=1\' or \'\')\nresponse.write(\'">\\n      \\n\\n  <title>\', escape=False)\nresponse.write(response.title or request.application)\nresponse.write(\'</title>\\n\\n  <!-- http://dev.w3.org/html5/markup/meta.name.html -->\\n  <meta name="application-name" content="\', escape=False)\nresponse.write(request.application)\nresponse.write(\'" />\\n\\n  <!-- Speaking of Google, don\\\'t forget to set your site up:\\n       http://google.com/webmasters -->\\n  <meta name="google-site-verification" content="" />\\n\\n  <!--  Mobile Viewport Fix\\n        j.mp/mobileviewport & davidbcalhoun.com/2010/viewport-metatag\\n        device-width: Occupy full width of the screen in its current orientation\\n        initial-scale = 1.0 retains dimensions instead of zooming out if page height > device height\\n        user-scalable = yes allows the user to zoom in -->\\n  <meta name="viewport" content="width=device-width, initial-scale=1.0" />\\n\\n  <link rel="shortcut icon" href="\', escape=False)\nresponse.write(URL(\'static\',\'images/favicon.ico\'))\nresponse.write(\'" type="image/x-icon">\\n  <link rel="apple-touch-icon" href="\', escape=False)\nresponse.write(URL(\'static\',\'images/favicon.png\'))\nresponse.write(\'">\\n\\n  <!-- All JavaScript at the bottom, except for Modernizr which enables\\n       HTML5 elements & feature detects -->\\n  <!--script src="\', escape=False)\nresponse.write(URL(\'static\',\'js/modernizr.custom.js\'))\nresponse.write(\'"></script-->\\n <script src="\', escape=False)\nresponse.write(URL(request.application,\'static\',\'js/modernizr-1.6.min.js\'))\nresponse.write(\'"></script>\\n  <!-- include stylesheets -->\\n  \', escape=False)\nresponse.files.append(URL(\'static\',\'css/web2py.css\'))\nresponse.files.append(URL(\'static\',\'css/bootstrap.min.css\'))\nresponse.files.append(URL(\'static\',\'css/bootstrap-responsive.min.css\'))\nresponse.files.append(URL(\'static\',\'css/web2py_bootstrap.css\'))\nresponse.write(\'\\n\\n  \', escape=False)\nresponse.write(\'<script type="text/javascript"><!--\\n    // These variables are used by the web2py_ajax_init function in web2py_ajax.js (which is loaded below).\\n    var w2p_ajax_confirm_message = "\', escape=False)\nresponse.write(T(\'Are you sure you want to delete this object?\'))\nresponse.write(\'";\\n    var w2p_ajax_date_format = "\', escape=False)\nresponse.write(T(\'%Y-%m-%d\'))\nresponse.write(\'";\\n    var w2p_ajax_datetime_format = "\', escape=False)\nresponse.write(T(\'%Y-%m-%d %H:%M:%S\'))\nresponse.write(\'";\\n    //--></script>\\n\', escape=False)\nresponse.files.insert(0,URL(\'static\',\'js/jquery.js\'))\nresponse.files.insert(1,URL(\'static\',\'css/calendar.css\'))\nresponse.files.insert(2,URL(\'static\',\'js/calendar.js\'))\nresponse.files.insert(3,URL(\'static\',\'js/web2py.js\'))\nresponse.include_meta()\nresponse.include_files()\nresponse.write(\'\\n\', escape=False)\nresponse.write(\'\\n\\n  \', escape=False)\n# using sidebars need to know what sidebar you want to use\nleft_sidebar_enabled = globals().get(\'left_sidebar_enabled\',False)\nright_sidebar_enabled = globals().get(\'right_sidebar_enabled\',False)\nmiddle_columns = {0:\'span12\',1:\'span9\',2:\'span6\'}[\n(left_sidebar_enabled and 1 or 0)+(right_sidebar_enabled and 1 or 0)]\nresponse.write(\'\\n\\n  <!-- uncomment here to load jquery-ui\\n       <link rel="stylesheet" href="http://ajax.googleapis.com/ajax/libs/jqueryui/1.8.16/themes/base/jquery-ui.css" type="text/css" media="all" />\\n       <script src="http://ajax.googleapis.com/ajax/libs/jqueryui/1.8.16/jquery-ui.min.js" type="text/javascript"></script>\\n       uncomment to load jquery-ui //-->\\n  <noscript><link href="\', escape=False)\nresponse.write(URL(\'static\', \'css/web2py_bootstrap_nojs.css\'))\nresponse.write(\'" rel="stylesheet" type="text/css" /></noscript>\\n  \', escape=False)\nresponse.write(\'\\n</head>\\n\\n<!--body style="background-image:url(\', escape=False)\nresponse.write(URL(\'static\', \'images/a.jpg\'))\nresponse.write(\')"-->\\n  <body id="sg">\\n  <!-- Navbar ================================================== -->\\n    <div class="navbar navbar-inverse navbar-fixed-top">\\n    <div class="flash">\', escape=False)\nresponse.write(response.flash or \'\')\nresponse.write(\'</div>\\n    <div class="navbar-inner">\\n      <div class="container">\\n        \\n        <ul id="navbar" class="nav pull-right">\', escape=False)\nresponse.write(\'auth\' in globals() and auth.navbar(mode="dropdown") or \'\')\nresponse.write(\'</ul>\\n \\n      </div>\\n    </div>\\n  </div><!--/top navbar -->\\n\\n\\n  <div class="container">\\n    <!-- Masthead ================================================== removed-->\\n      <br/>\\n\\n    <section id="main" class="main row">\\n        \', escape=False)\nif left_sidebar_enabled:\n    response.write(\'\\n        <div class="span3 left-sidebar">\\n            \', escape=False)\n    response.write(\'\\n            <h3>Left Sidebar</h3>\\n            <p></p>\\n            \', escape=False)\n    response.write(\'\\n        </div>\\n        \', escape=False)\n    pass\nresponse.write(\'\\n\\n        <div class="\', escape=False)\nresponse.write(middle_columns)\nresponse.write(\'">\\n            \', escape=False)\nresponse.write(\'\\n            \', escape=False)\nresponse.write(\'\\n\\n\\n\\n<script type=\\\'text/javascript\\\'>\\n  \\n   \\n   jQuery(document).ready(function() {\\n\\n        var date = new Date();\\n        var d = date.getDate();\\n        var m = date.getMonth();\\n        var y = date.getFullYear();\\n        $(\\\'#calendar\\\').fullCalendar({\\n            header: {\\n                left: \\\'prev,next today\\\',\\n                center: \\\'title\\\',\\n                right: \\\'month,agendaWeek,agendaDay\\\'\\n            },\\n             selectable: true,\\n            selectHelper: true,\\n            select: function(start, end, allDay) {\\n                var title = prompt(\\\'Event Title:\\\');\\n                if (title) {\\n                    calendar.fullCalendar(\\\'renderEvent\\\',\\n                        {\\n                            title: title,\\n                            start: start,\\n                            end: end,\\n                            allDay: allDay\\n                        },\\n                        true // make the event "stick"\\n                    );\\n                }\\n                calendar.fullCalendar(\\\'unselect\\\');\\n            },\\n\\t\\t\\teditable: true, \\n            \\n            \\n            events: [\\n                \', escape=False)\nfor i in e:\n    response.write(\'\\n                {\\n                \', escape=False)\n    s=str(i[\'Startdate\'])\n    st=str(i[\'Starttime\'])\n    ent=str(i[\'Endtime\'])\n    en=str(i[\'Enddate\'])\n    ts=st.split(\':\')\n    te=ent.split(\':\')\n    pe=en.split(\'-\')\n    ps=s.split(\'-\')\n    response.write("\\n                title: \'", escape=False)\n    response.write(i[\'Title\'])\n    response.write("\',\\n                                    ", escape=False)\n    if i[\'All_day\']==True:\n        response.write(\'\\n                                    start: new Date(parseInt(\', escape=False)\n        response.write(ps[0])\n        response.write(\'),parseInt(\', escape=False)\n        response.write(ps[1])\n        response.write(\')-1,parseInt(\', escape=False)\n        response.write(ps[2])\n        response.write(\')),\\n            end: new Date(parseInt(\', escape=False)\n        response.write(pe[0])\n        response.write(\'),parseInt(\', escape=False)\n        response.write(pe[1])\n        response.write(\')-1,parseInt(\', escape=False)\n        response.write(pe[2])\n        response.write(\'))\\n                \', escape=False)\n    else:\n        response.write(\'\\t\\n       start: new Date(parseInt(\', escape=False)\n        response.write(ps[0])\n        response.write(\'),parseInt(\', escape=False)\n        response.write(ps[1])\n        response.write(\')-1,parseInt(\', escape=False)\n        response.write(ps[2])\n        response.write(\'),parseInt(\', escape=False)\n        response.write(ts[0])\n        response.write(\'),parseInt(\', escape=False)\n        response.write(ts[1])\n        response.write(\')),\\n           end: new Date(parseInt(\', escape=False)\n        response.write(pe[0])\n        response.write(\'),parseInt(\', escape=False)\n        response.write(pe[1])\n        response.write(\')-1,parseInt(\', escape=False)\n        response.write(pe[2])\n        response.write(\'),parseInt(\', escape=False)\n        response.write(te[0])\n        response.write(\'),parseInt(\', escape=False)\n        response.write(te[1])\n        response.write(\')),\\n               allDay: false\\n                \', escape=False)\n        pass\n    response.write(\'\\n       \', escape=False)\n    response.write("},")\n    response.write(\'\\n       \\n                                       \\n                                    \', escape=False)\n    pass\nresponse.write(\'  \\n                                    \\n                \', escape=False)\nfor i in t:\n    response.write(\'\\n                {\\n                \', escape=False)\n    s=str(i[\'DeadlineDate\'])\n    et=str(i[\'DeadlineTime\'])\n    p=s.split(\'-\')\n    pt=et.split(\':\')\n    response.write(\'\\n       \', escape=False)\n    if i[\'Completed\']==True:\n        response.write("\\n       title: \'", escape=False)\n        response.write(u\'\\u2713\')\n        response.write(\' : \', escape=False)\n        response.write(i[\'Title\'])\n        response.write("\',\\n           ", escape=False)\n    else:\n        response.write("\\n       title: \' : ", escape=False)\n        response.write(i[\'Title\'])\n        response.write("\',\\n           ", escape=False)\n        pass\n    response.write(\'\\n       start: new Date(parseInt(\', escape=False)\n    response.write(p[0])\n    response.write(\'),parseInt(\', escape=False)\n    response.write(p[1])\n    response.write(\')-1,parseInt(\', escape=False)\n    response.write(p[2])\n    response.write(\'),parseInt(\', escape=False)\n    response.write(pt[0])\n    response.write(\'),parseInt(\', escape=False)\n    response.write(pt[1])\n    response.write(\'))\\n\\t\\t\\t\\t\\t\\n\\t\\t\\t\\t\\n       \', escape=False)\n    response.write("},")\n    response.write(\'\\n       \\n                                       \\n                                    \', escape=False)\n    pass\nresponse.write(\'  \\n             \\n             \\n                                          \', escape=False)\nfor i in a:\n    response.write(\'\\n                {\\n                \', escape=False)\n    s=str(i[\'Startdate\'])\n    p=s.split(\'-\')\n    response.write("\\n                title: \'", escape=False)\n    response.write(i[\'Title\'])\n    response.write("\',\\n                start: new Date(parseInt(", escape=False)\n    response.write(p[0])\n    response.write(\'),parseInt(\', escape=False)\n    response.write(p[1])\n    response.write(\')-1,parseInt(\', escape=False)\n    response.write(p[2])\n    response.write(\'))\\n\\t\\t\\t\\t\\t\\n\\t\', escape=False)\n    if i != a[len(a)-1]:\n        response.write(\'\\n       \', escape=False)\n        response.write("},")\n        response.write(\'\\n       \', escape=False)\n    else:\n        response.write(\'\\n        \', escape=False)\n        response.write("}")\n        response.write(\'\\n                                        \', escape=False)\n        pass\n    response.write(\'\\n                                    \', escape=False)\n    pass\nresponse.write(\'                            \\n   \\t\\t\\t\\n        \\n                                                                \\n                 \\n            \\n            ]\\n            \\n        });\\n\\n    });\\n</script>\\n<div class="text-right"><div id=\\\'calendar\\\'></div></div>\\n<a href="index.html"> Back to index</a>\\n\', escape=False)\nresponse.write(\'\\n            \', escape=False)\nresponse.write(\'\\n        </div>\\n\\n        \', escape=False)\nif right_sidebar_enabled:\n    response.write(\'\\n        <div class="span3">\\n            \', escape=False)\n    response.write(\'\\n            <h3>Right Sidebar</h3>\\n            <p></p>\\n            \', escape=False)\n    response.write(\'\\n        </div>\\n        \', escape=False)\n    pass\nresponse.write(\'\\n    </section><!--/main-->\\n\\n    <!-- Footer ================================================== -->\\n    <div class="row">\\n        <footer class="footer span12" id="footer">\\n            <div class="footer-content">\\n                \', escape=False)\nresponse.write(\' <!-- this is default footer -->\\n                <div class="copyright pull-left">\', escape=False)\nresponse.write(T(\'Copyright\'))\nresponse.write(\' &#169; \', escape=False)\nresponse.write(request.now.year)\nresponse.write(\'</div>\\n                <div id="poweredBy" class="pull-right">\\n                    \', escape=False)\nresponse.write(T(\'Powered by\'))\nresponse.write(\'\\n                    <a href="http://www.web2py.com/">web2py</a>\\n                </div>\\n                \', escape=False)\nresponse.write(\'\\n            </div>\\n        </footer>\\n    </div>\\n\\n  </div> <!-- /container -->\\n\\n  <!-- The javascript =============================================\\n       (Placed at the end of the document so the pages load faster) -->\\n  <script src="\', escape=False)\nresponse.write(URL(\'static\',\'js/bootstrap.min.js\'))\nresponse.write(\'"></script>\\n  <script src="\', escape=False)\nresponse.write(URL(\'static\',\'js/web2py_bootstrap.js\'))\nresponse.write(\'"></script>\\n  <!--[if lt IE 7 ]>\\n      <script src="\', escape=False)\nresponse.write(URL(\'static\',\'js/dd_belatedpng.js\'))\nresponse.write(\'"></script>\\n      <script> DD_belatedPNG.fix(\\\'img, .png_bg\\\'); //fix any <img> or .png_bg background-images </script>\\n      <![endif]-->\\n  \\n  \', escape=False)\nif response.google_analytics_id:\n    response.write(\'\\n  <script src="\', escape=False)\n    response.write(URL(\'static\',\'js/analytics.js\'))\n    response.write(\'"></script>\\n  <script type="text/javascript">\\n  analytics.initialize({\\n    \\\'Google Analytics\\\':{trackingId:\\\'\', escape=False)\n    response.write(response.google_analytics_id)\n    response.write("\'} \\n  });</script>\\n  ", escape=False)\n    pass\nresponse.write(\'\\n  <script src="\', escape=False)\nresponse.write(URL(\'static\',\'js/share.js\',vars=dict(static=URL(\'static\',\'images\'))))\nresponse.write(\'"></script>\\n</body>\\n</html>\\n\', escape=False)'
p7
sS'snapshot'
p8
(dp9
S'exception'
p10
(dp11
S'__hash__'
p12
S"<method-wrapper '__hash__' of exceptions.IndexError object>"
p13
sS'__setattr__'
p14
S"<method-wrapper '__setattr__' of exceptions.IndexError object>"
p15
sS'__reduce_ex__'
p16
S'<built-in method __reduce_ex__ of exceptions.IndexError object>'
p17
sS'__getslice__'
p18
S"<method-wrapper '__getslice__' of exceptions.IndexError object>"
p19
sS'__getitem__'
p20
S"<method-wrapper '__getitem__' of exceptions.IndexError object>"
p21
sS'__setstate__'
p22
S'<built-in method __setstate__ of exceptions.IndexError object>'
p23
sS'args'
p24
S"('list index out of range',)"
p25
sS'__reduce__'
p26
S'<built-in method __reduce__ of exceptions.IndexError object>'
p27
sS'__str__'
p28
S"<method-wrapper '__str__' of exceptions.IndexError object>"
p29
sS'__format__'
p30
S'<built-in method __format__ of exceptions.IndexError object>'
p31
sS'__getattribute__'
p32
S"<method-wrapper '__getattribute__' of exceptions.IndexError object>"
p33
sS'__class__'
p34
S"<type 'exceptions.IndexError'>"
p35
sS'__unicode__'
p36
S'<built-in method __unicode__ of exceptions.IndexError object>'
p37
sS'__delattr__'
p38
S"<method-wrapper '__delattr__' of exceptions.IndexError object>"
p39
sS'__subclasshook__'
p40
S'<built-in method __subclasshook__ of type object>'
p41
sS'__repr__'
p42
S"<method-wrapper '__repr__' of exceptions.IndexError object>"
p43
sS'__dict__'
p44
S'{}'
p45
sS'__sizeof__'
p46
S'<built-in method __sizeof__ of exceptions.IndexError object>'
p47
sS'__doc__'
p48
S"'Sequence index out of range.'"
p49
sS'__init__'
p50
S"<method-wrapper '__init__' of exceptions.IndexError object>"
p51
sS'__new__'
p52
S'<built-in method __new__ of type object>'
p53
ssS'evalue'
p54
S'list index out of range'
p55
sS'request'
p56
ccopy_reg
_reconstructor
p57
(cgluon.html
BEAUTIFY
p58
c__builtin__
object
p59
NtRp60
(dp61
S'attributes'
p62
(dp63
sS'components'
p64
(lp65
g57
(cgluon.html
TABLE
p66
g59
NtRp67
(dp68
g62
(dp69
S'level'
p70
I5
ssS'parent'
p71
Nsg64
(lp72
g57
(cgluon.html
TR
p73
g59
NtRp74
(dp75
g62
(dp76
sg71
g67
sg64
(lp77
g57
(cgluon.html
TD
p78
g59
NtRp79
(dp80
g62
(dp81
S'_style'
p82
S'font-weight:bold;vertical-align:top'
p83
ssg71
g74
sg64
(lp84
S'ajax'
p85
asbag57
(g78
g59
NtRp86
(dp87
g62
(dp88
S'_valign'
p89
S'top'
p90
ssg71
g74
sg64
(lp91
S':'
asbag57
(g78
g59
NtRp92
(dp93
g62
(dp94
sg71
g74
sg64
(lp95
g57
(g58
g59
NtRp96
(dp97
g62
(dp98
g70
I5
ssg71
g92
sg64
(lp99
S'False'
p100
asbasbasbag57
(g73
g59
NtRp101
(dp102
g62
(dp103
sg71
g67
sg64
(lp104
g57
(g78
g59
NtRp105
(dp106
g62
(dp107
g82
g83
ssg71
g101
sg64
(lp108
S'application'
p109
asbag57
(g78
g59
NtRp110
(dp111
g62
(dp112
g89
g90
ssg71
g101
sg64
(lp113
S':'
asbag57
(g78
g59
NtRp114
(dp115
g62
(dp116
sg71
g101
sg64
(lp117
g57
(g58
g59
NtRp118
(dp119
g62
(dp120
g70
I5
ssg71
g114
sg64
(lp121
S'IIIT_calendars'
p122
asbasbasbag57
(g73
g59
NtRp123
(dp124
g62
(dp125
sg71
g67
sg64
(lp126
g57
(g78
g59
NtRp127
(dp128
g62
(dp129
g82
g83
ssg71
g123
sg64
(lp130
g24
asbag57
(g78
g59
NtRp131
(dp132
g62
(dp133
g89
g90
ssg71
g123
sg64
(lp134
S':'
asbag57
(g78
g59
NtRp135
(dp136
g62
(dp137
sg71
g123
sg64
(lp138
g57
(g58
g59
NtRp139
(dp140
g62
(dp141
g70
I5
ssg71
g135
sg64
(lp142
g57
(g66
g59
NtRp143
(dp144
g62
(dp145
g70
I4
ssg71
Nsg64
(lp146
sbasbasbasbag57
(g73
g59
NtRp147
(dp148
g62
(dp149
sg71
g67
sg64
(lp150
g57
(g78
g59
NtRp151
(dp152
g62
(dp153
g82
g83
ssg71
g147
sg64
(lp154
S'body'
p155
asbag57
(g78
g59
NtRp156
(dp157
g62
(dp158
g89
g90
ssg71
g147
sg64
(lp159
S':'
asbag57
(g78
g59
NtRp160
(dp161
g62
(dp162
sg71
g147
sg64
(lp163
g57
(g58
g59
NtRp164
(dp165
g62
(dp166
g70
I5
ssg71
g160
sg64
(lp167
S'<cStringIO.StringO object at 0x7f858c0f3768>'
p168
asbasbasbag57
(g73
g59
NtRp169
(dp170
g62
(dp171
sg71
g67
sg64
(lp172
g57
(g78
g59
NtRp173
(dp174
g62
(dp175
g82
g83
ssg71
g169
sg64
(lp176
S'cid'
p177
asbag57
(g78
g59
NtRp178
(dp179
g62
(dp180
g89
g90
ssg71
g169
sg64
(lp181
S':'
asbag57
(g78
g59
NtRp182
(dp183
g62
(dp184
sg71
g169
sg64
(lp185
g57
(g58
g59
NtRp186
(dp187
g62
(dp188
g70
I5
ssg71
g182
sg64
(lp189
S'None'
p190
asbasbasbag57
(g73
g59
NtRp191
(dp192
g62
(dp193
sg71
g67
sg64
(lp194
g57
(g78
g59
NtRp195
(dp196
g62
(dp197
g82
g83
ssg71
g191
sg64
(lp198
S'client'
p199
asbag57
(g78
g59
NtRp200
(dp201
g62
(dp202
g89
g90
ssg71
g191
sg64
(lp203
S':'
asbag57
(g78
g59
NtRp204
(dp205
g62
(dp206
sg71
g191
sg64
(lp207
g57
(g58
g59
NtRp208
(dp209
g62
(dp210
g70
I5
ssg71
g204
sg64
(lp211
S'127.0.0.1'
p212
asbasbasbag57
(g73
g59
NtRp213
(dp214
g62
(dp215
sg71
g67
sg64
(lp216
g57
(g78
g59
NtRp217
(dp218
g62
(dp219
g82
g83
ssg71
g213
sg64
(lp220
S'controller'
p221
asbag57
(g78
g59
NtRp222
(dp223
g62
(dp224
g89
g90
ssg71
g213
sg64
(lp225
S':'
asbag57
(g78
g59
NtRp226
(dp227
g62
(dp228
sg71
g213
sg64
(lp229
g57
(g58
g59
NtRp230
(dp231
g62
(dp232
g70
I5
ssg71
g226
sg64
(lp233
S'default'
p234
asbasbasbag57
(g73
g59
NtRp235
(dp236
g62
(dp237
sg71
g67
sg64
(lp238
g57
(g78
g59
NtRp239
(dp240
g62
(dp241
g82
g83
ssg71
g235
sg64
(lp242
S'cookies'
p243
asbag57
(g78
g59
NtRp244
(dp245
g62
(dp246
g89
g90
ssg71
g235
sg64
(lp247
S':'
asbag57
(g78
g59
NtRp248
(dp249
g62
(dp250
sg71
g235
sg64
(lp251
g57
(g58
g59
NtRp252
(dp253
g62
(dp254
g70
I5
ssg71
g248
sg64
(lp255
g57
(g66
g59
NtRp256
(dp257
g62
(dp258
g70
I4
ssg71
Nsg64
(lp259
g57
(g73
g59
NtRp260
(dp261
g62
(dp262
sg71
g256
sg64
(lp263
g57
(g78
g59
NtRp264
(dp265
g62
(dp266
g82
g83
ssg71
g260
sg64
(lp267
S'session_id_admin'
p268
asbag57
(g78
g59
NtRp269
(dp270
g62
(dp271
g89
g90
ssg71
g260
sg64
(lp272
S':'
asbag57
(g78
g59
NtRp273
(dp274
g62
(dp275
sg71
g260
sg64
(lp276
g57
(g58
g59
NtRp277
(dp278
g62
(dp279
g70
I4
ssg71
g273
sg64
(lp280
S'127.0.0.1-392e7aa2-07cd-45bd-913b-5d09af4720cc'
p281
ag57
(g66
g59
NtRp282
(dp283
g62
(dp284
g70
I3
ssg71
Nsg64
(lp285
g57
(g73
g59
NtRp286
(dp287
g62
(dp288
sg71
g282
sg64
(lp289
g57
(g78
g59
NtRp290
(dp291
g62
(dp292
g82
g83
ssg71
g286
sg64
(lp293
S'comment'
p294
asbag57
(g78
g59
NtRp295
(dp296
g62
(dp297
g89
g90
ssg71
g286
sg64
(lp298
S':'
asbag57
(g78
g59
NtRp299
(dp300
g62
(dp301
sg71
g286
sg64
(lp302
g57
(g58
g59
NtRp303
(dp304
g62
(dp305
g70
I3
ssg71
g299
sg64
(lp306
S''
asbasbasbag57
(g73
g59
NtRp307
(dp308
g62
(dp309
sg71
g282
sg64
(lp310
g57
(g78
g59
NtRp311
(dp312
g62
(dp313
g82
g83
ssg71
g307
sg64
(lp314
S'domain'
p315
asbag57
(g78
g59
NtRp316
(dp317
g62
(dp318
g89
g90
ssg71
g307
sg64
(lp319
S':'
asbag57
(g78
g59
NtRp320
(dp321
g62
(dp322
sg71
g307
sg64
(lp323
g57
(g58
g59
NtRp324
(dp325
g62
(dp326
g70
I3
ssg71
g320
sg64
(lp327
S''
asbasbasbag57
(g73
g59
NtRp328
(dp329
g62
(dp330
sg71
g282
sg64
(lp331
g57
(g78
g59
NtRp332
(dp333
g62
(dp334
g82
g83
ssg71
g328
sg64
(lp335
S'expires'
p336
asbag57
(g78
g59
NtRp337
(dp338
g62
(dp339
g89
g90
ssg71
g328
sg64
(lp340
S':'
asbag57
(g78
g59
NtRp341
(dp342
g62
(dp343
sg71
g328
sg64
(lp344
g57
(g58
g59
NtRp345
(dp346
g62
(dp347
g70
I3
ssg71
g341
sg64
(lp348
S''
asbasbasbag57
(g73
g59
NtRp349
(dp350
g62
(dp351
sg71
g282
sg64
(lp352
g57
(g78
g59
NtRp353
(dp354
g62
(dp355
g82
g83
ssg71
g349
sg64
(lp356
S'httponly'
p357
asbag57
(g78
g59
NtRp358
(dp359
g62
(dp360
g89
g90
ssg71
g349
sg64
(lp361
S':'
asbag57
(g78
g59
NtRp362
(dp363
g62
(dp364
sg71
g349
sg64
(lp365
g57
(g58
g59
NtRp366
(dp367
g62
(dp368
g70
I3
ssg71
g362
sg64
(lp369
S''
asbasbasbag57
(g73
g59
NtRp370
(dp371
g62
(dp372
sg71
g282
sg64
(lp373
g57
(g78
g59
NtRp374
(dp375
g62
(dp376
g82
g83
ssg71
g370
sg64
(lp377
S'max-age'
p378
asbag57
(g78
g59
NtRp379
(dp380
g62
(dp381
g89
g90
ssg71
g370
sg64
(lp382
S':'
asbag57
(g78
g59
NtRp383
(dp384
g62
(dp385
sg71
g370
sg64
(lp386
g57
(g58
g59
NtRp387
(dp388
g62
(dp389
g70
I3
ssg71
g383
sg64
(lp390
S''
asbasbasbag57
(g73
g59
NtRp391
(dp392
g62
(dp393
sg71
g282
sg64
(lp394
g57
(g78
g59
NtRp395
(dp396
g62
(dp397
g82
g83
ssg71
g391
sg64
(lp398
S'path'
p399
asbag57
(g78
g59
NtRp400
(dp401
g62
(dp402
g89
g90
ssg71
g391
sg64
(lp403
S':'
asbag57
(g78
g59
NtRp404
(dp405
g62
(dp406
sg71
g391
sg64
(lp407
g57
(g58
g59
NtRp408
(dp409
g62
(dp410
g70
I3
ssg71
g404
sg64
(lp411
S''
asbasbasbag57
(g73
g59
NtRp412
(dp413
g62
(dp414
sg71
g282
sg64
(lp415
g57
(g78
g59
NtRp416
(dp417
g62
(dp418
g82
g83
ssg71
g412
sg64
(lp419
S'secure'
p420
asbag57
(g78
g59
NtRp421
(dp422
g62
(dp423
g89
g90
ssg71
g412
sg64
(lp424
S':'
asbag57
(g78
g59
NtRp425
(dp426
g62
(dp427
sg71
g412
sg64
(lp428
g57
(g58
g59
NtRp429
(dp430
g62
(dp431
g70
I3
ssg71
g425
sg64
(lp432
S''
asbasbasbag57
(g73
g59
NtRp433
(dp434
g62
(dp435
sg71
g282
sg64
(lp436
g57
(g78
g59
NtRp437
(dp438
g62
(dp439
g82
g83
ssg71
g433
sg64
(lp440
S'version'
p441
asbag57
(g78
g59
NtRp442
(dp443
g62
(dp444
g89
g90
ssg71
g433
sg64
(lp445
S':'
asbag57
(g78
g59
NtRp446
(dp447
g62
(dp448
sg71
g433
sg64
(lp449
g57
(g58
g59
NtRp450
(dp451
g62
(dp452
g70
I3
ssg71
g446
sg64
(lp453
S''
asbasbasbasbasbasbasbag57
(g73
g59
NtRp454
(dp455
g62
(dp456
sg71
g256
sg64
(lp457
g57
(g78
g59
NtRp458
(dp459
g62
(dp460
g82
g83
ssg71
g454
sg64
(lp461
S'session_id_calendar'
p462
asbag57
(g78
g59
NtRp463
(dp464
g62
(dp465
g89
g90
ssg71
g454
sg64
(lp466
S':'
asbag57
(g78
g59
NtRp467
(dp468
g62
(dp469
sg71
g454
sg64
(lp470
g57
(g58
g59
NtRp471
(dp472
g62
(dp473
g70
I4
ssg71
g467
sg64
(lp474
S'127.0.0.1-643d760f-a989-4108-aff1-f557e61f8a8a'
p475
ag57
(g66
g59
NtRp476
(dp477
g62
(dp478
g70
I3
ssg71
Nsg64
(lp479
g57
(g73
g59
NtRp480
(dp481
g62
(dp482
sg71
g476
sg64
(lp483
g57
(g78
g59
NtRp484
(dp485
g62
(dp486
g82
g83
ssg71
g480
sg64
(lp487
g294
asbag57
(g78
g59
NtRp488
(dp489
g62
(dp490
g89
g90
ssg71
g480
sg64
(lp491
S':'
asbag57
(g78
g59
NtRp492
(dp493
g62
(dp494
sg71
g480
sg64
(lp495
g57
(g58
g59
NtRp496
(dp497
g62
(dp498
g70
I3
ssg71
g492
sg64
(lp499
S''
asbasbasbag57
(g73
g59
NtRp500
(dp501
g62
(dp502
sg71
g476
sg64
(lp503
g57
(g78
g59
NtRp504
(dp505
g62
(dp506
g82
g83
ssg71
g500
sg64
(lp507
g315
asbag57
(g78
g59
NtRp508
(dp509
g62
(dp510
g89
g90
ssg71
g500
sg64
(lp511
S':'
asbag57
(g78
g59
NtRp512
(dp513
g62
(dp514
sg71
g500
sg64
(lp515
g57
(g58
g59
NtRp516
(dp517
g62
(dp518
g70
I3
ssg71
g512
sg64
(lp519
S''
asbasbasbag57
(g73
g59
NtRp520
(dp521
g62
(dp522
sg71
g476
sg64
(lp523
g57
(g78
g59
NtRp524
(dp525
g62
(dp526
g82
g83
ssg71
g520
sg64
(lp527
g336
asbag57
(g78
g59
NtRp528
(dp529
g62
(dp530
g89
g90
ssg71
g520
sg64
(lp531
S':'
asbag57
(g78
g59
NtRp532
(dp533
g62
(dp534
sg71
g520
sg64
(lp535
g57
(g58
g59
NtRp536
(dp537
g62
(dp538
g70
I3
ssg71
g532
sg64
(lp539
S''
asbasbasbag57
(g73
g59
NtRp540
(dp541
g62
(dp542
sg71
g476
sg64
(lp543
g57
(g78
g59
NtRp544
(dp545
g62
(dp546
g82
g83
ssg71
g540
sg64
(lp547
g357
asbag57
(g78
g59
NtRp548
(dp549
g62
(dp550
g89
g90
ssg71
g540
sg64
(lp551
S':'
asbag57
(g78
g59
NtRp552
(dp553
g62
(dp554
sg71
g540
sg64
(lp555
g57
(g58
g59
NtRp556
(dp557
g62
(dp558
g70
I3
ssg71
g552
sg64
(lp559
S''
asbasbasbag57
(g73
g59
NtRp560
(dp561
g62
(dp562
sg71
g476
sg64
(lp563
g57
(g78
g59
NtRp564
(dp565
g62
(dp566
g82
g83
ssg71
g560
sg64
(lp567
g378
asbag57
(g78
g59
NtRp568
(dp569
g62
(dp570
g89
g90
ssg71
g560
sg64
(lp571
S':'
asbag57
(g78
g59
NtRp572
(dp573
g62
(dp574
sg71
g560
sg64
(lp575
g57
(g58
g59
NtRp576
(dp577
g62
(dp578
g70
I3
ssg71
g572
sg64
(lp579
S''
asbasbasbag57
(g73
g59
NtRp580
(dp581
g62
(dp582
sg71
g476
sg64
(lp583
g57
(g78
g59
NtRp584
(dp585
g62
(dp586
g82
g83
ssg71
g580
sg64
(lp587
g399
asbag57
(g78
g59
NtRp588
(dp589
g62
(dp590
g89
g90
ssg71
g580
sg64
(lp591
S':'
asbag57
(g78
g59
NtRp592
(dp593
g62
(dp594
sg71
g580
sg64
(lp595
g57
(g58
g59
NtRp596
(dp597
g62
(dp598
g70
I3
ssg71
g592
sg64
(lp599
S''
asbasbasbag57
(g73
g59
NtRp600
(dp601
g62
(dp602
sg71
g476
sg64
(lp603
g57
(g78
g59
NtRp604
(dp605
g62
(dp606
g82
g83
ssg71
g600
sg64
(lp607
g420
asbag57
(g78
g59
NtRp608
(dp609
g62
(dp610
g89
g90
ssg71
g600
sg64
(lp611
S':'
asbag57
(g78
g59
NtRp612
(dp613
g62
(dp614
sg71
g600
sg64
(lp615
g57
(g58
g59
NtRp616
(dp617
g62
(dp618
g70
I3
ssg71
g612
sg64
(lp619
S''
asbasbasbag57
(g73
g59
NtRp620
(dp621
g62
(dp622
sg71
g476
sg64
(lp623
g57
(g78
g59
NtRp624
(dp625
g62
(dp626
g82
g83
ssg71
g620
sg64
(lp627
g441
asbag57
(g78
g59
NtRp628
(dp629
g62
(dp630
g89
g90
ssg71
g620
sg64
(lp631
S':'
asbag57
(g78
g59
NtRp632
(dp633
g62
(dp634
sg71
g620
sg64
(lp635
g57
(g58
g59
NtRp636
(dp637
g62
(dp638
g70
I3
ssg71
g632
sg64
(lp639
S''
asbasbasbasbasbasbasbag57
(g73
g59
NtRp640
(dp641
g62
(dp642
sg71
g256
sg64
(lp643
g57
(g78
g59
NtRp644
(dp645
g62
(dp646
g82
g83
ssg71
g640
sg64
(lp647
S'session_id_iiit_calendars'
p648
asbag57
(g78
g59
NtRp649
(dp650
g62
(dp651
g89
g90
ssg71
g640
sg64
(lp652
S':'
asbag57
(g78
g59
NtRp653
(dp654
g62
(dp655
sg71
g640
sg64
(lp656
g57
(g58
g59
NtRp657
(dp658
g62
(dp659
g70
I4
ssg71
g653
sg64
(lp660
S'127.0.0.1-027d37e9-0e6e-4153-9090-b15ef65cb5cf'
p661
ag57
(g66
g59
NtRp662
(dp663
g62
(dp664
g70
I3
ssg71
Nsg64
(lp665
g57
(g73
g59
NtRp666
(dp667
g62
(dp668
sg71
g662
sg64
(lp669
g57
(g78
g59
NtRp670
(dp671
g62
(dp672
g82
g83
ssg71
g666
sg64
(lp673
g294
asbag57
(g78
g59
NtRp674
(dp675
g62
(dp676
g89
g90
ssg71
g666
sg64
(lp677
S':'
asbag57
(g78
g59
NtRp678
(dp679
g62
(dp680
sg71
g666
sg64
(lp681
g57
(g58
g59
NtRp682
(dp683
g62
(dp684
g70
I3
ssg71
g678
sg64
(lp685
S''
asbasbasbag57
(g73
g59
NtRp686
(dp687
g62
(dp688
sg71
g662
sg64
(lp689
g57
(g78
g59
NtRp690
(dp691
g62
(dp692
g82
g83
ssg71
g686
sg64
(lp693
g315
asbag57
(g78
g59
NtRp694
(dp695
g62
(dp696
g89
g90
ssg71
g686
sg64
(lp697
S':'
asbag57
(g78
g59
NtRp698
(dp699
g62
(dp700
sg71
g686
sg64
(lp701
g57
(g58
g59
NtRp702
(dp703
g62
(dp704
g70
I3
ssg71
g698
sg64
(lp705
S''
asbasbasbag57
(g73
g59
NtRp706
(dp707
g62
(dp708
sg71
g662
sg64
(lp709
g57
(g78
g59
NtRp710
(dp711
g62
(dp712
g82
g83
ssg71
g706
sg64
(lp713
g336
asbag57
(g78
g59
NtRp714
(dp715
g62
(dp716
g89
g90
ssg71
g706
sg64
(lp717
S':'
asbag57
(g78
g59
NtRp718
(dp719
g62
(dp720
sg71
g706
sg64
(lp721
g57
(g58
g59
NtRp722
(dp723
g62
(dp724
g70
I3
ssg71
g718
sg64
(lp725
S''
asbasbasbag57
(g73
g59
NtRp726
(dp727
g62
(dp728
sg71
g662
sg64
(lp729
g57
(g78
g59
NtRp730
(dp731
g62
(dp732
g82
g83
ssg71
g726
sg64
(lp733
g357
asbag57
(g78
g59
NtRp734
(dp735
g62
(dp736
g89
g90
ssg71
g726
sg64
(lp737
S':'
asbag57
(g78
g59
NtRp738
(dp739
g62
(dp740
sg71
g726
sg64
(lp741
g57
(g58
g59
NtRp742
(dp743
g62
(dp744
g70
I3
ssg71
g738
sg64
(lp745
S''
asbasbasbag57
(g73
g59
NtRp746
(dp747
g62
(dp748
sg71
g662
sg64
(lp749
g57
(g78
g59
NtRp750
(dp751
g62
(dp752
g82
g83
ssg71
g746
sg64
(lp753
g378
asbag57
(g78
g59
NtRp754
(dp755
g62
(dp756
g89
g90
ssg71
g746
sg64
(lp757
S':'
asbag57
(g78
g59
NtRp758
(dp759
g62
(dp760
sg71
g746
sg64
(lp761
g57
(g58
g59
NtRp762
(dp763
g62
(dp764
g70
I3
ssg71
g758
sg64
(lp765
S''
asbasbasbag57
(g73
g59
NtRp766
(dp767
g62
(dp768
sg71
g662
sg64
(lp769
g57
(g78
g59
NtRp770
(dp771
g62
(dp772
g82
g83
ssg71
g766
sg64
(lp773
g399
asbag57
(g78
g59
NtRp774
(dp775
g62
(dp776
g89
g90
ssg71
g766
sg64
(lp777
S':'
asbag57
(g78
g59
NtRp778
(dp779
g62
(dp780
sg71
g766
sg64
(lp781
g57
(g58
g59
NtRp782
(dp783
g62
(dp784
g70
I3
ssg71
g778
sg64
(lp785
S''
asbasbasbag57
(g73
g59
NtRp786
(dp787
g62
(dp788
sg71
g662
sg64
(lp789
g57
(g78
g59
NtRp790
(dp791
g62
(dp792
g82
g83
ssg71
g786
sg64
(lp793
g420
asbag57
(g78
g59
NtRp794
(dp795
g62
(dp796
g89
g90
ssg71
g786
sg64
(lp797
S':'
asbag57
(g78
g59
NtRp798
(dp799
g62
(dp800
sg71
g786
sg64
(lp801
g57
(g58
g59
NtRp802
(dp803
g62
(dp804
g70
I3
ssg71
g798
sg64
(lp805
S''
asbasbasbag57
(g73
g59
NtRp806
(dp807
g62
(dp808
sg71
g662
sg64
(lp809
g57
(g78
g59
NtRp810
(dp811
g62
(dp812
g82
g83
ssg71
g806
sg64
(lp813
g441
asbag57
(g78
g59
NtRp814
(dp815
g62
(dp816
g89
g90
ssg71
g806
sg64
(lp817
S':'
asbag57
(g78
g59
NtRp818
(dp819
g62
(dp820
sg71
g806
sg64
(lp821
g57
(g58
g59
NtRp822
(dp823
g62
(dp824
g70
I3
ssg71
g818
sg64
(lp825
S''
asbasbasbasbasbasbasbag57
(g73
g59
NtRp826
(dp827
g62
(dp828
sg71
g256
sg64
(lp829
g57
(g78
g59
NtRp830
(dp831
g62
(dp832
g82
g83
ssg71
g826
sg64
(lp833
S'session_id_welcome'
p834
asbag57
(g78
g59
NtRp835
(dp836
g62
(dp837
g89
g90
ssg71
g826
sg64
(lp838
S':'
asbag57
(g78
g59
NtRp839
(dp840
g62
(dp841
sg71
g826
sg64
(lp842
g57
(g58
g59
NtRp843
(dp844
g62
(dp845
g70
I4
ssg71
g839
sg64
(lp846
S'127.0.0.1-dd25279d-1667-4fd6-ad74-77b566a2dbe9'
p847
ag57
(g66
g59
NtRp848
(dp849
g62
(dp850
g70
I3
ssg71
Nsg64
(lp851
g57
(g73
g59
NtRp852
(dp853
g62
(dp854
sg71
g848
sg64
(lp855
g57
(g78
g59
NtRp856
(dp857
g62
(dp858
g82
g83
ssg71
g852
sg64
(lp859
g294
asbag57
(g78
g59
NtRp860
(dp861
g62
(dp862
g89
g90
ssg71
g852
sg64
(lp863
S':'
asbag57
(g78
g59
NtRp864
(dp865
g62
(dp866
sg71
g852
sg64
(lp867
g57
(g58
g59
NtRp868
(dp869
g62
(dp870
g70
I3
ssg71
g864
sg64
(lp871
S''
asbasbasbag57
(g73
g59
NtRp872
(dp873
g62
(dp874
sg71
g848
sg64
(lp875
g57
(g78
g59
NtRp876
(dp877
g62
(dp878
g82
g83
ssg71
g872
sg64
(lp879
g315
asbag57
(g78
g59
NtRp880
(dp881
g62
(dp882
g89
g90
ssg71
g872
sg64
(lp883
S':'
asbag57
(g78
g59
NtRp884
(dp885
g62
(dp886
sg71
g872
sg64
(lp887
g57
(g58
g59
NtRp888
(dp889
g62
(dp890
g70
I3
ssg71
g884
sg64
(lp891
S''
asbasbasbag57
(g73
g59
NtRp892
(dp893
g62
(dp894
sg71
g848
sg64
(lp895
g57
(g78
g59
NtRp896
(dp897
g62
(dp898
g82
g83
ssg71
g892
sg64
(lp899
g336
asbag57
(g78
g59
NtRp900
(dp901
g62
(dp902
g89
g90
ssg71
g892
sg64
(lp903
S':'
asbag57
(g78
g59
NtRp904
(dp905
g62
(dp906
sg71
g892
sg64
(lp907
g57
(g58
g59
NtRp908
(dp909
g62
(dp910
g70
I3
ssg71
g904
sg64
(lp911
S''
asbasbasbag57
(g73
g59
NtRp912
(dp913
g62
(dp914
sg71
g848
sg64
(lp915
g57
(g78
g59
NtRp916
(dp917
g62
(dp918
g82
g83
ssg71
g912
sg64
(lp919
g357
asbag57
(g78
g59
NtRp920
(dp921
g62
(dp922
g89
g90
ssg71
g912
sg64
(lp923
S':'
asbag57
(g78
g59
NtRp924
(dp925
g62
(dp926
sg71
g912
sg64
(lp927
g57
(g58
g59
NtRp928
(dp929
g62
(dp930
g70
I3
ssg71
g924
sg64
(lp931
S''
asbasbasbag57
(g73
g59
NtRp932
(dp933
g62
(dp934
sg71
g848
sg64
(lp935
g57
(g78
g59
NtRp936
(dp937
g62
(dp938
g82
g83
ssg71
g932
sg64
(lp939
g378
asbag57
(g78
g59
NtRp940
(dp941
g62
(dp942
g89
g90
ssg71
g932
sg64
(lp943
S':'
asbag57
(g78
g59
NtRp944
(dp945
g62
(dp946
sg71
g932
sg64
(lp947
g57
(g58
g59
NtRp948
(dp949
g62
(dp950
g70
I3
ssg71
g944
sg64
(lp951
S''
asbasbasbag57
(g73
g59
NtRp952
(dp953
g62
(dp954
sg71
g848
sg64
(lp955
g57
(g78
g59
NtRp956
(dp957
g62
(dp958
g82
g83
ssg71
g952
sg64
(lp959
g399
asbag57
(g78
g59
NtRp960
(dp961
g62
(dp962
g89
g90
ssg71
g952
sg64
(lp963
S':'
asbag57
(g78
g59
NtRp964
(dp965
g62
(dp966
sg71
g952
sg64
(lp967
g57
(g58
g59
NtRp968
(dp969
g62
(dp970
g70
I3
ssg71
g964
sg64
(lp971
S''
asbasbasbag57
(g73
g59
NtRp972
(dp973
g62
(dp974
sg71
g848
sg64
(lp975
g57
(g78
g59
NtRp976
(dp977
g62
(dp978
g82
g83
ssg71
g972
sg64
(lp979
g420
asbag57
(g78
g59
NtRp980
(dp981
g62
(dp982
g89
g90
ssg71
g972
sg64
(lp983
S':'
asbag57
(g78
g59
NtRp984
(dp985
g62
(dp986
sg71
g972
sg64
(lp987
g57
(g58
g59
NtRp988
(dp989
g62
(dp990
g70
I3
ssg71
g984
sg64
(lp991
S''
asbasbasbag57
(g73
g59
NtRp992
(dp993
g62
(dp994
sg71
g848
sg64
(lp995
g57
(g78
g59
NtRp996
(dp997
g62
(dp998
g82
g83
ssg71
g992
sg64
(lp999
g441
asbag57
(g78
g59
NtRp1000
(dp1001
g62
(dp1002
g89
g90
ssg71
g992
sg64
(lp1003
S':'
asbag57
(g78
g59
NtRp1004
(dp1005
g62
(dp1006
sg71
g992
sg64
(lp1007
g57
(g58
g59
NtRp1008
(dp1009
g62
(dp1010
g70
I3
ssg71
g1004
sg64
(lp1011
S''
asbasbasbasbasbasbasbasbasbasbasbag57
(g73
g59
NtRp1012
(dp1013
g62
(dp1014
sg71
g67
sg64
(lp1015
g57
(g78
g59
NtRp1016
(dp1017
g62
(dp1018
g82
g83
ssg71
g1012
sg64
(lp1019
S'env'
p1020
asbag57
(g78
g59
NtRp1021
(dp1022
g62
(dp1023
g89
g90
ssg71
g1012
sg64
(lp1024
S':'
asbag57
(g78
g59
NtRp1025
(dp1026
g62
(dp1027
sg71
g1012
sg64
(lp1028
g57
(g58
g59
NtRp1029
(dp1030
g62
(dp1031
g70
I5
ssg71
g1025
sg64
(lp1032
g57
(g66
g59
NtRp1033
(dp1034
g62
(dp1035
g70
I4
ssg71
Nsg64
(lp1036
g57
(g73
g59
NtRp1037
(dp1038
g62
(dp1039
sg71
g1033
sg64
(lp1040
g57
(g78
g59
NtRp1041
(dp1042
g62
(dp1043
g82
g83
ssg71
g1037
sg64
(lp1044
S'app_folders'
p1045
asbag57
(g78
g59
NtRp1046
(dp1047
g62
(dp1048
g89
g90
ssg71
g1037
sg64
(lp1049
S':'
asbag57
(g78
g59
NtRp1050
(dp1051
g62
(dp1052
sg71
g1037
sg64
(lp1053
g57
(g58
g59
NtRp1054
(dp1055
g62
(dp1056
g70
I4
ssg71
g1050
sg64
(lp1057
S"set(['/home/simran/web2py/applications/welcome/', '/home/simran/web2py/applications/calendar/', '/home/simran/web2py/applications/IIIT_calendars/', '/home/simran/web2py/applications/admin/'])"
p1058
asbasbasbag57
(g73
g59
NtRp1059
(dp1060
g62
(dp1061
sg71
g1033
sg64
(lp1062
g57
(g78
g59
NtRp1063
(dp1064
g62
(dp1065
g82
g83
ssg71
g1059
sg64
(lp1066
S'applications_parent'
p1067
asbag57
(g78
g59
NtRp1068
(dp1069
g62
(dp1070
g89
g90
ssg71
g1059
sg64
(lp1071
S':'
asbag57
(g78
g59
NtRp1072
(dp1073
g62
(dp1074
sg71
g1059
sg64
(lp1075
g57
(g58
g59
NtRp1076
(dp1077
g62
(dp1078
g70
I4
ssg71
g1072
sg64
(lp1079
S'/home/simran/web2py'
p1080
asbasbasbag57
(g73
g59
NtRp1081
(dp1082
g62
(dp1083
sg71
g1033
sg64
(lp1084
g57
(g78
g59
NtRp1085
(dp1086
g62
(dp1087
g82
g83
ssg71
g1081
sg64
(lp1088
S'cmd_args'
p1089
asbag57
(g78
g59
NtRp1090
(dp1091
g62
(dp1092
g89
g90
ssg71
g1081
sg64
(lp1093
S':'
asbag57
(g78
g59
NtRp1094
(dp1095
g62
(dp1096
sg71
g1081
sg64
(lp1097
g57
(g58
g59
NtRp1098
(dp1099
g62
(dp1100
g70
I4
ssg71
g1094
sg64
(lp1101
g57
(g66
g59
NtRp1102
(dp1103
g62
(dp1104
g70
I3
ssg71
Nsg64
(lp1105
sbasbasbasbag57
(g73
g59
NtRp1106
(dp1107
g62
(dp1108
sg71
g1033
sg64
(lp1109
g57
(g78
g59
NtRp1110
(dp1111
g62
(dp1112
g82
g83
ssg71
g1106
sg64
(lp1113
S'cmd_options'
p1114
asbag57
(g78
g59
NtRp1115
(dp1116
g62
(dp1117
g89
g90
ssg71
g1106
sg64
(lp1118
S':'
asbag57
(g78
g59
NtRp1119
(dp1120
g62
(dp1121
sg71
g1106
sg64
(lp1122
g57
(g58
g59
NtRp1123
(dp1124
g62
(dp1125
g70
I4
ssg71
g1119
sg64
(lp1126
S"<Values at 0x14e57e8: {'verbose': False, 'ip': '127.0.0.1', 'with_scheduler': False, 'ips': [], 'shutdown_timeout': 5, 'taskbar': False, 'port': 8000, 'maxthreads': None, 'softcron': False, 'server_name': 'ubuntu', 'bpython': False, 'nogui': False, 'pid_filename': 'httpserver.pid', 'extcron': False, 'runcron': False, 'run_system_tests': False, 'test': None, 'folder': '/home/simran/web2py', 'config': '', 'minthreads': None, 'winservice': '', 'shell': None, 'run': '', 'log_filename': 'httpserver.log', 'debuglevel': 30, 'args': [''], 'socket_timeout': 5, 'ssl_ca_certificate': None, 'scheduler': None, 'profiler_filename': None, 'ssl_private_key': '', 'scheduler_groups': None, 'password': '<ask>', 'request_queue_size': 5, 'ssl_certificate': '', 'cronjob': False, 'numthreads': None, 'quiet': False, 'interfaces': None, 'import_models': False, 'timeout': 10, 'plain': False, 'nobanner': False}>"
p1127
asbasbasbag57
(g73
g59
NtRp1128
(dp1129
g62
(dp1130
sg71
g1033
sg64
(lp1131
g57
(g78
g59
NtRp1132
(dp1133
g62
(dp1134
g82
g83
ssg71
g1128
sg64
(lp1135
S'db_sessions'
p1136
asbag57
(g78
g59
NtRp1137
(dp1138
g62
(dp1139
g89
g90
ssg71
g1128
sg64
(lp1140
S':'
asbag57
(g78
g59
NtRp1141
(dp1142
g62
(dp1143
sg71
g1128
sg64
(lp1144
g57
(g58
g59
NtRp1145
(dp1146
g62
(dp1147
g70
I4
ssg71
g1141
sg64
(lp1148
S'set([])'
p1149
asbasbasbag57
(g73
g59
NtRp1150
(dp1151
g62
(dp1152
sg71
g1033
sg64
(lp1153
g57
(g78
g59
NtRp1154
(dp1155
g62
(dp1156
g82
g83
ssg71
g1150
sg64
(lp1157
S'debugging'
p1158
asbag57
(g78
g59
NtRp1159
(dp1160
g62
(dp1161
g89
g90
ssg71
g1150
sg64
(lp1162
S':'
asbag57
(g78
g59
NtRp1163
(dp1164
g62
(dp1165
sg71
g1150
sg64
(lp1166
g57
(g58
g59
NtRp1167
(dp1168
g62
(dp1169
g70
I4
ssg71
g1163
sg64
(lp1170
g100
asbasbasbag57
(g73
g59
NtRp1171
(dp1172
g62
(dp1173
sg71
g1033
sg64
(lp1174
g57
(g78
g59
NtRp1175
(dp1176
g62
(dp1177
g82
g83
ssg71
g1171
sg64
(lp1178
S'gluon_parent'
p1179
asbag57
(g78
g59
NtRp1180
(dp1181
g62
(dp1182
g89
g90
ssg71
g1171
sg64
(lp1183
S':'
asbag57
(g78
g59
NtRp1184
(dp1185
g62
(dp1186
sg71
g1171
sg64
(lp1187
g57
(g58
g59
NtRp1188
(dp1189
g62
(dp1190
g70
I4
ssg71
g1184
sg64
(lp1191
S'/home/simran/web2py'
p1192
asbasbasbag57
(g73
g59
NtRp1193
(dp1194
g62
(dp1195
sg71
g1033
sg64
(lp1196
g57
(g78
g59
NtRp1197
(dp1198
g62
(dp1199
g82
g83
ssg71
g1193
sg64
(lp1200
S'http_accept'
p1201
asbag57
(g78
g59
NtRp1202
(dp1203
g62
(dp1204
g89
g90
ssg71
g1193
sg64
(lp1205
S':'
asbag57
(g78
g59
NtRp1206
(dp1207
g62
(dp1208
sg71
g1193
sg64
(lp1209
g57
(g58
g59
NtRp1210
(dp1211
g62
(dp1212
g70
I4
ssg71
g1206
sg64
(lp1213
S'text/html,application/xhtml+xml,application/xml;q=0.9,*/*;q=0.8'
p1214
asbasbasbag57
(g73
g59
NtRp1215
(dp1216
g62
(dp1217
sg71
g1033
sg64
(lp1218
g57
(g78
g59
NtRp1219
(dp1220
g62
(dp1221
g82
g83
ssg71
g1215
sg64
(lp1222
S'http_accept_encoding'
p1223
asbag57
(g78
g59
NtRp1224
(dp1225
g62
(dp1226
g89
g90
ssg71
g1215
sg64
(lp1227
S':'
asbag57
(g78
g59
NtRp1228
(dp1229
g62
(dp1230
sg71
g1215
sg64
(lp1231
g57
(g58
g59
NtRp1232
(dp1233
g62
(dp1234
g70
I4
ssg71
g1228
sg64
(lp1235
S'gzip, deflate'
p1236
asbasbasbag57
(g73
g59
NtRp1237
(dp1238
g62
(dp1239
sg71
g1033
sg64
(lp1240
g57
(g78
g59
NtRp1241
(dp1242
g62
(dp1243
g82
g83
ssg71
g1237
sg64
(lp1244
S'http_accept_language'
p1245
asbag57
(g78
g59
NtRp1246
(dp1247
g62
(dp1248
g89
g90
ssg71
g1237
sg64
(lp1249
S':'
asbag57
(g78
g59
NtRp1250
(dp1251
g62
(dp1252
sg71
g1237
sg64
(lp1253
g57
(g58
g59
NtRp1254
(dp1255
g62
(dp1256
g70
I4
ssg71
g1250
sg64
(lp1257
S'en-US,en;q=0.5'
p1258
asbasbasbag57
(g73
g59
NtRp1259
(dp1260
g62
(dp1261
sg71
g1033
sg64
(lp1262
g57
(g78
g59
NtRp1263
(dp1264
g62
(dp1265
g82
g83
ssg71
g1259
sg64
(lp1266
S'http_connection'
p1267
asbag57
(g78
g59
NtRp1268
(dp1269
g62
(dp1270
g89
g90
ssg71
g1259
sg64
(lp1271
S':'
asbag57
(g78
g59
NtRp1272
(dp1273
g62
(dp1274
sg71
g1259
sg64
(lp1275
g57
(g58
g59
NtRp1276
(dp1277
g62
(dp1278
g70
I4
ssg71
g1272
sg64
(lp1279
S'keep-alive'
p1280
asbasbasbag57
(g73
g59
NtRp1281
(dp1282
g62
(dp1283
sg71
g1033
sg64
(lp1284
g57
(g78
g59
NtRp1285
(dp1286
g62
(dp1287
g82
g83
ssg71
g1281
sg64
(lp1288
S'http_cookie'
p1289
asbag57
(g78
g59
NtRp1290
(dp1291
g62
(dp1292
g89
g90
ssg71
g1281
sg64
(lp1293
S':'
asbag57
(g78
g59
NtRp1294
(dp1295
g62
(dp1296
sg71
g1281
sg64
(lp1297
g57
(g58
g59
NtRp1298
(dp1299
g62
(dp1300
g70
I4
ssg71
g1294
sg64
(lp1301
S'session_id_welcome=127.0.0.1-dd25279d-1667-4fd6-ad74-77b566a2dbe9; session_id_admin=127.0.0.1-392e7aa2-07cd-45bd-913b-5d09af4720cc; session_id_iiit_calendars=127.0.0.1-027d37e9-0e6e-4153-9090-b15ef65cb5cf; session_id_calendar=127.0.0.1-643d760f-a989-4108-aff1-f557e61f8a8a'
p1302
asbasbasbag57
(g73
g59
NtRp1303
(dp1304
g62
(dp1305
sg71
g1033
sg64
(lp1306
g57
(g78
g59
NtRp1307
(dp1308
g62
(dp1309
g82
g83
ssg71
g1303
sg64
(lp1310
S'http_host'
p1311
asbag57
(g78
g59
NtRp1312
(dp1313
g62
(dp1314
g89
g90
ssg71
g1303
sg64
(lp1315
S':'
asbag57
(g78
g59
NtRp1316
(dp1317
g62
(dp1318
sg71
g1303
sg64
(lp1319
g57
(g58
g59
NtRp1320
(dp1321
g62
(dp1322
g70
I4
ssg71
g1316
sg64
(lp1323
S'127.0.0.1:8000'
p1324
asbasbasbag57
(g73
g59
NtRp1325
(dp1326
g62
(dp1327
sg71
g1033
sg64
(lp1328
g57
(g78
g59
NtRp1329
(dp1330
g62
(dp1331
g82
g83
ssg71
g1325
sg64
(lp1332
S'http_referer'
p1333
asbag57
(g78
g59
NtRp1334
(dp1335
g62
(dp1336
g89
g90
ssg71
g1325
sg64
(lp1337
S':'
asbag57
(g78
g59
NtRp1338
(dp1339
g62
(dp1340
sg71
g1325
sg64
(lp1341
g57
(g58
g59
NtRp1342
(dp1343
g62
(dp1344
g70
I4
ssg71
g1338
sg64
(lp1345
S'http://127.0.0.1:8000/IIIT_calendars/default/index'
p1346
asbasbasbag57
(g73
g59
NtRp1347
(dp1348
g62
(dp1349
sg71
g1033
sg64
(lp1350
g57
(g78
g59
NtRp1351
(dp1352
g62
(dp1353
g82
g83
ssg71
g1347
sg64
(lp1354
S'http_user_agent'
p1355
asbag57
(g78
g59
NtRp1356
(dp1357
g62
(dp1358
g89
g90
ssg71
g1347
sg64
(lp1359
S':'
asbag57
(g78
g59
NtRp1360
(dp1361
g62
(dp1362
sg71
g1347
sg64
(lp1363
g57
(g58
g59
NtRp1364
(dp1365
g62
(dp1366
g70
I4
ssg71
g1360
sg64
(lp1367
S'Mozilla/5.0 (X11; Ubuntu; Linux x86_64; rv:20.0) Gecko/20100101 Firefox/20.0'
p1368
asbasbasbag57
(g73
g59
NtRp1369
(dp1370
g62
(dp1371
sg71
g1033
sg64
(lp1372
g57
(g78
g59
NtRp1373
(dp1374
g62
(dp1375
g82
g83
ssg71
g1369
sg64
(lp1376
S'is_jython'
p1377
asbag57
(g78
g59
NtRp1378
(dp1379
g62
(dp1380
g89
g90
ssg71
g1369
sg64
(lp1381
S':'
asbag57
(g78
g59
NtRp1382
(dp1383
g62
(dp1384
sg71
g1369
sg64
(lp1385
g57
(g58
g59
NtRp1386
(dp1387
g62
(dp1388
g70
I4
ssg71
g1382
sg64
(lp1389
g100
asbasbasbag57
(g73
g59
NtRp1390
(dp1391
g62
(dp1392
sg71
g1033
sg64
(lp1393
g57
(g78
g59
NtRp1394
(dp1395
g62
(dp1396
g82
g83
ssg71
g1390
sg64
(lp1397
S'is_pypy'
p1398
asbag57
(g78
g59
NtRp1399
(dp1400
g62
(dp1401
g89
g90
ssg71
g1390
sg64
(lp1402
S':'
asbag57
(g78
g59
NtRp1403
(dp1404
g62
(dp1405
sg71
g1390
sg64
(lp1406
g57
(g58
g59
NtRp1407
(dp1408
g62
(dp1409
g70
I4
ssg71
g1403
sg64
(lp1410
g100
asbasbasbag57
(g73
g59
NtRp1411
(dp1412
g62
(dp1413
sg71
g1033
sg64
(lp1414
g57
(g78
g59
NtRp1415
(dp1416
g62
(dp1417
g82
g83
ssg71
g1411
sg64
(lp1418
S'local_hosts'
p1419
asbag57
(g78
g59
NtRp1420
(dp1421
g62
(dp1422
g89
g90
ssg71
g1411
sg64
(lp1423
S':'
asbag57
(g78
g59
NtRp1424
(dp1425
g62
(dp1426
sg71
g1411
sg64
(lp1427
g57
(g58
g59
NtRp1428
(dp1429
g62
(dp1430
g70
I4
ssg71
g1424
sg64
(lp1431
g57
(g66
g59
NtRp1432
(dp1433
g62
(dp1434
g70
I3
ssg71
Nsg64
(lp1435
g57
(g73
g59
NtRp1436
(dp1437
g62
(dp1438
sg71
g1432
sg64
(lp1439
g57
(g78
g59
NtRp1440
(dp1441
g62
(dp1442
sg71
g1436
sg64
(lp1443
g57
(g58
g59
NtRp1444
(dp1445
g62
(dp1446
g70
I3
ssg71
g1440
sg64
(lp1447
S'::1'
p1448
asbasbasbag57
(g73
g59
NtRp1449
(dp1450
g62
(dp1451
sg71
g1432
sg64
(lp1452
g57
(g78
g59
NtRp1453
(dp1454
g62
(dp1455
sg71
g1449
sg64
(lp1456
g57
(g58
g59
NtRp1457
(dp1458
g62
(dp1459
g70
I3
ssg71
g1453
sg64
(lp1460
S'127.0.1.1'
p1461
asbasbasbag57
(g73
g59
NtRp1462
(dp1463
g62
(dp1464
sg71
g1432
sg64
(lp1465
g57
(g78
g59
NtRp1466
(dp1467
g62
(dp1468
sg71
g1462
sg64
(lp1469
g57
(g58
g59
NtRp1470
(dp1471
g62
(dp1472
g70
I3
ssg71
g1466
sg64
(lp1473
S'::ffff:127.0.0.1'
p1474
asbasbasbag57
(g73
g59
NtRp1475
(dp1476
g62
(dp1477
sg71
g1432
sg64
(lp1478
g57
(g78
g59
NtRp1479
(dp1480
g62
(dp1481
sg71
g1475
sg64
(lp1482
g57
(g58
g59
NtRp1483
(dp1484
g62
(dp1485
g70
I3
ssg71
g1479
sg64
(lp1486
S'127.0.0.1'
p1487
asbasbasbag57
(g73
g59
NtRp1488
(dp1489
g62
(dp1490
sg71
g1432
sg64
(lp1491
g57
(g78
g59
NtRp1492
(dp1493
g62
(dp1494
sg71
g1488
sg64
(lp1495
g57
(g58
g59
NtRp1496
(dp1497
g62
(dp1498
g70
I3
ssg71
g1492
sg64
(lp1499
S'ubuntu'
p1500
asbasbasbasbasbasbasbag57
(g73
g59
NtRp1501
(dp1502
g62
(dp1503
sg71
g1033
sg64
(lp1504
g57
(g78
g59
NtRp1505
(dp1506
g62
(dp1507
g82
g83
ssg71
g1501
sg64
(lp1508
S'path_info'
p1509
asbag57
(g78
g59
NtRp1510
(dp1511
g62
(dp1512
g89
g90
ssg71
g1501
sg64
(lp1513
S':'
asbag57
(g78
g59
NtRp1514
(dp1515
g62
(dp1516
sg71
g1501
sg64
(lp1517
g57
(g58
g59
NtRp1518
(dp1519
g62
(dp1520
g70
I4
ssg71
g1514
sg64
(lp1521
S'/IIIT_calendars/default/calendar.html'
p1522
asbasbasbag57
(g73
g59
NtRp1523
(dp1524
g62
(dp1525
sg71
g1033
sg64
(lp1526
g57
(g78
g59
NtRp1527
(dp1528
g62
(dp1529
g82
g83
ssg71
g1523
sg64
(lp1530
S'query_string'
p1531
asbag57
(g78
g59
NtRp1532
(dp1533
g62
(dp1534
g89
g90
ssg71
g1523
sg64
(lp1535
S':'
asbag57
(g78
g59
NtRp1536
(dp1537
g62
(dp1538
sg71
g1523
sg64
(lp1539
g57
(g58
g59
NtRp1540
(dp1541
g62
(dp1542
g70
I4
ssg71
g1536
sg64
(lp1543
S''
asbasbasbag57
(g73
g59
NtRp1544
(dp1545
g62
(dp1546
sg71
g1033
sg64
(lp1547
g57
(g78
g59
NtRp1548
(dp1549
g62
(dp1550
g82
g83
ssg71
g1544
sg64
(lp1551
S'remote_addr'
p1552
asbag57
(g78
g59
NtRp1553
(dp1554
g62
(dp1555
g89
g90
ssg71
g1544
sg64
(lp1556
S':'
asbag57
(g78
g59
NtRp1557
(dp1558
g62
(dp1559
sg71
g1544
sg64
(lp1560
g57
(g58
g59
NtRp1561
(dp1562
g62
(dp1563
g70
I4
ssg71
g1557
sg64
(lp1564
g212
asbasbasbag57
(g73
g59
NtRp1565
(dp1566
g62
(dp1567
sg71
g1033
sg64
(lp1568
g57
(g78
g59
NtRp1569
(dp1570
g62
(dp1571
g82
g83
ssg71
g1565
sg64
(lp1572
S'remote_port'
p1573
asbag57
(g78
g59
NtRp1574
(dp1575
g62
(dp1576
g89
g90
ssg71
g1565
sg64
(lp1577
S':'
asbag57
(g78
g59
NtRp1578
(dp1579
g62
(dp1580
sg71
g1565
sg64
(lp1581
g57
(g58
g59
NtRp1582
(dp1583
g62
(dp1584
g70
I4
ssg71
g1578
sg64
(lp1585
S'51970'
p1586
asbasbasbag57
(g73
g59
NtRp1587
(dp1588
g62
(dp1589
sg71
g1033
sg64
(lp1590
g57
(g78
g59
NtRp1591
(dp1592
g62
(dp1593
g82
g83
ssg71
g1587
sg64
(lp1594
S'request_method'
p1595
asbag57
(g78
g59
NtRp1596
(dp1597
g62
(dp1598
g89
g90
ssg71
g1587
sg64
(lp1599
S':'
asbag57
(g78
g59
NtRp1600
(dp1601
g62
(dp1602
sg71
g1587
sg64
(lp1603
g57
(g58
g59
NtRp1604
(dp1605
g62
(dp1606
g70
I4
ssg71
g1600
sg64
(lp1607
S'GET'
p1608
asbasbasbag57
(g73
g59
NtRp1609
(dp1610
g62
(dp1611
sg71
g1033
sg64
(lp1612
g57
(g78
g59
NtRp1613
(dp1614
g62
(dp1615
g82
g83
ssg71
g1609
sg64
(lp1616
S'request_uri'
p1617
asbag57
(g78
g59
NtRp1618
(dp1619
g62
(dp1620
g89
g90
ssg71
g1609
sg64
(lp1621
S':'
asbag57
(g78
g59
NtRp1622
(dp1623
g62
(dp1624
sg71
g1609
sg64
(lp1625
g57
(g58
g59
NtRp1626
(dp1627
g62
(dp1628
g70
I4
ssg71
g1622
sg64
(lp1629
g1522
asbasbasbag57
(g73
g59
NtRp1630
(dp1631
g62
(dp1632
sg71
g1033
sg64
(lp1633
g57
(g78
g59
NtRp1634
(dp1635
g62
(dp1636
g82
g83
ssg71
g1630
sg64
(lp1637
S'script_name'
p1638
asbag57
(g78
g59
NtRp1639
(dp1640
g62
(dp1641
g89
g90
ssg71
g1630
sg64
(lp1642
S':'
asbag57
(g78
g59
NtRp1643
(dp1644
g62
(dp1645
sg71
g1630
sg64
(lp1646
g57
(g58
g59
NtRp1647
(dp1648
g62
(dp1649
g70
I4
ssg71
g1643
sg64
(lp1650
S''
asbasbasbag57
(g73
g59
NtRp1651
(dp1652
g62
(dp1653
sg71
g1033
sg64
(lp1654
g57
(g78
g59
NtRp1655
(dp1656
g62
(dp1657
g82
g83
ssg71
g1651
sg64
(lp1658
S'server_name'
p1659
asbag57
(g78
g59
NtRp1660
(dp1661
g62
(dp1662
g89
g90
ssg71
g1651
sg64
(lp1663
S':'
asbag57
(g78
g59
NtRp1664
(dp1665
g62
(dp1666
sg71
g1651
sg64
(lp1667
g57
(g58
g59
NtRp1668
(dp1669
g62
(dp1670
g70
I4
ssg71
g1664
sg64
(lp1671
S'ubuntu'
p1672
asbasbasbag57
(g73
g59
NtRp1673
(dp1674
g62
(dp1675
sg71
g1033
sg64
(lp1676
g57
(g78
g59
NtRp1677
(dp1678
g62
(dp1679
g82
g83
ssg71
g1673
sg64
(lp1680
S'server_port'
p1681
asbag57
(g78
g59
NtRp1682
(dp1683
g62
(dp1684
g89
g90
ssg71
g1673
sg64
(lp1685
S':'
asbag57
(g78
g59
NtRp1686
(dp1687
g62
(dp1688
sg71
g1673
sg64
(lp1689
g57
(g58
g59
NtRp1690
(dp1691
g62
(dp1692
g70
I4
ssg71
g1686
sg64
(lp1693
S'8000'
p1694
asbasbasbag57
(g73
g59
NtRp1695
(dp1696
g62
(dp1697
sg71
g1033
sg64
(lp1698
g57
(g78
g59
NtRp1699
(dp1700
g62
(dp1701
g82
g83
ssg71
g1695
sg64
(lp1702
S'server_protocol'
p1703
asbag57
(g78
g59
NtRp1704
(dp1705
g62
(dp1706
g89
g90
ssg71
g1695
sg64
(lp1707
S':'
asbag57
(g78
g59
NtRp1708
(dp1709
g62
(dp1710
sg71
g1695
sg64
(lp1711
g57
(g58
g59
NtRp1712
(dp1713
g62
(dp1714
g70
I4
ssg71
g1708
sg64
(lp1715
S'HTTP/1.1'
p1716
asbasbasbag57
(g73
g59
NtRp1717
(dp1718
g62
(dp1719
sg71
g1033
sg64
(lp1720
g57
(g78
g59
NtRp1721
(dp1722
g62
(dp1723
g82
g83
ssg71
g1717
sg64
(lp1724
S'server_software'
p1725
asbag57
(g78
g59
NtRp1726
(dp1727
g62
(dp1728
g89
g90
ssg71
g1717
sg64
(lp1729
S':'
asbag57
(g78
g59
NtRp1730
(dp1731
g62
(dp1732
sg71
g1717
sg64
(lp1733
g57
(g58
g59
NtRp1734
(dp1735
g62
(dp1736
g70
I4
ssg71
g1730
sg64
(lp1737
S'Rocket 1.2.6'
p1738
asbasbasbag57
(g73
g59
NtRp1739
(dp1740
g62
(dp1741
sg71
g1033
sg64
(lp1742
g57
(g78
g59
NtRp1743
(dp1744
g62
(dp1745
g82
g83
ssg71
g1739
sg64
(lp1746
S'web2py_path'
p1747
asbag57
(g78
g59
NtRp1748
(dp1749
g62
(dp1750
g89
g90
ssg71
g1739
sg64
(lp1751
S':'
asbag57
(g78
g59
NtRp1752
(dp1753
g62
(dp1754
sg71
g1739
sg64
(lp1755
g57
(g58
g59
NtRp1756
(dp1757
g62
(dp1758
g70
I4
ssg71
g1752
sg64
(lp1759
g1080
asbasbasbag57
(g73
g59
NtRp1760
(dp1761
g62
(dp1762
sg71
g1033
sg64
(lp1763
g57
(g78
g59
NtRp1764
(dp1765
g62
(dp1766
g82
g83
ssg71
g1760
sg64
(lp1767
S'web2py_version'
p1768
asbag57
(g78
g59
NtRp1769
(dp1770
g62
(dp1771
g89
g90
ssg71
g1760
sg64
(lp1772
S':'
asbag57
(g78
g59
NtRp1773
(dp1774
g62
(dp1775
sg71
g1760
sg64
(lp1776
g57
(g58
g59
NtRp1777
(dp1778
g62
(dp1779
g70
I4
ssg71
g1773
sg64
(lp1780
g57
(g66
g59
NtRp1781
(dp1782
g62
(dp1783
g70
I3
ssg71
Nsg64
(lp1784
g57
(g73
g59
NtRp1785
(dp1786
g62
(dp1787
sg71
g1781
sg64
(lp1788
g57
(g78
g59
NtRp1789
(dp1790
g62
(dp1791
sg71
g1785
sg64
(lp1792
g57
(g58
g59
NtRp1793
(dp1794
g62
(dp1795
g70
I3
ssg71
g1789
sg64
(lp1796
S'2'
asbasbasbag57
(g73
g59
NtRp1797
(dp1798
g62
(dp1799
sg71
g1781
sg64
(lp1800
g57
(g78
g59
NtRp1801
(dp1802
g62
(dp1803
sg71
g1797
sg64
(lp1804
g57
(g58
g59
NtRp1805
(dp1806
g62
(dp1807
g70
I3
ssg71
g1801
sg64
(lp1808
S'3'
asbasbasbag57
(g73
g59
NtRp1809
(dp1810
g62
(dp1811
sg71
g1781
sg64
(lp1812
g57
(g78
g59
NtRp1813
(dp1814
g62
(dp1815
sg71
g1809
sg64
(lp1816
g57
(g58
g59
NtRp1817
(dp1818
g62
(dp1819
g70
I3
ssg71
g1813
sg64
(lp1820
S'2'
asbasbasbag57
(g73
g59
NtRp1821
(dp1822
g62
(dp1823
sg71
g1781
sg64
(lp1824
g57
(g78
g59
NtRp1825
(dp1826
g62
(dp1827
sg71
g1821
sg64
(lp1828
g57
(g58
g59
NtRp1829
(dp1830
g62
(dp1831
g70
I3
ssg71
g1825
sg64
(lp1832
S'datetime.datetime(2012, 12, 17, 15, 3, 30)'
p1833
asbasbasbag57
(g73
g59
NtRp1834
(dp1835
g62
(dp1836
sg71
g1781
sg64
(lp1837
g57
(g78
g59
NtRp1838
(dp1839
g62
(dp1840
sg71
g1834
sg64
(lp1841
g57
(g58
g59
NtRp1842
(dp1843
g62
(dp1844
g70
I3
ssg71
g1838
sg64
(lp1845
S'stable'
p1846
asbasbasbasbasbasbasbag57
(g73
g59
NtRp1847
(dp1848
g62
(dp1849
sg71
g1033
sg64
(lp1850
g57
(g78
g59
NtRp1851
(dp1852
g62
(dp1853
g82
g83
ssg71
g1847
sg64
(lp1854
S'wsgi_errors'
p1855
asbag57
(g78
g59
NtRp1856
(dp1857
g62
(dp1858
g89
g90
ssg71
g1847
sg64
(lp1859
S':'
asbag57
(g78
g59
NtRp1860
(dp1861
g62
(dp1862
sg71
g1847
sg64
(lp1863
g57
(g58
g59
NtRp1864
(dp1865
g62
(dp1866
g70
I4
ssg71
g1860
sg64
(lp1867
S"<open file '<stderr>', mode 'w' at 0x7f85cc283270>"
p1868
asbasbasbag57
(g73
g59
NtRp1869
(dp1870
g62
(dp1871
sg71
g1033
sg64
(lp1872
g57
(g78
g59
NtRp1873
(dp1874
g62
(dp1875
g82
g83
ssg71
g1869
sg64
(lp1876
S'wsgi_file_wrapper'
p1877
asbag57
(g78
g59
NtRp1878
(dp1879
g62
(dp1880
g89
g90
ssg71
g1869
sg64
(lp1881
S':'
asbag57
(g78
g59
NtRp1882
(dp1883
g62
(dp1884
sg71
g1869
sg64
(lp1885
g57
(g58
g59
NtRp1886
(dp1887
g62
(dp1888
g70
I4
ssg71
g1882
sg64
(lp1889
S'<class wsgiref.util.FileWrapper at 0x144fc18>'
p1890
asbasbasbag57
(g73
g59
NtRp1891
(dp1892
g62
(dp1893
sg71
g1033
sg64
(lp1894
g57
(g78
g59
NtRp1895
(dp1896
g62
(dp1897
g82
g83
ssg71
g1891
sg64
(lp1898
S'wsgi_input'
p1899
asbag57
(g78
g59
NtRp1900
(dp1901
g62
(dp1902
g89
g90
ssg71
g1891
sg64
(lp1903
S':'
asbag57
(g78
g59
NtRp1904
(dp1905
g62
(dp1906
sg71
g1891
sg64
(lp1907
g57
(g58
g59
NtRp1908
(dp1909
g62
(dp1910
g70
I4
ssg71
g1904
sg64
(lp1911
S'<socket._fileobject object at 0x7f85a02fc050>'
p1912
asbasbasbag57
(g73
g59
NtRp1913
(dp1914
g62
(dp1915
sg71
g1033
sg64
(lp1916
g57
(g78
g59
NtRp1917
(dp1918
g62
(dp1919
g82
g83
ssg71
g1913
sg64
(lp1920
S'wsgi_multiprocess'
p1921
asbag57
(g78
g59
NtRp1922
(dp1923
g62
(dp1924
g89
g90
ssg71
g1913
sg64
(lp1925
S':'
asbag57
(g78
g59
NtRp1926
(dp1927
g62
(dp1928
sg71
g1913
sg64
(lp1929
g57
(g58
g59
NtRp1930
(dp1931
g62
(dp1932
g70
I4
ssg71
g1926
sg64
(lp1933
g100
asbasbasbag57
(g73
g59
NtRp1934
(dp1935
g62
(dp1936
sg71
g1033
sg64
(lp1937
g57
(g78
g59
NtRp1938
(dp1939
g62
(dp1940
g82
g83
ssg71
g1934
sg64
(lp1941
S'wsgi_multithread'
p1942
asbag57
(g78
g59
NtRp1943
(dp1944
g62
(dp1945
g89
g90
ssg71
g1934
sg64
(lp1946
S':'
asbag57
(g78
g59
NtRp1947
(dp1948
g62
(dp1949
sg71
g1934
sg64
(lp1950
g57
(g58
g59
NtRp1951
(dp1952
g62
(dp1953
g70
I4
ssg71
g1947
sg64
(lp1954
S'True'
p1955
asbasbasbag57
(g73
g59
NtRp1956
(dp1957
g62
(dp1958
sg71
g1033
sg64
(lp1959
g57
(g78
g59
NtRp1960
(dp1961
g62
(dp1962
g82
g83
ssg71
g1956
sg64
(lp1963
S'wsgi_run_once'
p1964
asbag57
(g78
g59
NtRp1965
(dp1966
g62
(dp1967
g89
g90
ssg71
g1956
sg64
(lp1968
S':'
asbag57
(g78
g59
NtRp1969
(dp1970
g62
(dp1971
sg71
g1956
sg64
(lp1972
g57
(g58
g59
NtRp1973
(dp1974
g62
(dp1975
g70
I4
ssg71
g1969
sg64
(lp1976
g100
asbasbasbag57
(g73
g59
NtRp1977
(dp1978
g62
(dp1979
sg71
g1033
sg64
(lp1980
g57
(g78
g59
NtRp1981
(dp1982
g62
(dp1983
g82
g83
ssg71
g1977
sg64
(lp1984
S'wsgi_url_scheme'
p1985
asbag57
(g78
g59
NtRp1986
(dp1987
g62
(dp1988
g89
g90
ssg71
g1977
sg64
(lp1989
S':'
asbag57
(g78
g59
NtRp1990
(dp1991
g62
(dp1992
sg71
g1977
sg64
(lp1993
g57
(g58
g59
NtRp1994
(dp1995
g62
(dp1996
g70
I4
ssg71
g1990
sg64
(lp1997
S'http'
p1998
asbasbasbag57
(g73
g59
NtRp1999
(dp2000
g62
(dp2001
sg71
g1033
sg64
(lp2002
g57
(g78
g59
NtRp2003
(dp2004
g62
(dp2005
g82
g83
ssg71
g1999
sg64
(lp2006
S'wsgi_version'
p2007
asbag57
(g78
g59
NtRp2008
(dp2009
g62
(dp2010
g89
g90
ssg71
g1999
sg64
(lp2011
S':'
asbag57
(g78
g59
NtRp2012
(dp2013
g62
(dp2014
sg71
g1999
sg64
(lp2015
g57
(g58
g59
NtRp2016
(dp2017
g62
(dp2018
g70
I4
ssg71
g2012
sg64
(lp2019
g57
(g66
g59
NtRp2020
(dp2021
g62
(dp2022
g70
I3
ssg71
Nsg64
(lp2023
g57
(g73
g59
NtRp2024
(dp2025
g62
(dp2026
sg71
g2020
sg64
(lp2027
g57
(g78
g59
NtRp2028
(dp2029
g62
(dp2030
sg71
g2024
sg64
(lp2031
g57
(g58
g59
NtRp2032
(dp2033
g62
(dp2034
g70
I3
ssg71
g2028
sg64
(lp2035
S'1'
asbasbasbag57
(g73
g59
NtRp2036
(dp2037
g62
(dp2038
sg71
g2020
sg64
(lp2039
g57
(g78
g59
NtRp2040
(dp2041
g62
(dp2042
sg71
g2036
sg64
(lp2043
g57
(g58
g59
NtRp2044
(dp2045
g62
(dp2046
g70
I3
ssg71
g2040
sg64
(lp2047
S'0'
asbasbasbasbasbasbasbasbasbasbasbag57
(g73
g59
NtRp2048
(dp2049
g62
(dp2050
sg71
g67
sg64
(lp2051
g57
(g78
g59
NtRp2052
(dp2053
g62
(dp2054
g82
g83
ssg71
g2048
sg64
(lp2055
S'extension'
p2056
asbag57
(g78
g59
NtRp2057
(dp2058
g62
(dp2059
g89
g90
ssg71
g2048
sg64
(lp2060
S':'
asbag57
(g78
g59
NtRp2061
(dp2062
g62
(dp2063
sg71
g2048
sg64
(lp2064
g57
(g58
g59
NtRp2065
(dp2066
g62
(dp2067
g70
I5
ssg71
g2061
sg64
(lp2068
S'html'
p2069
asbasbasbag57
(g73
g59
NtRp2070
(dp2071
g62
(dp2072
sg71
g67
sg64
(lp2073
g57
(g78
g59
NtRp2074
(dp2075
g62
(dp2076
g82
g83
ssg71
g2070
sg64
(lp2077
S'folder'
p2078
asbag57
(g78
g59
NtRp2079
(dp2080
g62
(dp2081
g89
g90
ssg71
g2070
sg64
(lp2082
S':'
asbag57
(g78
g59
NtRp2083
(dp2084
g62
(dp2085
sg71
g2070
sg64
(lp2086
g57
(g58
g59
NtRp2087
(dp2088
g62
(dp2089
g70
I5
ssg71
g2083
sg64
(lp2090
S'/home/simran/web2py/applications/IIIT_calendars/'
p2091
asbasbasbag57
(g73
g59
NtRp2092
(dp2093
g62
(dp2094
sg71
g67
sg64
(lp2095
g57
(g78
g59
NtRp2096
(dp2097
g62
(dp2098
g82
g83
ssg71
g2092
sg64
(lp2099
S'function'
p2100
asbag57
(g78
g59
NtRp2101
(dp2102
g62
(dp2103
g89
g90
ssg71
g2092
sg64
(lp2104
S':'
asbag57
(g78
g59
NtRp2105
(dp2106
g62
(dp2107
sg71
g2092
sg64
(lp2108
g57
(g58
g59
NtRp2109
(dp2110
g62
(dp2111
g70
I5
ssg71
g2105
sg64
(lp2112
S'calendar'
p2113
asbasbasbag57
(g73
g59
NtRp2114
(dp2115
g62
(dp2116
sg71
g67
sg64
(lp2117
g57
(g78
g59
NtRp2118
(dp2119
g62
(dp2120
g82
g83
ssg71
g2114
sg64
(lp2121
S'get_vars'
p2122
asbag57
(g78
g59
NtRp2123
(dp2124
g62
(dp2125
g89
g90
ssg71
g2114
sg64
(lp2126
S':'
asbag57
(g78
g59
NtRp2127
(dp2128
g62
(dp2129
sg71
g2114
sg64
(lp2130
g57
(g58
g59
NtRp2131
(dp2132
g62
(dp2133
g70
I5
ssg71
g2127
sg64
(lp2134
g57
(g66
g59
NtRp2135
(dp2136
g62
(dp2137
g70
I4
ssg71
Nsg64
(lp2138
sbasbasbasbag57
(g73
g59
NtRp2139
(dp2140
g62
(dp2141
sg71
g67
sg64
(lp2142
g57
(g78
g59
NtRp2143
(dp2144
g62
(dp2145
g82
g83
ssg71
g2139
sg64
(lp2146
S'global_settings'
p2147
asbag57
(g78
g59
NtRp2148
(dp2149
g62
(dp2150
g89
g90
ssg71
g2139
sg64
(lp2151
S':'
asbag57
(g78
g59
NtRp2152
(dp2153
g62
(dp2154
sg71
g2139
sg64
(lp2155
g57
(g58
g59
NtRp2156
(dp2157
g62
(dp2158
g70
I5
ssg71
g2152
sg64
(lp2159
g57
(g66
g59
NtRp2160
(dp2161
g62
(dp2162
g70
I4
ssg71
Nsg64
(lp2163
g57
(g73
g59
NtRp2164
(dp2165
g62
(dp2166
sg71
g2160
sg64
(lp2167
g57
(g78
g59
NtRp2168
(dp2169
g62
(dp2170
g82
g83
ssg71
g2164
sg64
(lp2171
g1045
asbag57
(g78
g59
NtRp2172
(dp2173
g62
(dp2174
g89
g90
ssg71
g2164
sg64
(lp2175
S':'
asbag57
(g78
g59
NtRp2176
(dp2177
g62
(dp2178
sg71
g2164
sg64
(lp2179
g57
(g58
g59
NtRp2180
(dp2181
g62
(dp2182
g70
I4
ssg71
g2176
sg64
(lp2183
S"set(['/home/simran/web2py/applications/welcome/', '/home/simran/web2py/applications/calendar/', '/home/simran/web2py/applications/IIIT_calendars/', '/home/simran/web2py/applications/admin/'])"
p2184
asbasbasbag57
(g73
g59
NtRp2185
(dp2186
g62
(dp2187
sg71
g2160
sg64
(lp2188
g57
(g78
g59
NtRp2189
(dp2190
g62
(dp2191
g82
g83
ssg71
g2185
sg64
(lp2192
g1067
asbag57
(g78
g59
NtRp2193
(dp2194
g62
(dp2195
g89
g90
ssg71
g2185
sg64
(lp2196
S':'
asbag57
(g78
g59
NtRp2197
(dp2198
g62
(dp2199
sg71
g2185
sg64
(lp2200
g57
(g58
g59
NtRp2201
(dp2202
g62
(dp2203
g70
I4
ssg71
g2197
sg64
(lp2204
g1080
asbasbasbag57
(g73
g59
NtRp2205
(dp2206
g62
(dp2207
sg71
g2160
sg64
(lp2208
g57
(g78
g59
NtRp2209
(dp2210
g62
(dp2211
g82
g83
ssg71
g2205
sg64
(lp2212
g1089
asbag57
(g78
g59
NtRp2213
(dp2214
g62
(dp2215
g89
g90
ssg71
g2205
sg64
(lp2216
S':'
asbag57
(g78
g59
NtRp2217
(dp2218
g62
(dp2219
sg71
g2205
sg64
(lp2220
g57
(g58
g59
NtRp2221
(dp2222
g62
(dp2223
g70
I4
ssg71
g2217
sg64
(lp2224
g57
(g66
g59
NtRp2225
(dp2226
g62
(dp2227
g70
I3
ssg71
Nsg64
(lp2228
sbasbasbasbag57
(g73
g59
NtRp2229
(dp2230
g62
(dp2231
sg71
g2160
sg64
(lp2232
g57
(g78
g59
NtRp2233
(dp2234
g62
(dp2235
g82
g83
ssg71
g2229
sg64
(lp2236
g1114
asbag57
(g78
g59
NtRp2237
(dp2238
g62
(dp2239
g89
g90
ssg71
g2229
sg64
(lp2240
S':'
asbag57
(g78
g59
NtRp2241
(dp2242
g62
(dp2243
sg71
g2229
sg64
(lp2244
g57
(g58
g59
NtRp2245
(dp2246
g62
(dp2247
g70
I4
ssg71
g2241
sg64
(lp2248
S"<Values at 0x14e57e8: {'verbose': False, 'ip': '127.0.0.1', 'with_scheduler': False, 'ips': [], 'shutdown_timeout': 5, 'taskbar': False, 'port': 8000, 'maxthreads': None, 'softcron': False, 'server_name': 'ubuntu', 'bpython': False, 'nogui': False, 'pid_filename': 'httpserver.pid', 'extcron': False, 'runcron': False, 'run_system_tests': False, 'test': None, 'folder': '/home/simran/web2py', 'config': '', 'minthreads': None, 'winservice': '', 'shell': None, 'run': '', 'log_filename': 'httpserver.log', 'debuglevel': 30, 'args': [''], 'socket_timeout': 5, 'ssl_ca_certificate': None, 'scheduler': None, 'profiler_filename': None, 'ssl_private_key': '', 'scheduler_groups': None, 'password': '<ask>', 'request_queue_size': 5, 'ssl_certificate': '', 'cronjob': False, 'numthreads': None, 'quiet': False, 'interfaces': None, 'import_models': False, 'timeout': 10, 'plain': False, 'nobanner': False}>"
p2249
asbasbasbag57
(g73
g59
NtRp2250
(dp2251
g62
(dp2252
sg71
g2160
sg64
(lp2253
g57
(g78
g59
NtRp2254
(dp2255
g62
(dp2256
g82
g83
ssg71
g2250
sg64
(lp2257
g1136
asbag57
(g78
g59
NtRp2258
(dp2259
g62
(dp2260
g89
g90
ssg71
g2250
sg64
(lp2261
S':'
asbag57
(g78
g59
NtRp2262
(dp2263
g62
(dp2264
sg71
g2250
sg64
(lp2265
g57
(g58
g59
NtRp2266
(dp2267
g62
(dp2268
g70
I4
ssg71
g2262
sg64
(lp2269
S'set([])'
p2270
asbasbasbag57
(g73
g59
NtRp2271
(dp2272
g62
(dp2273
sg71
g2160
sg64
(lp2274
g57
(g78
g59
NtRp2275
(dp2276
g62
(dp2277
g82
g83
ssg71
g2271
sg64
(lp2278
g1158
asbag57
(g78
g59
NtRp2279
(dp2280
g62
(dp2281
g89
g90
ssg71
g2271
sg64
(lp2282
S':'
asbag57
(g78
g59
NtRp2283
(dp2284
g62
(dp2285
sg71
g2271
sg64
(lp2286
g57
(g58
g59
NtRp2287
(dp2288
g62
(dp2289
g70
I4
ssg71
g2283
sg64
(lp2290
g100
asbasbasbag57
(g73
g59
NtRp2291
(dp2292
g62
(dp2293
sg71
g2160
sg64
(lp2294
g57
(g78
g59
NtRp2295
(dp2296
g62
(dp2297
g82
g83
ssg71
g2291
sg64
(lp2298
g1179
asbag57
(g78
g59
NtRp2299
(dp2300
g62
(dp2301
g89
g90
ssg71
g2291
sg64
(lp2302
S':'
asbag57
(g78
g59
NtRp2303
(dp2304
g62
(dp2305
sg71
g2291
sg64
(lp2306
g57
(g58
g59
NtRp2307
(dp2308
g62
(dp2309
g70
I4
ssg71
g2303
sg64
(lp2310
g1192
asbasbasbag57
(g73
g59
NtRp2311
(dp2312
g62
(dp2313
sg71
g2160
sg64
(lp2314
g57
(g78
g59
NtRp2315
(dp2316
g62
(dp2317
g82
g83
ssg71
g2311
sg64
(lp2318
g1377
asbag57
(g78
g59
NtRp2319
(dp2320
g62
(dp2321
g89
g90
ssg71
g2311
sg64
(lp2322
S':'
asbag57
(g78
g59
NtRp2323
(dp2324
g62
(dp2325
sg71
g2311
sg64
(lp2326
g57
(g58
g59
NtRp2327
(dp2328
g62
(dp2329
g70
I4
ssg71
g2323
sg64
(lp2330
g100
asbasbasbag57
(g73
g59
NtRp2331
(dp2332
g62
(dp2333
sg71
g2160
sg64
(lp2334
g57
(g78
g59
NtRp2335
(dp2336
g62
(dp2337
g82
g83
ssg71
g2331
sg64
(lp2338
g1398
asbag57
(g78
g59
NtRp2339
(dp2340
g62
(dp2341
g89
g90
ssg71
g2331
sg64
(lp2342
S':'
asbag57
(g78
g59
NtRp2343
(dp2344
g62
(dp2345
sg71
g2331
sg64
(lp2346
g57
(g58
g59
NtRp2347
(dp2348
g62
(dp2349
g70
I4
ssg71
g2343
sg64
(lp2350
g100
asbasbasbag57
(g73
g59
NtRp2351
(dp2352
g62
(dp2353
sg71
g2160
sg64
(lp2354
g57
(g78
g59
NtRp2355
(dp2356
g62
(dp2357
g82
g83
ssg71
g2351
sg64
(lp2358
g1419
asbag57
(g78
g59
NtRp2359
(dp2360
g62
(dp2361
g89
g90
ssg71
g2351
sg64
(lp2362
S':'
asbag57
(g78
g59
NtRp2363
(dp2364
g62
(dp2365
sg71
g2351
sg64
(lp2366
g57
(g58
g59
NtRp2367
(dp2368
g62
(dp2369
g70
I4
ssg71
g2363
sg64
(lp2370
g57
(g66
g59
NtRp2371
(dp2372
g62
(dp2373
g70
I3
ssg71
Nsg64
(lp2374
g57
(g73
g59
NtRp2375
(dp2376
g62
(dp2377
sg71
g2371
sg64
(lp2378
g57
(g78
g59
NtRp2379
(dp2380
g62
(dp2381
sg71
g2375
sg64
(lp2382
g57
(g58
g59
NtRp2383
(dp2384
g62
(dp2385
g70
I3
ssg71
g2379
sg64
(lp2386
g1448
asbasbasbag57
(g73
g59
NtRp2387
(dp2388
g62
(dp2389
sg71
g2371
sg64
(lp2390
g57
(g78
g59
NtRp2391
(dp2392
g62
(dp2393
sg71
g2387
sg64
(lp2394
g57
(g58
g59
NtRp2395
(dp2396
g62
(dp2397
g70
I3
ssg71
g2391
sg64
(lp2398
g1461
asbasbasbag57
(g73
g59
NtRp2399
(dp2400
g62
(dp2401
sg71
g2371
sg64
(lp2402
g57
(g78
g59
NtRp2403
(dp2404
g62
(dp2405
sg71
g2399
sg64
(lp2406
g57
(g58
g59
NtRp2407
(dp2408
g62
(dp2409
g70
I3
ssg71
g2403
sg64
(lp2410
g1474
asbasbasbag57
(g73
g59
NtRp2411
(dp2412
g62
(dp2413
sg71
g2371
sg64
(lp2414
g57
(g78
g59
NtRp2415
(dp2416
g62
(dp2417
sg71
g2411
sg64
(lp2418
g57
(g58
g59
NtRp2419
(dp2420
g62
(dp2421
g70
I3
ssg71
g2415
sg64
(lp2422
g1487
asbasbasbag57
(g73
g59
NtRp2423
(dp2424
g62
(dp2425
sg71
g2371
sg64
(lp2426
g57
(g78
g59
NtRp2427
(dp2428
g62
(dp2429
sg71
g2423
sg64
(lp2430
g57
(g58
g59
NtRp2431
(dp2432
g62
(dp2433
g70
I3
ssg71
g2427
sg64
(lp2434
g1500
asbasbasbasbasbasbasbag57
(g73
g59
NtRp2435
(dp2436
g62
(dp2437
sg71
g2160
sg64
(lp2438
g57
(g78
g59
NtRp2439
(dp2440
g62
(dp2441
g82
g83
ssg71
g2435
sg64
(lp2442
g1768
asbag57
(g78
g59
NtRp2443
(dp2444
g62
(dp2445
g89
g90
ssg71
g2435
sg64
(lp2446
S':'
asbag57
(g78
g59
NtRp2447
(dp2448
g62
(dp2449
sg71
g2435
sg64
(lp2450
g57
(g58
g59
NtRp2451
(dp2452
g62
(dp2453
g70
I4
ssg71
g2447
sg64
(lp2454
g57
(g66
g59
NtRp2455
(dp2456
g62
(dp2457
g70
I3
ssg71
Nsg64
(lp2458
g57
(g73
g59
NtRp2459
(dp2460
g62
(dp2461
sg71
g2455
sg64
(lp2462
g57
(g78
g59
NtRp2463
(dp2464
g62
(dp2465
sg71
g2459
sg64
(lp2466
g57
(g58
g59
NtRp2467
(dp2468
g62
(dp2469
g70
I3
ssg71
g2463
sg64
(lp2470
S'2'
asbasbasbag57
(g73
g59
NtRp2471
(dp2472
g62
(dp2473
sg71
g2455
sg64
(lp2474
g57
(g78
g59
NtRp2475
(dp2476
g62
(dp2477
sg71
g2471
sg64
(lp2478
g57
(g58
g59
NtRp2479
(dp2480
g62
(dp2481
g70
I3
ssg71
g2475
sg64
(lp2482
S'3'
asbasbasbag57
(g73
g59
NtRp2483
(dp2484
g62
(dp2485
sg71
g2455
sg64
(lp2486
g57
(g78
g59
NtRp2487
(dp2488
g62
(dp2489
sg71
g2483
sg64
(lp2490
g57
(g58
g59
NtRp2491
(dp2492
g62
(dp2493
g70
I3
ssg71
g2487
sg64
(lp2494
S'2'
asbasbasbag57
(g73
g59
NtRp2495
(dp2496
g62
(dp2497
sg71
g2455
sg64
(lp2498
g57
(g78
g59
NtRp2499
(dp2500
g62
(dp2501
sg71
g2495
sg64
(lp2502
g57
(g58
g59
NtRp2503
(dp2504
g62
(dp2505
g70
I3
ssg71
g2499
sg64
(lp2506
S'datetime.datetime(2012, 12, 17, 15, 3, 30)'
p2507
asbasbasbag57
(g73
g59
NtRp2508
(dp2509
g62
(dp2510
sg71
g2455
sg64
(lp2511
g57
(g78
g59
NtRp2512
(dp2513
g62
(dp2514
sg71
g2508
sg64
(lp2515
g57
(g58
g59
NtRp2516
(dp2517
g62
(dp2518
g70
I3
ssg71
g2512
sg64
(lp2519
g1846
asbasbasbasbasbasbasbasbasbasbasbag57
(g73
g59
NtRp2520
(dp2521
g62
(dp2522
sg71
g67
sg64
(lp2523
g57
(g78
g59
NtRp2524
(dp2525
g62
(dp2526
g82
g83
ssg71
g2520
sg64
(lp2527
S'is_https'
p2528
asbag57
(g78
g59
NtRp2529
(dp2530
g62
(dp2531
g89
g90
ssg71
g2520
sg64
(lp2532
S':'
asbag57
(g78
g59
NtRp2533
(dp2534
g62
(dp2535
sg71
g2520
sg64
(lp2536
g57
(g58
g59
NtRp2537
(dp2538
g62
(dp2539
g70
I5
ssg71
g2533
sg64
(lp2540
g100
asbasbasbag57
(g73
g59
NtRp2541
(dp2542
g62
(dp2543
sg71
g67
sg64
(lp2544
g57
(g78
g59
NtRp2545
(dp2546
g62
(dp2547
g82
g83
ssg71
g2541
sg64
(lp2548
S'is_local'
p2549
asbag57
(g78
g59
NtRp2550
(dp2551
g62
(dp2552
g89
g90
ssg71
g2541
sg64
(lp2553
S':'
asbag57
(g78
g59
NtRp2554
(dp2555
g62
(dp2556
sg71
g2541
sg64
(lp2557
g57
(g58
g59
NtRp2558
(dp2559
g62
(dp2560
g70
I5
ssg71
g2554
sg64
(lp2561
g1955
asbasbasbag57
(g73
g59
NtRp2562
(dp2563
g62
(dp2564
sg71
g67
sg64
(lp2565
g57
(g78
g59
NtRp2566
(dp2567
g62
(dp2568
g82
g83
ssg71
g2562
sg64
(lp2569
S'is_restful'
p2570
asbag57
(g78
g59
NtRp2571
(dp2572
g62
(dp2573
g89
g90
ssg71
g2562
sg64
(lp2574
S':'
asbag57
(g78
g59
NtRp2575
(dp2576
g62
(dp2577
sg71
g2562
sg64
(lp2578
g57
(g58
g59
NtRp2579
(dp2580
g62
(dp2581
g70
I5
ssg71
g2575
sg64
(lp2582
g100
asbasbasbag57
(g73
g59
NtRp2583
(dp2584
g62
(dp2585
sg71
g67
sg64
(lp2586
g57
(g78
g59
NtRp2587
(dp2588
g62
(dp2589
g82
g83
ssg71
g2583
sg64
(lp2590
S'now'
p2591
asbag57
(g78
g59
NtRp2592
(dp2593
g62
(dp2594
g89
g90
ssg71
g2583
sg64
(lp2595
S':'
asbag57
(g78
g59
NtRp2596
(dp2597
g62
(dp2598
sg71
g2583
sg64
(lp2599
g57
(g58
g59
NtRp2600
(dp2601
g62
(dp2602
g70
I5
ssg71
g2596
sg64
(lp2603
S'datetime.datetime(2013, 4, 17, 0, 9, 14, 932707)'
p2604
asbasbasbag57
(g73
g59
NtRp2605
(dp2606
g62
(dp2607
sg71
g67
sg64
(lp2608
g57
(g78
g59
NtRp2609
(dp2610
g62
(dp2611
g82
g83
ssg71
g2605
sg64
(lp2612
S'post_vars'
p2613
asbag57
(g78
g59
NtRp2614
(dp2615
g62
(dp2616
g89
g90
ssg71
g2605
sg64
(lp2617
S':'
asbag57
(g78
g59
NtRp2618
(dp2619
g62
(dp2620
sg71
g2605
sg64
(lp2621
g57
(g58
g59
NtRp2622
(dp2623
g62
(dp2624
g70
I5
ssg71
g2618
sg64
(lp2625
g57
(g66
g59
NtRp2626
(dp2627
g62
(dp2628
g70
I4
ssg71
Nsg64
(lp2629
sbasbasbasbag57
(g73
g59
NtRp2630
(dp2631
g62
(dp2632
sg71
g67
sg64
(lp2633
g57
(g78
g59
NtRp2634
(dp2635
g62
(dp2636
g82
g83
ssg71
g2630
sg64
(lp2637
S'raw_args'
p2638
asbag57
(g78
g59
NtRp2639
(dp2640
g62
(dp2641
g89
g90
ssg71
g2630
sg64
(lp2642
S':'
asbag57
(g78
g59
NtRp2643
(dp2644
g62
(dp2645
sg71
g2630
sg64
(lp2646
g57
(g58
g59
NtRp2647
(dp2648
g62
(dp2649
g70
I5
ssg71
g2643
sg64
(lp2650
S''
asbasbasbag57
(g73
g59
NtRp2651
(dp2652
g62
(dp2653
sg71
g67
sg64
(lp2654
g57
(g78
g59
NtRp2655
(dp2656
g62
(dp2657
g82
g83
ssg71
g2651
sg64
(lp2658
S'raw_extension'
p2659
asbag57
(g78
g59
NtRp2660
(dp2661
g62
(dp2662
g89
g90
ssg71
g2651
sg64
(lp2663
S':'
asbag57
(g78
g59
NtRp2664
(dp2665
g62
(dp2666
sg71
g2651
sg64
(lp2667
g57
(g58
g59
NtRp2668
(dp2669
g62
(dp2670
g70
I5
ssg71
g2664
sg64
(lp2671
g2069
asbasbasbag57
(g73
g59
NtRp2672
(dp2673
g62
(dp2674
sg71
g67
sg64
(lp2675
g57
(g78
g59
NtRp2676
(dp2677
g62
(dp2678
g82
g83
ssg71
g2672
sg64
(lp2679
S'url'
p2680
asbag57
(g78
g59
NtRp2681
(dp2682
g62
(dp2683
g89
g90
ssg71
g2672
sg64
(lp2684
S':'
asbag57
(g78
g59
NtRp2685
(dp2686
g62
(dp2687
sg71
g2672
sg64
(lp2688
g57
(g58
g59
NtRp2689
(dp2690
g62
(dp2691
g70
I5
ssg71
g2685
sg64
(lp2692
g1522
asbasbasbag57
(g73
g59
NtRp2693
(dp2694
g62
(dp2695
sg71
g67
sg64
(lp2696
g57
(g78
g59
NtRp2697
(dp2698
g62
(dp2699
g82
g83
ssg71
g2693
sg64
(lp2700
S'utcnow'
p2701
asbag57
(g78
g59
NtRp2702
(dp2703
g62
(dp2704
g89
g90
ssg71
g2693
sg64
(lp2705
S':'
asbag57
(g78
g59
NtRp2706
(dp2707
g62
(dp2708
sg71
g2693
sg64
(lp2709
g57
(g58
g59
NtRp2710
(dp2711
g62
(dp2712
g70
I5
ssg71
g2706
sg64
(lp2713
S'datetime.datetime(2013, 4, 16, 18, 39, 14, 932742)'
p2714
asbasbasbag57
(g73
g59
NtRp2715
(dp2716
g62
(dp2717
sg71
g67
sg64
(lp2718
g57
(g78
g59
NtRp2719
(dp2720
g62
(dp2721
g82
g83
ssg71
g2715
sg64
(lp2722
S'uuid'
p2723
asbag57
(g78
g59
NtRp2724
(dp2725
g62
(dp2726
g89
g90
ssg71
g2715
sg64
(lp2727
S':'
asbag57
(g78
g59
NtRp2728
(dp2729
g62
(dp2730
sg71
g2715
sg64
(lp2731
g57
(g58
g59
NtRp2732
(dp2733
g62
(dp2734
g70
I5
ssg71
g2728
sg64
(lp2735
S'IIIT_calendars/127.0.0.1.2013-04-17.00-09-14.2a15c4d9-f707-40a1-845c-260063977e24'
p2736
asbasbasbag57
(g73
g59
NtRp2737
(dp2738
g62
(dp2739
sg71
g67
sg64
(lp2740
g57
(g78
g59
NtRp2741
(dp2742
g62
(dp2743
g82
g83
ssg71
g2737
sg64
(lp2744
S'vars'
p2745
asbag57
(g78
g59
NtRp2746
(dp2747
g62
(dp2748
g89
g90
ssg71
g2737
sg64
(lp2749
S':'
asbag57
(g78
g59
NtRp2750
(dp2751
g62
(dp2752
sg71
g2737
sg64
(lp2753
g57
(g58
g59
NtRp2754
(dp2755
g62
(dp2756
g70
I5
ssg71
g2750
sg64
(lp2757
g57
(g66
g59
NtRp2758
(dp2759
g62
(dp2760
g70
I4
ssg71
Nsg64
(lp2761
sbasbasbasbag57
(g73
g59
NtRp2762
(dp2763
g62
(dp2764
sg71
g67
sg64
(lp2765
g57
(g78
g59
NtRp2766
(dp2767
g62
(dp2768
g82
g83
ssg71
g2762
sg64
(lp2769
S'wsgi'
p2770
asbag57
(g78
g59
NtRp2771
(dp2772
g62
(dp2773
g89
g90
ssg71
g2762
sg64
(lp2774
S':'
asbag57
(g78
g59
NtRp2775
(dp2776
g62
(dp2777
sg71
g2762
sg64
(lp2778
g57
(g58
g59
NtRp2779
(dp2780
g62
(dp2781
g70
I5
ssg71
g2775
sg64
(lp2782
g57
(g66
g59
NtRp2783
(dp2784
g62
(dp2785
g70
I4
ssg71
Nsg64
(lp2786
g57
(g73
g59
NtRp2787
(dp2788
g62
(dp2789
sg71
g2783
sg64
(lp2790
g57
(g78
g59
NtRp2791
(dp2792
g62
(dp2793
g82
g83
ssg71
g2787
sg64
(lp2794
S'environ'
p2795
asbag57
(g78
g59
NtRp2796
(dp2797
g62
(dp2798
g89
g90
ssg71
g2787
sg64
(lp2799
S':'
asbag57
(g78
g59
NtRp2800
(dp2801
g62
(dp2802
sg71
g2787
sg64
(lp2803
g57
(g58
g59
NtRp2804
(dp2805
g62
(dp2806
g70
I4
ssg71
g2800
sg64
(lp2807
g57
(g66
g59
NtRp2808
(dp2809
g62
(dp2810
g70
I3
ssg71
Nsg64
(lp2811
g57
(g73
g59
NtRp2812
(dp2813
g62
(dp2814
sg71
g2808
sg64
(lp2815
g57
(g78
g59
NtRp2816
(dp2817
g62
(dp2818
g82
g83
ssg71
g2812
sg64
(lp2819
S'HTTP_ACCEPT'
p2820
asbag57
(g78
g59
NtRp2821
(dp2822
g62
(dp2823
g89
g90
ssg71
g2812
sg64
(lp2824
S':'
asbag57
(g78
g59
NtRp2825
(dp2826
g62
(dp2827
sg71
g2812
sg64
(lp2828
g57
(g58
g59
NtRp2829
(dp2830
g62
(dp2831
g70
I3
ssg71
g2825
sg64
(lp2832
g1214
asbasbasbag57
(g73
g59
NtRp2833
(dp2834
g62
(dp2835
sg71
g2808
sg64
(lp2836
g57
(g78
g59
NtRp2837
(dp2838
g62
(dp2839
g82
g83
ssg71
g2833
sg64
(lp2840
S'HTTP_ACCEPT_ENCODING'
p2841
asbag57
(g78
g59
NtRp2842
(dp2843
g62
(dp2844
g89
g90
ssg71
g2833
sg64
(lp2845
S':'
asbag57
(g78
g59
NtRp2846
(dp2847
g62
(dp2848
sg71
g2833
sg64
(lp2849
g57
(g58
g59
NtRp2850
(dp2851
g62
(dp2852
g70
I3
ssg71
g2846
sg64
(lp2853
g1236
asbasbasbag57
(g73
g59
NtRp2854
(dp2855
g62
(dp2856
sg71
g2808
sg64
(lp2857
g57
(g78
g59
NtRp2858
(dp2859
g62
(dp2860
g82
g83
ssg71
g2854
sg64
(lp2861
S'HTTP_ACCEPT_LANGUAGE'
p2862
asbag57
(g78
g59
NtRp2863
(dp2864
g62
(dp2865
g89
g90
ssg71
g2854
sg64
(lp2866
S':'
asbag57
(g78
g59
NtRp2867
(dp2868
g62
(dp2869
sg71
g2854
sg64
(lp2870
g57
(g58
g59
NtRp2871
(dp2872
g62
(dp2873
g70
I3
ssg71
g2867
sg64
(lp2874
g1258
asbasbasbag57
(g73
g59
NtRp2875
(dp2876
g62
(dp2877
sg71
g2808
sg64
(lp2878
g57
(g78
g59
NtRp2879
(dp2880
g62
(dp2881
g82
g83
ssg71
g2875
sg64
(lp2882
S'HTTP_CONNECTION'
p2883
asbag57
(g78
g59
NtRp2884
(dp2885
g62
(dp2886
g89
g90
ssg71
g2875
sg64
(lp2887
S':'
asbag57
(g78
g59
NtRp2888
(dp2889
g62
(dp2890
sg71
g2875
sg64
(lp2891
g57
(g58
g59
NtRp2892
(dp2893
g62
(dp2894
g70
I3
ssg71
g2888
sg64
(lp2895
g1280
asbasbasbag57
(g73
g59
NtRp2896
(dp2897
g62
(dp2898
sg71
g2808
sg64
(lp2899
g57
(g78
g59
NtRp2900
(dp2901
g62
(dp2902
g82
g83
ssg71
g2896
sg64
(lp2903
S'HTTP_COOKIE'
p2904
asbag57
(g78
g59
NtRp2905
(dp2906
g62
(dp2907
g89
g90
ssg71
g2896
sg64
(lp2908
S':'
asbag57
(g78
g59
NtRp2909
(dp2910
g62
(dp2911
sg71
g2896
sg64
(lp2912
g57
(g58
g59
NtRp2913
(dp2914
g62
(dp2915
g70
I3
ssg71
g2909
sg64
(lp2916
g1302
asbasbasbag57
(g73
g59
NtRp2917
(dp2918
g62
(dp2919
sg71
g2808
sg64
(lp2920
g57
(g78
g59
NtRp2921
(dp2922
g62
(dp2923
g82
g83
ssg71
g2917
sg64
(lp2924
S'HTTP_HOST'
p2925
asbag57
(g78
g59
NtRp2926
(dp2927
g62
(dp2928
g89
g90
ssg71
g2917
sg64
(lp2929
S':'
asbag57
(g78
g59
NtRp2930
(dp2931
g62
(dp2932
sg71
g2917
sg64
(lp2933
g57
(g58
g59
NtRp2934
(dp2935
g62
(dp2936
g70
I3
ssg71
g2930
sg64
(lp2937
g1324
asbasbasbag57
(g73
g59
NtRp2938
(dp2939
g62
(dp2940
sg71
g2808
sg64
(lp2941
g57
(g78
g59
NtRp2942
(dp2943
g62
(dp2944
g82
g83
ssg71
g2938
sg64
(lp2945
S'HTTP_REFERER'
p2946
asbag57
(g78
g59
NtRp2947
(dp2948
g62
(dp2949
g89
g90
ssg71
g2938
sg64
(lp2950
S':'
asbag57
(g78
g59
NtRp2951
(dp2952
g62
(dp2953
sg71
g2938
sg64
(lp2954
g57
(g58
g59
NtRp2955
(dp2956
g62
(dp2957
g70
I3
ssg71
g2951
sg64
(lp2958
g1346
asbasbasbag57
(g73
g59
NtRp2959
(dp2960
g62
(dp2961
sg71
g2808
sg64
(lp2962
g57
(g78
g59
NtRp2963
(dp2964
g62
(dp2965
g82
g83
ssg71
g2959
sg64
(lp2966
S'HTTP_USER_AGENT'
p2967
asbag57
(g78
g59
NtRp2968
(dp2969
g62
(dp2970
g89
g90
ssg71
g2959
sg64
(lp2971
S':'
asbag57
(g78
g59
NtRp2972
(dp2973
g62
(dp2974
sg71
g2959
sg64
(lp2975
g57
(g58
g59
NtRp2976
(dp2977
g62
(dp2978
g70
I3
ssg71
g2972
sg64
(lp2979
g1368
asbasbasbag57
(g73
g59
NtRp2980
(dp2981
g62
(dp2982
sg71
g2808
sg64
(lp2983
g57
(g78
g59
NtRp2984
(dp2985
g62
(dp2986
g82
g83
ssg71
g2980
sg64
(lp2987
S'PATH_INFO'
p2988
asbag57
(g78
g59
NtRp2989
(dp2990
g62
(dp2991
g89
g90
ssg71
g2980
sg64
(lp2992
S':'
asbag57
(g78
g59
NtRp2993
(dp2994
g62
(dp2995
sg71
g2980
sg64
(lp2996
g57
(g58
g59
NtRp2997
(dp2998
g62
(dp2999
g70
I3
ssg71
g2993
sg64
(lp3000
g1522
asbasbasbag57
(g73
g59
NtRp3001
(dp3002
g62
(dp3003
sg71
g2808
sg64
(lp3004
g57
(g78
g59
NtRp3005
(dp3006
g62
(dp3007
g82
g83
ssg71
g3001
sg64
(lp3008
S'QUERY_STRING'
p3009
asbag57
(g78
g59
NtRp3010
(dp3011
g62
(dp3012
g89
g90
ssg71
g3001
sg64
(lp3013
S':'
asbag57
(g78
g59
NtRp3014
(dp3015
g62
(dp3016
sg71
g3001
sg64
(lp3017
g57
(g58
g59
NtRp3018
(dp3019
g62
(dp3020
g70
I3
ssg71
g3014
sg64
(lp3021
S''
asbasbasbag57
(g73
g59
NtRp3022
(dp3023
g62
(dp3024
sg71
g2808
sg64
(lp3025
g57
(g78
g59
NtRp3026
(dp3027
g62
(dp3028
g82
g83
ssg71
g3022
sg64
(lp3029
S'REMOTE_ADDR'
p3030
asbag57
(g78
g59
NtRp3031
(dp3032
g62
(dp3033
g89
g90
ssg71
g3022
sg64
(lp3034
S':'
asbag57
(g78
g59
NtRp3035
(dp3036
g62
(dp3037
sg71
g3022
sg64
(lp3038
g57
(g58
g59
NtRp3039
(dp3040
g62
(dp3041
g70
I3
ssg71
g3035
sg64
(lp3042
g212
asbasbasbag57
(g73
g59
NtRp3043
(dp3044
g62
(dp3045
sg71
g2808
sg64
(lp3046
g57
(g78
g59
NtRp3047
(dp3048
g62
(dp3049
g82
g83
ssg71
g3043
sg64
(lp3050
S'REMOTE_PORT'
p3051
asbag57
(g78
g59
NtRp3052
(dp3053
g62
(dp3054
g89
g90
ssg71
g3043
sg64
(lp3055
S':'
asbag57
(g78
g59
NtRp3056
(dp3057
g62
(dp3058
sg71
g3043
sg64
(lp3059
g57
(g58
g59
NtRp3060
(dp3061
g62
(dp3062
g70
I3
ssg71
g3056
sg64
(lp3063
g1586
asbasbasbag57
(g73
g59
NtRp3064
(dp3065
g62
(dp3066
sg71
g2808
sg64
(lp3067
g57
(g78
g59
NtRp3068
(dp3069
g62
(dp3070
g82
g83
ssg71
g3064
sg64
(lp3071
S'REQUEST_METHOD'
p3072
asbag57
(g78
g59
NtRp3073
(dp3074
g62
(dp3075
g89
g90
ssg71
g3064
sg64
(lp3076
S':'
asbag57
(g78
g59
NtRp3077
(dp3078
g62
(dp3079
sg71
g3064
sg64
(lp3080
g57
(g58
g59
NtRp3081
(dp3082
g62
(dp3083
g70
I3
ssg71
g3077
sg64
(lp3084
g1608
asbasbasbag57
(g73
g59
NtRp3085
(dp3086
g62
(dp3087
sg71
g2808
sg64
(lp3088
g57
(g78
g59
NtRp3089
(dp3090
g62
(dp3091
g82
g83
ssg71
g3085
sg64
(lp3092
S'REQUEST_URI'
p3093
asbag57
(g78
g59
NtRp3094
(dp3095
g62
(dp3096
g89
g90
ssg71
g3085
sg64
(lp3097
S':'
asbag57
(g78
g59
NtRp3098
(dp3099
g62
(dp3100
sg71
g3085
sg64
(lp3101
g57
(g58
g59
NtRp3102
(dp3103
g62
(dp3104
g70
I3
ssg71
g3098
sg64
(lp3105
g1522
asbasbasbag57
(g73
g59
NtRp3106
(dp3107
g62
(dp3108
sg71
g2808
sg64
(lp3109
g57
(g78
g59
NtRp3110
(dp3111
g62
(dp3112
g82
g83
ssg71
g3106
sg64
(lp3113
S'SCRIPT_NAME'
p3114
asbag57
(g78
g59
NtRp3115
(dp3116
g62
(dp3117
g89
g90
ssg71
g3106
sg64
(lp3118
S':'
asbag57
(g78
g59
NtRp3119
(dp3120
g62
(dp3121
sg71
g3106
sg64
(lp3122
g57
(g58
g59
NtRp3123
(dp3124
g62
(dp3125
g70
I3
ssg71
g3119
sg64
(lp3126
S''
asbasbasbag57
(g73
g59
NtRp3127
(dp3128
g62
(dp3129
sg71
g2808
sg64
(lp3130
g57
(g78
g59
NtRp3131
(dp3132
g62
(dp3133
g82
g83
ssg71
g3127
sg64
(lp3134
S'SERVER_NAME'
p3135
asbag57
(g78
g59
NtRp3136
(dp3137
g62
(dp3138
g89
g90
ssg71
g3127
sg64
(lp3139
S':'
asbag57
(g78
g59
NtRp3140
(dp3141
g62
(dp3142
sg71
g3127
sg64
(lp3143
g57
(g58
g59
NtRp3144
(dp3145
g62
(dp3146
g70
I3
ssg71
g3140
sg64
(lp3147
g1672
asbasbasbag57
(g73
g59
NtRp3148
(dp3149
g62
(dp3150
sg71
g2808
sg64
(lp3151
g57
(g78
g59
NtRp3152
(dp3153
g62
(dp3154
g82
g83
ssg71
g3148
sg64
(lp3155
S'SERVER_PORT'
p3156
asbag57
(g78
g59
NtRp3157
(dp3158
g62
(dp3159
g89
g90
ssg71
g3148
sg64
(lp3160
S':'
asbag57
(g78
g59
NtRp3161
(dp3162
g62
(dp3163
sg71
g3148
sg64
(lp3164
g57
(g58
g59
NtRp3165
(dp3166
g62
(dp3167
g70
I3
ssg71
g3161
sg64
(lp3168
g1694
asbasbasbag57
(g73
g59
NtRp3169
(dp3170
g62
(dp3171
sg71
g2808
sg64
(lp3172
g57
(g78
g59
NtRp3173
(dp3174
g62
(dp3175
g82
g83
ssg71
g3169
sg64
(lp3176
S'SERVER_PROTOCOL'
p3177
asbag57
(g78
g59
NtRp3178
(dp3179
g62
(dp3180
g89
g90
ssg71
g3169
sg64
(lp3181
S':'
asbag57
(g78
g59
NtRp3182
(dp3183
g62
(dp3184
sg71
g3169
sg64
(lp3185
g57
(g58
g59
NtRp3186
(dp3187
g62
(dp3188
g70
I3
ssg71
g3182
sg64
(lp3189
g1716
asbasbasbag57
(g73
g59
NtRp3190
(dp3191
g62
(dp3192
sg71
g2808
sg64
(lp3193
g57
(g78
g59
NtRp3194
(dp3195
g62
(dp3196
g82
g83
ssg71
g3190
sg64
(lp3197
S'SERVER_SOFTWARE'
p3198
asbag57
(g78
g59
NtRp3199
(dp3200
g62
(dp3201
g89
g90
ssg71
g3190
sg64
(lp3202
S':'
asbag57
(g78
g59
NtRp3203
(dp3204
g62
(dp3205
sg71
g3190
sg64
(lp3206
g57
(g58
g59
NtRp3207
(dp3208
g62
(dp3209
g70
I3
ssg71
g3203
sg64
(lp3210
g1738
asbasbasbag57
(g73
g59
NtRp3211
(dp3212
g62
(dp3213
sg71
g2808
sg64
(lp3214
g57
(g78
g59
NtRp3215
(dp3216
g62
(dp3217
g82
g83
ssg71
g3211
sg64
(lp3218
S'wsgi.errors'
p3219
asbag57
(g78
g59
NtRp3220
(dp3221
g62
(dp3222
g89
g90
ssg71
g3211
sg64
(lp3223
S':'
asbag57
(g78
g59
NtRp3224
(dp3225
g62
(dp3226
sg71
g3211
sg64
(lp3227
g57
(g58
g59
NtRp3228
(dp3229
g62
(dp3230
g70
I3
ssg71
g3224
sg64
(lp3231
S"<open file '<stderr>', mode 'w' at 0x7f85cc283270>"
p3232
asbasbasbag57
(g73
g59
NtRp3233
(dp3234
g62
(dp3235
sg71
g2808
sg64
(lp3236
g57
(g78
g59
NtRp3237
(dp3238
g62
(dp3239
g82
g83
ssg71
g3233
sg64
(lp3240
S'wsgi.file_wrapper'
p3241
asbag57
(g78
g59
NtRp3242
(dp3243
g62
(dp3244
g89
g90
ssg71
g3233
sg64
(lp3245
S':'
asbag57
(g78
g59
NtRp3246
(dp3247
g62
(dp3248
sg71
g3233
sg64
(lp3249
g57
(g58
g59
NtRp3250
(dp3251
g62
(dp3252
g70
I3
ssg71
g3246
sg64
(lp3253
S'<class wsgiref.util.FileWrapper at 0x144fc18>'
p3254
asbasbasbag57
(g73
g59
NtRp3255
(dp3256
g62
(dp3257
sg71
g2808
sg64
(lp3258
g57
(g78
g59
NtRp3259
(dp3260
g62
(dp3261
g82
g83
ssg71
g3255
sg64
(lp3262
S'wsgi.input'
p3263
asbag57
(g78
g59
NtRp3264
(dp3265
g62
(dp3266
g89
g90
ssg71
g3255
sg64
(lp3267
S':'
asbag57
(g78
g59
NtRp3268
(dp3269
g62
(dp3270
sg71
g3255
sg64
(lp3271
g57
(g58
g59
NtRp3272
(dp3273
g62
(dp3274
g70
I3
ssg71
g3268
sg64
(lp3275
S'<cStringIO.StringO object at 0x7f858c0f3768>'
p3276
asbasbasbag57
(g73
g59
NtRp3277
(dp3278
g62
(dp3279
sg71
g2808
sg64
(lp3280
g57
(g78
g59
NtRp3281
(dp3282
g62
(dp3283
g82
g83
ssg71
g3277
sg64
(lp3284
S'wsgi.multiprocess'
p3285
asbag57
(g78
g59
NtRp3286
(dp3287
g62
(dp3288
g89
g90
ssg71
g3277
sg64
(lp3289
S':'
asbag57
(g78
g59
NtRp3290
(dp3291
g62
(dp3292
sg71
g3277
sg64
(lp3293
g57
(g58
g59
NtRp3294
(dp3295
g62
(dp3296
g70
I3
ssg71
g3290
sg64
(lp3297
g100
asbasbasbag57
(g73
g59
NtRp3298
(dp3299
g62
(dp3300
sg71
g2808
sg64
(lp3301
g57
(g78
g59
NtRp3302
(dp3303
g62
(dp3304
g82
g83
ssg71
g3298
sg64
(lp3305
S'wsgi.multithread'
p3306
asbag57
(g78
g59
NtRp3307
(dp3308
g62
(dp3309
g89
g90
ssg71
g3298
sg64
(lp3310
S':'
asbag57
(g78
g59
NtRp3311
(dp3312
g62
(dp3313
sg71
g3298
sg64
(lp3314
g57
(g58
g59
NtRp3315
(dp3316
g62
(dp3317
g70
I3
ssg71
g3311
sg64
(lp3318
g1955
asbasbasbag57
(g73
g59
NtRp3319
(dp3320
g62
(dp3321
sg71
g2808
sg64
(lp3322
g57
(g78
g59
NtRp3323
(dp3324
g62
(dp3325
g82
g83
ssg71
g3319
sg64
(lp3326
S'wsgi.run_once'
p3327
asbag57
(g78
g59
NtRp3328
(dp3329
g62
(dp3330
g89
g90
ssg71
g3319
sg64
(lp3331
S':'
asbag57
(g78
g59
NtRp3332
(dp3333
g62
(dp3334
sg71
g3319
sg64
(lp3335
g57
(g58
g59
NtRp3336
(dp3337
g62
(dp3338
g70
I3
ssg71
g3332
sg64
(lp3339
g100
asbasbasbag57
(g73
g59
NtRp3340
(dp3341
g62
(dp3342
sg71
g2808
sg64
(lp3343
g57
(g78
g59
NtRp3344
(dp3345
g62
(dp3346
g82
g83
ssg71
g3340
sg64
(lp3347
S'wsgi.url_scheme'
p3348
asbag57
(g78
g59
NtRp3349
(dp3350
g62
(dp3351
g89
g90
ssg71
g3340
sg64
(lp3352
S':'
asbag57
(g78
g59
NtRp3353
(dp3354
g62
(dp3355
sg71
g3340
sg64
(lp3356
g57
(g58
g59
NtRp3357
(dp3358
g62
(dp3359
g70
I3
ssg71
g3353
sg64
(lp3360
g1998
asbasbasbag57
(g73
g59
NtRp3361
(dp3362
g62
(dp3363
sg71
g2808
sg64
(lp3364
g57
(g78
g59
NtRp3365
(dp3366
g62
(dp3367
g82
g83
ssg71
g3361
sg64
(lp3368
S'wsgi.version'
p3369
asbag57
(g78
g59
NtRp3370
(dp3371
g62
(dp3372
g89
g90
ssg71
g3361
sg64
(lp3373
S':'
asbag57
(g78
g59
NtRp3374
(dp3375
g62
(dp3376
sg71
g3361
sg64
(lp3377
g57
(g58
g59
NtRp3378
(dp3379
g62
(dp3380
g70
I3
ssg71
g3374
sg64
(lp3381
S'1'
asbasbasbasbasbasbasbasbasbasbasbasbasbsS'frames'
p3382
(lp3383
(dp3384
S'file'
p3385
S'/home/simran/web2py/gluon/restricted.py'
p3386
sS'dump'
p3387
(dp3388
S'environment'
p3389
S"{'A': <class 'gluon.html.A'>, 'Auth': <class 'gluon.tools.Auth'>, 'B': <class 'gluon.html.B'>, 'BEAUTIFY': <class 'gluon.html.BEAUTIFY'>, 'BODY': <class 'gluon.html.BODY'>, 'BR': <class 'gluon.html.BR'>, 'BUTTON': <class 'gluon.html.BUTTON'>, 'CAT': <class 'gluon.html.CAT'>, 'CENTER': <class 'gluon.html.CENTER'>, 'CLEANUP': <class 'gluon.validators.CLEANUP'>, ...}"
p3390
sS'ccode'
p3391
S'<code object <module> at 0x7f85b45a0130, file "/...T_calendars/views/default/calendar.html", line 1>'
p3392
ssS'lnum'
p3393
I212
sS'lines'
p3394
(dp3395
I207
S'    try:'
p3396
sI208
S'        if isinstance(code, types.CodeType):'
p3397
sI209
S'            ccode = code'
p3398
sI210
S'        else:'
p3399
sI211
S'            ccode = compile2(code, layer)'
p3400
sI212
S'        exec ccode in environment'
p3401
sI213
S'    except HTTP:'
p3402
sI214
S'        raise'
p3403
sI215
S'    except RestrictedError:'
p3404
sI216
S'        # do not encapsulate (obfuscate) the original RestrictedError'
p3405
ssS'call'
p3406
S'(code=\'response.files.append(URL(r=request,c=\\\'static\\\',f...(\\\'"></script>\\\\n</body>\\\\n</html>\\\\n\\\', escape=False)\', environment={\'A\': <class \'gluon.html.A\'>, \'Auth\': <class \'gluon.tools.Auth\'>, \'B\': <class \'gluon.html.B\'>, \'BEAUTIFY\': <class \'gluon.html.BEAUTIFY\'>, \'BODY\': <class \'gluon.html.BODY\'>, \'BR\': <class \'gluon.html.BR\'>, \'BUTTON\': <class \'gluon.html.BUTTON\'>, \'CAT\': <class \'gluon.html.CAT\'>, \'CENTER\': <class \'gluon.html.CENTER\'>, \'CLEANUP\': <class \'gluon.validators.CLEANUP\'>, ...}, layer=\'/home/simran/web2py/applications/IIIT_calendars/views/default/calendar.html\')'
p3407
sS'func'
p3408
S'restricted'
p3409
sa(dp3410
g3385
S'/home/simran/web2py/applications/IIIT_calendars/views/default/calendar.html'
p3411
sg3387
(dp3412
sg3393
I157
sg3394
(dp3413
I160
S"    response.write('),parseInt(', escape=False)"
p3414
sI161
S'    response.write(pt[0])'
p3415
sI162
S"    response.write('),parseInt(', escape=False)"
p3416
sI163
S'    response.write(pt[1])'
p3417
sI164
S"    response.write('))\\n\\t\\t\\t\\t\\t\\n\\t\\t\\t\\t\\n       ', escape=False)"
p3418
sI165
S'    response.write("},")'
p3419
sI166
S"    response.write('\\n       \\n                                       \\n                                    ', escape=False)"
p3420
sI167
S'    pass'
p3421
sI148
S'        response.write("\',\\n           ", escape=False)'
p3422
sI149
S'    else:'
p3423
sI150
S'        response.write("\\n       title: \' : ", escape=False)'
p3424
sI151
S"        response.write(i['Title'])"
p3425
sI152
S'        response.write("\',\\n           ", escape=False)'
p3426
sI153
S'        pass'
p3427
sI154
S"    response.write('\\n       start: new Date(parseInt(', escape=False)"
p3428
sI155
S'    response.write(p[0])'
p3429
sI156
S"    response.write('),parseInt(', escape=False)"
p3430
sI157
S'    response.write(p[1])'
p3431
sI158
S"    response.write(')-1,parseInt(', escape=False)"
p3432
sI159
S'    response.write(p[2])'
p3433
ssg3406
S'()'
p3434
sg3408
S'<module>'
p3435
sasS'pyver'
p3436
S'Python 2.7.3: /usr/bin/python'
p3437
sS'session'
p3438
g57
(g58
g59
NtRp3439
(dp3440
g62
(dp3441
sg64
(lp3442
g57
(g66
g59
NtRp3443
(dp3444
g62
(dp3445
g70
I5
ssg71
Nsg64
(lp3446
g57
(g73
g59
NtRp3447
(dp3448
g62
(dp3449
sg71
g3443
sg64
(lp3450
g57
(g78
g59
NtRp3451
(dp3452
g62
(dp3453
g82
g83
ssg71
g3447
sg64
(lp3454
S'auth'
p3455
asbag57
(g78
g59
NtRp3456
(dp3457
g62
(dp3458
g89
g90
ssg71
g3447
sg64
(lp3459
S':'
asbag57
(g78
g59
NtRp3460
(dp3461
g62
(dp3462
sg71
g3447
sg64
(lp3463
g57
(g58
g59
NtRp3464
(dp3465
g62
(dp3466
g70
I5
ssg71
g3460
sg64
(lp3467
g57
(g66
g59
NtRp3468
(dp3469
g62
(dp3470
g70
I4
ssg71
Nsg64
(lp3471
g57
(g73
g59
NtRp3472
(dp3473
g62
(dp3474
sg71
g3468
sg64
(lp3475
g57
(g78
g59
NtRp3476
(dp3477
g62
(dp3478
g82
g83
ssg71
g3472
sg64
(lp3479
S'expiration'
p3480
asbag57
(g78
g59
NtRp3481
(dp3482
g62
(dp3483
g89
g90
ssg71
g3472
sg64
(lp3484
S':'
asbag57
(g78
g59
NtRp3485
(dp3486
g62
(dp3487
sg71
g3472
sg64
(lp3488
g57
(g58
g59
NtRp3489
(dp3490
g62
(dp3491
g70
I4
ssg71
g3485
sg64
(lp3492
S'3600'
p3493
asbasbasbag57
(g73
g59
NtRp3494
(dp3495
g62
(dp3496
sg71
g3468
sg64
(lp3497
g57
(g78
g59
NtRp3498
(dp3499
g62
(dp3500
g82
g83
ssg71
g3494
sg64
(lp3501
S'hmac_key'
p3502
asbag57
(g78
g59
NtRp3503
(dp3504
g62
(dp3505
g89
g90
ssg71
g3494
sg64
(lp3506
S':'
asbag57
(g78
g59
NtRp3507
(dp3508
g62
(dp3509
sg71
g3494
sg64
(lp3510
g57
(g58
g59
NtRp3511
(dp3512
g62
(dp3513
g70
I4
ssg71
g3507
sg64
(lp3514
S'1c92bfd3-5ff2-460e-bc07-e19c1d3758c4'
p3515
asbasbasbag57
(g73
g59
NtRp3516
(dp3517
g62
(dp3518
sg71
g3468
sg64
(lp3519
g57
(g78
g59
NtRp3520
(dp3521
g62
(dp3522
g82
g83
ssg71
g3516
sg64
(lp3523
S'last_visit'
p3524
asbag57
(g78
g59
NtRp3525
(dp3526
g62
(dp3527
g89
g90
ssg71
g3516
sg64
(lp3528
S':'
asbag57
(g78
g59
NtRp3529
(dp3530
g62
(dp3531
sg71
g3516
sg64
(lp3532
g57
(g58
g59
NtRp3533
(dp3534
g62
(dp3535
g70
I4
ssg71
g3529
sg64
(lp3536
S'datetime.datetime(2013, 4, 17, 0, 8, 55, 536011)'
p3537
asbasbasbag57
(g73
g59
NtRp3538
(dp3539
g62
(dp3540
sg71
g3468
sg64
(lp3541
g57
(g78
g59
NtRp3542
(dp3543
g62
(dp3544
g82
g83
ssg71
g3538
sg64
(lp3545
S'remember'
p3546
asbag57
(g78
g59
NtRp3547
(dp3548
g62
(dp3549
g89
g90
ssg71
g3538
sg64
(lp3550
S':'
asbag57
(g78
g59
NtRp3551
(dp3552
g62
(dp3553
sg71
g3538
sg64
(lp3554
g57
(g58
g59
NtRp3555
(dp3556
g62
(dp3557
g70
I4
ssg71
g3551
sg64
(lp3558
g100
asbasbasbag57
(g73
g59
NtRp3559
(dp3560
g62
(dp3561
sg71
g3468
sg64
(lp3562
g57
(g78
g59
NtRp3563
(dp3564
g62
(dp3565
g82
g83
ssg71
g3559
sg64
(lp3566
S'user'
p3567
asbag57
(g78
g59
NtRp3568
(dp3569
g62
(dp3570
g89
g90
ssg71
g3559
sg64
(lp3571
S':'
asbag57
(g78
g59
NtRp3572
(dp3573
g62
(dp3574
sg71
g3559
sg64
(lp3575
g57
(g58
g59
NtRp3576
(dp3577
g62
(dp3578
g70
I4
ssg71
g3572
sg64
(lp3579
g57
(g66
g59
NtRp3580
(dp3581
g62
(dp3582
g70
I3
ssg71
Nsg64
(lp3583
g57
(g73
g59
NtRp3584
(dp3585
g62
(dp3586
sg71
g3580
sg64
(lp3587
g57
(g78
g59
NtRp3588
(dp3589
g62
(dp3590
g82
g83
ssg71
g3584
sg64
(lp3591
S'email'
p3592
asbag57
(g78
g59
NtRp3593
(dp3594
g62
(dp3595
g89
g90
ssg71
g3584
sg64
(lp3596
S':'
asbag57
(g78
g59
NtRp3597
(dp3598
g62
(dp3599
sg71
g3584
sg64
(lp3600
g57
(g58
g59
NtRp3601
(dp3602
g62
(dp3603
g70
I3
ssg71
g3597
sg64
(lp3604
S'simikedia93@gmail.com'
p3605
asbasbasbag57
(g73
g59
NtRp3606
(dp3607
g62
(dp3608
sg71
g3580
sg64
(lp3609
g57
(g78
g59
NtRp3610
(dp3611
g62
(dp3612
g82
g83
ssg71
g3606
sg64
(lp3613
S'first_name'
p3614
asbag57
(g78
g59
NtRp3615
(dp3616
g62
(dp3617
g89
g90
ssg71
g3606
sg64
(lp3618
S':'
asbag57
(g78
g59
NtRp3619
(dp3620
g62
(dp3621
sg71
g3606
sg64
(lp3622
g57
(g58
g59
NtRp3623
(dp3624
g62
(dp3625
g70
I3
ssg71
g3619
sg64
(lp3626
S'Simran'
p3627
asbasbasbag57
(g73
g59
NtRp3628
(dp3629
g62
(dp3630
sg71
g3580
sg64
(lp3631
g57
(g78
g59
NtRp3632
(dp3633
g62
(dp3634
g82
g83
ssg71
g3628
sg64
(lp3635
S'id'
p3636
asbag57
(g78
g59
NtRp3637
(dp3638
g62
(dp3639
g89
g90
ssg71
g3628
sg64
(lp3640
S':'
asbag57
(g78
g59
NtRp3641
(dp3642
g62
(dp3643
sg71
g3628
sg64
(lp3644
g57
(g58
g59
NtRp3645
(dp3646
g62
(dp3647
g70
I3
ssg71
g3641
sg64
(lp3648
S'17'
p3649
asbasbasbag57
(g73
g59
NtRp3650
(dp3651
g62
(dp3652
sg71
g3580
sg64
(lp3653
g57
(g78
g59
NtRp3654
(dp3655
g62
(dp3656
g82
g83
ssg71
g3650
sg64
(lp3657
S'last_name'
p3658
asbag57
(g78
g59
NtRp3659
(dp3660
g62
(dp3661
g89
g90
ssg71
g3650
sg64
(lp3662
S':'
asbag57
(g78
g59
NtRp3663
(dp3664
g62
(dp3665
sg71
g3650
sg64
(lp3666
g57
(g58
g59
NtRp3667
(dp3668
g62
(dp3669
g70
I3
ssg71
g3663
sg64
(lp3670
S'Kedia'
p3671
asbasbasbag57
(g73
g59
NtRp3672
(dp3673
g62
(dp3674
sg71
g3580
sg64
(lp3675
g57
(g78
g59
NtRp3676
(dp3677
g62
(dp3678
g82
g83
ssg71
g3672
sg64
(lp3679
S'registration_id'
p3680
asbag57
(g78
g59
NtRp3681
(dp3682
g62
(dp3683
g89
g90
ssg71
g3672
sg64
(lp3684
S':'
asbag57
(g78
g59
NtRp3685
(dp3686
g62
(dp3687
sg71
g3672
sg64
(lp3688
g57
(g58
g59
NtRp3689
(dp3690
g62
(dp3691
g70
I3
ssg71
g3685
sg64
(lp3692
S''
asbasbasbag57
(g73
g59
NtRp3693
(dp3694
g62
(dp3695
sg71
g3580
sg64
(lp3696
g57
(g78
g59
NtRp3697
(dp3698
g62
(dp3699
g82
g83
ssg71
g3693
sg64
(lp3700
S'registration_key'
p3701
asbag57
(g78
g59
NtRp3702
(dp3703
g62
(dp3704
g89
g90
ssg71
g3693
sg64
(lp3705
S':'
asbag57
(g78
g59
NtRp3706
(dp3707
g62
(dp3708
sg71
g3693
sg64
(lp3709
g57
(g58
g59
NtRp3710
(dp3711
g62
(dp3712
g70
I3
ssg71
g3706
sg64
(lp3713
S''
asbasbasbag57
(g73
g59
NtRp3714
(dp3715
g62
(dp3716
sg71
g3580
sg64
(lp3717
g57
(g78
g59
NtRp3718
(dp3719
g62
(dp3720
g82
g83
ssg71
g3714
sg64
(lp3721
S'reset_password_key'
p3722
asbag57
(g78
g59
NtRp3723
(dp3724
g62
(dp3725
g89
g90
ssg71
g3714
sg64
(lp3726
S':'
asbag57
(g78
g59
NtRp3727
(dp3728
g62
(dp3729
sg71
g3714
sg64
(lp3730
g57
(g58
g59
NtRp3731
(dp3732
g62
(dp3733
g70
I3
ssg71
g3727
sg64
(lp3734
S''
asbasbasbasbasbasbasbag57
(g73
g59
NtRp3735
(dp3736
g62
(dp3737
sg71
g3468
sg64
(lp3738
g57
(g78
g59
NtRp3739
(dp3740
g62
(dp3741
g82
g83
ssg71
g3735
sg64
(lp3742
S'user_groups'
p3743
asbag57
(g78
g59
NtRp3744
(dp3745
g62
(dp3746
g89
g90
ssg71
g3735
sg64
(lp3747
S':'
asbag57
(g78
g59
NtRp3748
(dp3749
g62
(dp3750
sg71
g3735
sg64
(lp3751
g57
(g58
g59
NtRp3752
(dp3753
g62
(dp3754
g70
I4
ssg71
g3748
sg64
(lp3755
g57
(g66
g59
NtRp3756
(dp3757
g62
(dp3758
g70
I3
ssg71
Nsg64
(lp3759
g57
(g73
g59
NtRp3760
(dp3761
g62
(dp3762
sg71
g3756
sg64
(lp3763
g57
(g78
g59
NtRp3764
(dp3765
g62
(dp3766
g82
g83
ssg71
g3760
sg64
(lp3767
S'17'
p3768
asbag57
(g78
g59
NtRp3769
(dp3770
g62
(dp3771
g89
g90
ssg71
g3760
sg64
(lp3772
S':'
asbag57
(g78
g59
NtRp3773
(dp3774
g62
(dp3775
sg71
g3760
sg64
(lp3776
g57
(g58
g59
NtRp3777
(dp3778
g62
(dp3779
g70
I3
ssg71
g3773
sg64
(lp3780
S'user_17'
p3781
asbasbasbasbasbasbasbasbasbasbasbag57
(g73
g59
NtRp3782
(dp3783
g62
(dp3784
sg71
g3443
sg64
(lp3785
g57
(g78
g59
NtRp3786
(dp3787
g62
(dp3788
g82
g83
ssg71
g3782
sg64
(lp3789
S'flash'
p3790
asbag57
(g78
g59
NtRp3791
(dp3792
g62
(dp3793
g89
g90
ssg71
g3782
sg64
(lp3794
S':'
asbag57
(g78
g59
NtRp3795
(dp3796
g62
(dp3797
sg71
g3782
sg64
(lp3798
g57
(g58
g59
NtRp3799
(dp3800
g62
(dp3801
g70
I5
ssg71
g3795
sg64
(lp3802
S'None'
p3803
asbasbasbag57
(g73
g59
NtRp3804
(dp3805
g62
(dp3806
sg71
g3443
sg64
(lp3807
g57
(g78
g59
NtRp3808
(dp3809
g62
(dp3810
g82
g83
ssg71
g3804
sg64
(lp3811
S'last_orderby'
p3812
asbag57
(g78
g59
NtRp3813
(dp3814
g62
(dp3815
g89
g90
ssg71
g3804
sg64
(lp3816
S':'
asbag57
(g78
g59
NtRp3817
(dp3818
g62
(dp3819
sg71
g3804
sg64
(lp3820
g57
(g58
g59
NtRp3821
(dp3822
g62
(dp3823
g70
I5
ssg71
g3817
sg64
(lp3824
S'None'
p3825
asbasbasbag57
(g73
g59
NtRp3826
(dp3827
g62
(dp3828
sg71
g3443
sg64
(lp3829
g57
(g78
g59
NtRp3830
(dp3831
g62
(dp3832
g82
g83
ssg71
g3826
sg64
(lp3833
S'last_query'
p3834
asbag57
(g78
g59
NtRp3835
(dp3836
g62
(dp3837
g89
g90
ssg71
g3826
sg64
(lp3838
S':'
asbag57
(g78
g59
NtRp3839
(dp3840
g62
(dp3841
sg71
g3826
sg64
(lp3842
g57
(g58
g59
NtRp3843
(dp3844
g62
(dp3845
g70
I5
ssg71
g3839
sg64
(lp3846
S'db.admin_events.id>0'
p3847
asbasbasbasbasbsS'etype'
p3848
S"<type 'exceptions.IndexError'>"
p3849
sS'date'
p3850
S'Wed Apr 17 00:09:14 2013'
p3851
sS'response'
p3852
g57
(g58
g59
NtRp3853
(dp3854
g62
(dp3855
sg64
(lp3856
g57
(g66
g59
NtRp3857
(dp3858
g62
(dp3859
g70
I5
ssg71
Nsg64
(lp3860
g57
(g73
g59
NtRp3861
(dp3862
g62
(dp3863
sg71
g3857
sg64
(lp3864
g57
(g78
g59
NtRp3865
(dp3866
g62
(dp3867
g82
g83
ssg71
g3861
sg64
(lp3868
g155
asbag57
(g78
g59
NtRp3869
(dp3870
g62
(dp3871
g89
g90
ssg71
g3861
sg64
(lp3872
S':'
asbag57
(g78
g59
NtRp3873
(dp3874
g62
(dp3875
sg71
g3861
sg64
(lp3876
g57
(g58
g59
NtRp3877
(dp3878
g62
(dp3879
g70
I5
ssg71
g3873
sg64
(lp3880
S'<cStringIO.StringO object at 0x7f858c0f3420>'
p3881
asbasbasbag57
(g73
g59
NtRp3882
(dp3883
g62
(dp3884
sg71
g3857
sg64
(lp3885
g57
(g78
g59
NtRp3886
(dp3887
g62
(dp3888
g82
g83
ssg71
g3882
sg64
(lp3889
g243
asbag57
(g78
g59
NtRp3890
(dp3891
g62
(dp3892
g89
g90
ssg71
g3882
sg64
(lp3893
S':'
asbag57
(g78
g59
NtRp3894
(dp3895
g62
(dp3896
sg71
g3882
sg64
(lp3897
g57
(g58
g59
NtRp3898
(dp3899
g62
(dp3900
g70
I5
ssg71
g3894
sg64
(lp3901
g57
(g66
g59
NtRp3902
(dp3903
g62
(dp3904
g70
I4
ssg71
Nsg64
(lp3905
g57
(g73
g59
NtRp3906
(dp3907
g62
(dp3908
sg71
g3902
sg64
(lp3909
g57
(g78
g59
NtRp3910
(dp3911
g62
(dp3912
g82
g83
ssg71
g3906
sg64
(lp3913
S'session_id_iiit_calendars'
p3914
asbag57
(g78
g59
NtRp3915
(dp3916
g62
(dp3917
g89
g90
ssg71
g3906
sg64
(lp3918
S':'
asbag57
(g78
g59
NtRp3919
(dp3920
g62
(dp3921
sg71
g3906
sg64
(lp3922
g57
(g58
g59
NtRp3923
(dp3924
g62
(dp3925
g70
I4
ssg71
g3919
sg64
(lp3926
g661
ag57
(g66
g59
NtRp3927
(dp3928
g62
(dp3929
g70
I3
ssg71
Nsg64
(lp3930
g57
(g73
g59
NtRp3931
(dp3932
g62
(dp3933
sg71
g3927
sg64
(lp3934
g57
(g78
g59
NtRp3935
(dp3936
g62
(dp3937
g82
g83
ssg71
g3931
sg64
(lp3938
g294
asbag57
(g78
g59
NtRp3939
(dp3940
g62
(dp3941
g89
g90
ssg71
g3931
sg64
(lp3942
S':'
asbag57
(g78
g59
NtRp3943
(dp3944
g62
(dp3945
sg71
g3931
sg64
(lp3946
g57
(g58
g59
NtRp3947
(dp3948
g62
(dp3949
g70
I3
ssg71
g3943
sg64
(lp3950
S''
asbasbasbag57
(g73
g59
NtRp3951
(dp3952
g62
(dp3953
sg71
g3927
sg64
(lp3954
g57
(g78
g59
NtRp3955
(dp3956
g62
(dp3957
g82
g83
ssg71
g3951
sg64
(lp3958
g315
asbag57
(g78
g59
NtRp3959
(dp3960
g62
(dp3961
g89
g90
ssg71
g3951
sg64
(lp3962
S':'
asbag57
(g78
g59
NtRp3963
(dp3964
g62
(dp3965
sg71
g3951
sg64
(lp3966
g57
(g58
g59
NtRp3967
(dp3968
g62
(dp3969
g70
I3
ssg71
g3963
sg64
(lp3970
S''
asbasbasbag57
(g73
g59
NtRp3971
(dp3972
g62
(dp3973
sg71
g3927
sg64
(lp3974
g57
(g78
g59
NtRp3975
(dp3976
g62
(dp3977
g82
g83
ssg71
g3971
sg64
(lp3978
g336
asbag57
(g78
g59
NtRp3979
(dp3980
g62
(dp3981
g89
g90
ssg71
g3971
sg64
(lp3982
S':'
asbag57
(g78
g59
NtRp3983
(dp3984
g62
(dp3985
sg71
g3971
sg64
(lp3986
g57
(g58
g59
NtRp3987
(dp3988
g62
(dp3989
g70
I3
ssg71
g3983
sg64
(lp3990
S''
asbasbasbag57
(g73
g59
NtRp3991
(dp3992
g62
(dp3993
sg71
g3927
sg64
(lp3994
g57
(g78
g59
NtRp3995
(dp3996
g62
(dp3997
g82
g83
ssg71
g3991
sg64
(lp3998
g357
asbag57
(g78
g59
NtRp3999
(dp4000
g62
(dp4001
g89
g90
ssg71
g3991
sg64
(lp4002
S':'
asbag57
(g78
g59
NtRp4003
(dp4004
g62
(dp4005
sg71
g3991
sg64
(lp4006
g57
(g58
g59
NtRp4007
(dp4008
g62
(dp4009
g70
I3
ssg71
g4003
sg64
(lp4010
S''
asbasbasbag57
(g73
g59
NtRp4011
(dp4012
g62
(dp4013
sg71
g3927
sg64
(lp4014
g57
(g78
g59
NtRp4015
(dp4016
g62
(dp4017
g82
g83
ssg71
g4011
sg64
(lp4018
g378
asbag57
(g78
g59
NtRp4019
(dp4020
g62
(dp4021
g89
g90
ssg71
g4011
sg64
(lp4022
S':'
asbag57
(g78
g59
NtRp4023
(dp4024
g62
(dp4025
sg71
g4011
sg64
(lp4026
g57
(g58
g59
NtRp4027
(dp4028
g62
(dp4029
g70
I3
ssg71
g4023
sg64
(lp4030
S''
asbasbasbag57
(g73
g59
NtRp4031
(dp4032
g62
(dp4033
sg71
g3927
sg64
(lp4034
g57
(g78
g59
NtRp4035
(dp4036
g62
(dp4037
g82
g83
ssg71
g4031
sg64
(lp4038
g399
asbag57
(g78
g59
NtRp4039
(dp4040
g62
(dp4041
g89
g90
ssg71
g4031
sg64
(lp4042
S':'
asbag57
(g78
g59
NtRp4043
(dp4044
g62
(dp4045
sg71
g4031
sg64
(lp4046
g57
(g58
g59
NtRp4047
(dp4048
g62
(dp4049
g70
I3
ssg71
g4043
sg64
(lp4050
S'/'
asbasbasbag57
(g73
g59
NtRp4051
(dp4052
g62
(dp4053
sg71
g3927
sg64
(lp4054
g57
(g78
g59
NtRp4055
(dp4056
g62
(dp4057
g82
g83
ssg71
g4051
sg64
(lp4058
g420
asbag57
(g78
g59
NtRp4059
(dp4060
g62
(dp4061
g89
g90
ssg71
g4051
sg64
(lp4062
S':'
asbag57
(g78
g59
NtRp4063
(dp4064
g62
(dp4065
sg71
g4051
sg64
(lp4066
g57
(g58
g59
NtRp4067
(dp4068
g62
(dp4069
g70
I3
ssg71
g4063
sg64
(lp4070
S''
asbasbasbag57
(g73
g59
NtRp4071
(dp4072
g62
(dp4073
sg71
g3927
sg64
(lp4074
g57
(g78
g59
NtRp4075
(dp4076
g62
(dp4077
g82
g83
ssg71
g4071
sg64
(lp4078
g441
asbag57
(g78
g59
NtRp4079
(dp4080
g62
(dp4081
g89
g90
ssg71
g4071
sg64
(lp4082
S':'
asbag57
(g78
g59
NtRp4083
(dp4084
g62
(dp4085
sg71
g4071
sg64
(lp4086
g57
(g58
g59
NtRp4087
(dp4088
g62
(dp4089
g70
I3
ssg71
g4083
sg64
(lp4090
S''
asbasbasbasbasbasbasbasbasbasbasbag57
(g73
g59
NtRp4091
(dp4092
g62
(dp4093
sg71
g3857
sg64
(lp4094
g57
(g78
g59
NtRp4095
(dp4096
g62
(dp4097
g82
g83
ssg71
g4091
sg64
(lp4098
S'delimiters'
p4099
asbag57
(g78
g59
NtRp4100
(dp4101
g62
(dp4102
g89
g90
ssg71
g4091
sg64
(lp4103
S':'
asbag57
(g78
g59
NtRp4104
(dp4105
g62
(dp4106
sg71
g4091
sg64
(lp4107
g57
(g58
g59
NtRp4108
(dp4109
g62
(dp4110
g70
I5
ssg71
g4104
sg64
(lp4111
g57
(g66
g59
NtRp4112
(dp4113
g62
(dp4114
g70
I4
ssg71
Nsg64
(lp4115
g57
(g73
g59
NtRp4116
(dp4117
g62
(dp4118
sg71
g4112
sg64
(lp4119
g57
(g78
g59
NtRp4120
(dp4121
g62
(dp4122
sg71
g4116
sg64
(lp4123
g57
(g58
g59
NtRp4124
(dp4125
g62
(dp4126
g70
I4
ssg71
g4120
sg64
(lp4127
S'{{'
p4128
asbasbasbag57
(g73
g59
NtRp4129
(dp4130
g62
(dp4131
sg71
g4112
sg64
(lp4132
g57
(g78
g59
NtRp4133
(dp4134
g62
(dp4135
sg71
g4129
sg64
(lp4136
g57
(g58
g59
NtRp4137
(dp4138
g62
(dp4139
g70
I4
ssg71
g4133
sg64
(lp4140
S'}}'
p4141
asbasbasbasbasbasbasbag57
(g73
g59
NtRp4142
(dp4143
g62
(dp4144
sg71
g3857
sg64
(lp4145
g57
(g78
g59
NtRp4146
(dp4147
g62
(dp4148
g82
g83
ssg71
g4142
sg64
(lp4149
S'files'
p4150
asbag57
(g78
g59
NtRp4151
(dp4152
g62
(dp4153
g89
g90
ssg71
g4142
sg64
(lp4154
S':'
asbag57
(g78
g59
NtRp4155
(dp4156
g62
(dp4157
sg71
g4142
sg64
(lp4158
g57
(g58
g59
NtRp4159
(dp4160
g62
(dp4161
g70
I5
ssg71
g4155
sg64
(lp4162
g57
(g66
g59
NtRp4163
(dp4164
g62
(dp4165
g70
I4
ssg71
Nsg64
(lp4166
g57
(g73
g59
NtRp4167
(dp4168
g62
(dp4169
sg71
g4163
sg64
(lp4170
g57
(g78
g59
NtRp4171
(dp4172
g62
(dp4173
sg71
g4167
sg64
(lp4174
g57
(g58
g59
NtRp4175
(dp4176
g62
(dp4177
g70
I4
ssg71
g4171
sg64
(lp4178
S'/IIIT_calendars/static/js/jquery.js'
p4179
asbasbasbag57
(g73
g59
NtRp4180
(dp4181
g62
(dp4182
sg71
g4163
sg64
(lp4183
g57
(g78
g59
NtRp4184
(dp4185
g62
(dp4186
sg71
g4180
sg64
(lp4187
g57
(g58
g59
NtRp4188
(dp4189
g62
(dp4190
g70
I4
ssg71
g4184
sg64
(lp4191
S'/IIIT_calendars/static/css/calendar.css'
p4192
asbasbasbag57
(g73
g59
NtRp4193
(dp4194
g62
(dp4195
sg71
g4163
sg64
(lp4196
g57
(g78
g59
NtRp4197
(dp4198
g62
(dp4199
sg71
g4193
sg64
(lp4200
g57
(g58
g59
NtRp4201
(dp4202
g62
(dp4203
g70
I4
ssg71
g4197
sg64
(lp4204
S'/IIIT_calendars/static/js/calendar.js'
p4205
asbasbasbag57
(g73
g59
NtRp4206
(dp4207
g62
(dp4208
sg71
g4163
sg64
(lp4209
g57
(g78
g59
NtRp4210
(dp4211
g62
(dp4212
sg71
g4206
sg64
(lp4213
g57
(g58
g59
NtRp4214
(dp4215
g62
(dp4216
g70
I4
ssg71
g4210
sg64
(lp4217
S'/IIIT_calendars/static/js/web2py.js'
p4218
asbasbasbag57
(g73
g59
NtRp4219
(dp4220
g62
(dp4221
sg71
g4163
sg64
(lp4222
g57
(g78
g59
NtRp4223
(dp4224
g62
(dp4225
sg71
g4219
sg64
(lp4226
g57
(g58
g59
NtRp4227
(dp4228
g62
(dp4229
g70
I4
ssg71
g4223
sg64
(lp4230
S'/IIIT_calendars/static/js/ui.core.js'
p4231
asbasbasbag57
(g73
g59
NtRp4232
(dp4233
g62
(dp4234
sg71
g4163
sg64
(lp4235
g57
(g78
g59
NtRp4236
(dp4237
g62
(dp4238
sg71
g4232
sg64
(lp4239
g57
(g58
g59
NtRp4240
(dp4241
g62
(dp4242
g70
I4
ssg71
g4236
sg64
(lp4243
S'/IIIT_calendars/static/js/ui.draggable.js'
p4244
asbasbasbag57
(g73
g59
NtRp4245
(dp4246
g62
(dp4247
sg71
g4163
sg64
(lp4248
g57
(g78
g59
NtRp4249
(dp4250
g62
(dp4251
sg71
g4245
sg64
(lp4252
g57
(g58
g59
NtRp4253
(dp4254
g62
(dp4255
g70
I4
ssg71
g4249
sg64
(lp4256
S'/IIIT_calendars/static/js/ui.resizable.js'
p4257
asbasbasbag57
(g73
g59
NtRp4258
(dp4259
g62
(dp4260
sg71
g4163
sg64
(lp4261
g57
(g78
g59
NtRp4262
(dp4263
g62
(dp4264
sg71
g4258
sg64
(lp4265
g57
(g58
g59
NtRp4266
(dp4267
g62
(dp4268
g70
I4
ssg71
g4262
sg64
(lp4269
S'/IIIT_calendars/static/js/fullcalendar.min.js'
p4270
asbasbasbag57
(g73
g59
NtRp4271
(dp4272
g62
(dp4273
sg71
g4163
sg64
(lp4274
g57
(g78
g59
NtRp4275
(dp4276
g62
(dp4277
sg71
g4271
sg64
(lp4278
g57
(g58
g59
NtRp4279
(dp4280
g62
(dp4281
g70
I4
ssg71
g4275
sg64
(lp4282
S'/IIIT_calendars/static/css/fullcalendar.css'
p4283
asbasbasbag57
(g73
g59
NtRp4284
(dp4285
g62
(dp4286
sg71
g4163
sg64
(lp4287
g57
(g78
g59
NtRp4288
(dp4289
g62
(dp4290
sg71
g4284
sg64
(lp4291
g57
(g58
g59
NtRp4292
(dp4293
g62
(dp4294
g70
I4
ssg71
g4288
sg64
(lp4295
S'/IIIT_calendars/static/css/web2py.css'
p4296
asbasbasbag57
(g73
g59
NtRp4297
(dp4298
g62
(dp4299
sg71
g4163
sg64
(lp4300
g57
(g78
g59
NtRp4301
(dp4302
g62
(dp4303
sg71
g4297
sg64
(lp4304
g57
(g58
g59
NtRp4305
(dp4306
g62
(dp4307
g70
I4
ssg71
g4301
sg64
(lp4308
S'/IIIT_calendars/static/css/bootstrap.min.css'
p4309
asbasbasbag57
(g73
g59
NtRp4310
(dp4311
g62
(dp4312
sg71
g4163
sg64
(lp4313
g57
(g78
g59
NtRp4314
(dp4315
g62
(dp4316
sg71
g4310
sg64
(lp4317
g57
(g58
g59
NtRp4318
(dp4319
g62
(dp4320
g70
I4
ssg71
g4314
sg64
(lp4321
S'/IIIT_calendars/static/css/bootstrap-responsive.min.css'
p4322
asbasbasbag57
(g73
g59
NtRp4323
(dp4324
g62
(dp4325
sg71
g4163
sg64
(lp4326
g57
(g78
g59
NtRp4327
(dp4328
g62
(dp4329
sg71
g4323
sg64
(lp4330
g57
(g58
g59
NtRp4331
(dp4332
g62
(dp4333
g70
I4
ssg71
g4327
sg64
(lp4334
S'/IIIT_calendars/static/css/web2py_bootstrap.css'
p4335
asbasbasbasbasbasbasbag57
(g73
g59
NtRp4336
(dp4337
g62
(dp4338
sg71
g3857
sg64
(lp4339
g57
(g78
g59
NtRp4340
(dp4341
g62
(dp4342
g82
g83
ssg71
g4336
sg64
(lp4343
S'flash'
p4344
asbag57
(g78
g59
NtRp4345
(dp4346
g62
(dp4347
g89
g90
ssg71
g4336
sg64
(lp4348
S':'
asbag57
(g78
g59
NtRp4349
(dp4350
g62
(dp4351
sg71
g4336
sg64
(lp4352
g57
(g58
g59
NtRp4353
(dp4354
g62
(dp4355
g70
I5
ssg71
g4349
sg64
(lp4356
S''
asbasbasbag57
(g73
g59
NtRp4357
(dp4358
g62
(dp4359
sg71
g3857
sg64
(lp4360
g57
(g78
g59
NtRp4361
(dp4362
g62
(dp4363
g82
g83
ssg71
g4357
sg64
(lp4364
S'generic_patterns'
p4365
asbag57
(g78
g59
NtRp4366
(dp4367
g62
(dp4368
g89
g90
ssg71
g4357
sg64
(lp4369
S':'
asbag57
(g78
g59
NtRp4370
(dp4371
g62
(dp4372
sg71
g4357
sg64
(lp4373
g57
(g58
g59
NtRp4374
(dp4375
g62
(dp4376
g70
I5
ssg71
g4370
sg64
(lp4377
g57
(g66
g59
NtRp4378
(dp4379
g62
(dp4380
g70
I4
ssg71
Nsg64
(lp4381
g57
(g73
g59
NtRp4382
(dp4383
g62
(dp4384
sg71
g4378
sg64
(lp4385
g57
(g78
g59
NtRp4386
(dp4387
g62
(dp4388
sg71
g4382
sg64
(lp4389
g57
(g58
g59
NtRp4390
(dp4391
g62
(dp4392
g70
I4
ssg71
g4386
sg64
(lp4393
S'*'
asbasbasbasbasbasbasbag57
(g73
g59
NtRp4394
(dp4395
g62
(dp4396
sg71
g3857
sg64
(lp4397
g57
(g78
g59
NtRp4398
(dp4399
g62
(dp4400
g82
g83
ssg71
g4394
sg64
(lp4401
S'google_analytics_id'
p4402
asbag57
(g78
g59
NtRp4403
(dp4404
g62
(dp4405
g89
g90
ssg71
g4394
sg64
(lp4406
S':'
asbag57
(g78
g59
NtRp4407
(dp4408
g62
(dp4409
sg71
g4394
sg64
(lp4410
g57
(g58
g59
NtRp4411
(dp4412
g62
(dp4413
g70
I5
ssg71
g4407
sg64
(lp4414
S'None'
p4415
asbasbasbag57
(g73
g59
NtRp4416
(dp4417
g62
(dp4418
sg71
g3857
sg64
(lp4419
g57
(g78
g59
NtRp4420
(dp4421
g62
(dp4422
g82
g83
ssg71
g4416
sg64
(lp4423
S'headers'
p4424
asbag57
(g78
g59
NtRp4425
(dp4426
g62
(dp4427
g89
g90
ssg71
g4416
sg64
(lp4428
S':'
asbag57
(g78
g59
NtRp4429
(dp4430
g62
(dp4431
sg71
g4416
sg64
(lp4432
g57
(g58
g59
NtRp4433
(dp4434
g62
(dp4435
g70
I5
ssg71
g4429
sg64
(lp4436
g57
(g66
g59
NtRp4437
(dp4438
g62
(dp4439
g70
I4
ssg71
Nsg64
(lp4440
g57
(g73
g59
NtRp4441
(dp4442
g62
(dp4443
sg71
g4437
sg64
(lp4444
g57
(g78
g59
NtRp4445
(dp4446
g62
(dp4447
g82
g83
ssg71
g4441
sg64
(lp4448
S'X-Powered-By'
p4449
asbag57
(g78
g59
NtRp4450
(dp4451
g62
(dp4452
g89
g90
ssg71
g4441
sg64
(lp4453
S':'
asbag57
(g78
g59
NtRp4454
(dp4455
g62
(dp4456
sg71
g4441
sg64
(lp4457
g57
(g58
g59
NtRp4458
(dp4459
g62
(dp4460
g70
I4
ssg71
g4454
sg64
(lp4461
S'web2py'
p4462
asbasbasbasbasbasbasbag57
(g73
g59
NtRp4463
(dp4464
g62
(dp4465
sg71
g3857
sg64
(lp4466
g57
(g78
g59
NtRp4467
(dp4468
g62
(dp4469
g82
g83
ssg71
g4463
sg64
(lp4470
S'logo'
p4471
asbag57
(g78
g59
NtRp4472
(dp4473
g62
(dp4474
g89
g90
ssg71
g4463
sg64
(lp4475
S':'
asbag57
(g78
g59
NtRp4476
(dp4477
g62
(dp4478
sg71
g4463
sg64
(lp4479
g57
(g58
g59
NtRp4480
(dp4481
g62
(dp4482
g70
I5
ssg71
g4476
sg64
(lp4483
g57
(cgluon.html
A
p4484
g59
NtRp4485
(dp4486
g62
(dp4487
S'_class'
p4488
S'brand'
p4489
sS'_href'
p4490
S'http://www.web2py.com/'
p4491
ssg71
Nsg64
(lp4492
g57
(cgluon.html
B
p4493
g59
NtRp4494
(dp4495
g62
(dp4496
sg71
g4485
sg64
(lp4497
S'web'
p4498
ag57
(cgluon.html
SPAN
p4499
g59
NtRp4500
(dp4501
g62
(dp4502
sg71
g4494
sg64
(lp4503
I2
asbaS'py'
p4504
asbacgluon.html
XML_unpickle
p4505
(S's\r\x00\x00\x00&trade;&nbsp;'
tRp4506
asbasbasbasbag57
(g73
g59
NtRp4507
(dp4508
g62
(dp4509
sg71
g3857
sg64
(lp4510
g57
(g78
g59
NtRp4511
(dp4512
g62
(dp4513
g82
g83
ssg71
g4507
sg64
(lp4514
S'menu'
p4515
asbag57
(g78
g59
NtRp4516
(dp4517
g62
(dp4518
g89
g90
ssg71
g4507
sg64
(lp4519
S':'
asbag57
(g78
g59
NtRp4520
(dp4521
g62
(dp4522
sg71
g4507
sg64
(lp4523
g57
(g58
g59
NtRp4524
(dp4525
g62
(dp4526
g70
I5
ssg71
g4520
sg64
(lp4527
g57
(g66
g59
NtRp4528
(dp4529
g62
(dp4530
g70
I4
ssg71
Nsg64
(lp4531
g57
(g73
g59
NtRp4532
(dp4533
g62
(dp4534
sg71
g4528
sg64
(lp4535
g57
(g78
g59
NtRp4536
(dp4537
g62
(dp4538
sg71
g4532
sg64
(lp4539
g57
(g58
g59
NtRp4540
(dp4541
g62
(dp4542
g70
I4
ssg71
g4536
sg64
(lp4543
g57
(g66
g59
NtRp4544
(dp4545
g62
(dp4546
g70
I3
ssg71
Nsg64
(lp4547
g57
(g73
g59
NtRp4548
(dp4549
g62
(dp4550
sg71
g4544
sg64
(lp4551
g57
(g78
g59
NtRp4552
(dp4553
g62
(dp4554
sg71
g4548
sg64
(lp4555
g57
(g58
g59
NtRp4556
(dp4557
g62
(dp4558
g70
I3
ssg71
g4552
sg64
(lp4559
cgluon.languages
lazyT_unpickle
p4560
(S's\x04\x00\x00\x00Home'
tRp4561
asbasbasbag57
(g73
g59
NtRp4562
(dp4563
g62
(dp4564
sg71
g4544
sg64
(lp4565
g57
(g78
g59
NtRp4566
(dp4567
g62
(dp4568
sg71
g4562
sg64
(lp4569
g57
(g58
g59
NtRp4570
(dp4571
g62
(dp4572
g70
I3
ssg71
g4566
sg64
(lp4573
g100
asbasbasbag57
(g73
g59
NtRp4574
(dp4575
g62
(dp4576
sg71
g4544
sg64
(lp4577
g57
(g78
g59
NtRp4578
(dp4579
g62
(dp4580
sg71
g4574
sg64
(lp4581
g57
(g58
g59
NtRp4582
(dp4583
g62
(dp4584
g70
I3
ssg71
g4578
sg64
(lp4585
S'/IIIT_calendars/default/index'
p4586
asbasbasbag57
(g73
g59
NtRp4587
(dp4588
g62
(dp4589
sg71
g4544
sg64
(lp4590
g57
(g78
g59
NtRp4591
(dp4592
g62
(dp4593
sg71
g4587
sg64
(lp4594
g57
(g58
g59
NtRp4595
(dp4596
g62
(dp4597
g70
I3
ssg71
g4591
sg64
(lp4598
g57
(g66
g59
NtRp4599
(dp4600
g62
(dp4601
g70
I2
ssg71
Nsg64
(lp4602
sbasbasbasbasbasbasbasbag57
(g73
g59
NtRp4603
(dp4604
g62
(dp4605
sg71
g4528
sg64
(lp4606
g57
(g78
g59
NtRp4607
(dp4608
g62
(dp4609
sg71
g4603
sg64
(lp4610
g57
(g58
g59
NtRp4611
(dp4612
g62
(dp4613
g70
I4
ssg71
g4607
sg64
(lp4614
g57
(g66
g59
NtRp4615
(dp4616
g62
(dp4617
g70
I3
ssg71
Nsg64
(lp4618
g57
(g73
g59
NtRp4619
(dp4620
g62
(dp4621
sg71
g4615
sg64
(lp4622
g57
(g78
g59
NtRp4623
(dp4624
g62
(dp4625
sg71
g4619
sg64
(lp4626
g57
(g58
g59
NtRp4627
(dp4628
g62
(dp4629
g70
I3
ssg71
g4623
sg64
(lp4630
g57
(g4499
g59
NtRp4631
(dp4632
g62
(dp4633
g4488
S'highlighted'
p4634
ssg71
Nsg64
(lp4635
g4462
asbasbasbasbag57
(g73
g59
NtRp4636
(dp4637
g62
(dp4638
sg71
g4615
sg64
(lp4639
g57
(g78
g59
NtRp4640
(dp4641
g62
(dp4642
sg71
g4636
sg64
(lp4643
g57
(g58
g59
NtRp4644
(dp4645
g62
(dp4646
g70
I3
ssg71
g4640
sg64
(lp4647
g100
asbasbasbag57
(g73
g59
NtRp4648
(dp4649
g62
(dp4650
sg71
g4615
sg64
(lp4651
g57
(g78
g59
NtRp4652
(dp4653
g62
(dp4654
sg71
g4648
sg64
(lp4655
g57
(g58
g59
NtRp4656
(dp4657
g62
(dp4658
g70
I3
ssg71
g4652
sg64
(lp4659
S'http://web2py.com'
p4660
asbasbasbag57
(g73
g59
NtRp4661
(dp4662
g62
(dp4663
sg71
g4615
sg64
(lp4664
g57
(g78
g59
NtRp4665
(dp4666
g62
(dp4667
sg71
g4661
sg64
(lp4668
g57
(g58
g59
NtRp4669
(dp4670
g62
(dp4671
g70
I3
ssg71
g4665
sg64
(lp4672
g57
(g66
g59
NtRp4673
(dp4674
g62
(dp4675
g70
I2
ssg71
Nsg64
(lp4676
g57
(g73
g59
NtRp4677
(dp4678
g62
(dp4679
sg71
g4673
sg64
(lp4680
g57
(g78
g59
NtRp4681
(dp4682
g62
(dp4683
sg71
g4677
sg64
(lp4684
g57
(g58
g59
NtRp4685
(dp4686
g62
(dp4687
g70
I2
ssg71
g4681
sg64
(lp4688
g57
(g66
g59
NtRp4689
(dp4690
g62
(dp4691
g70
I1
ssg71
Nsg64
(lp4692
g57
(g73
g59
NtRp4693
(dp4694
g62
(dp4695
sg71
g4689
sg64
(lp4696
g57
(g78
g59
NtRp4697
(dp4698
g62
(dp4699
sg71
g4693
sg64
(lp4700
g57
(g58
g59
NtRp4701
(dp4702
g62
(dp4703
g70
I1
ssg71
g4697
sg64
(lp4704
g4560
(S's\x08\x00\x00\x00My Sites'
tRp4705
asbasbasbag57
(g73
g59
NtRp4706
(dp4707
g62
(dp4708
sg71
g4689
sg64
(lp4709
g57
(g78
g59
NtRp4710
(dp4711
g62
(dp4712
sg71
g4706
sg64
(lp4713
g57
(g58
g59
NtRp4714
(dp4715
g62
(dp4716
g70
I1
ssg71
g4710
sg64
(lp4717
I00
asbasbasbag57
(g73
g59
NtRp4718
(dp4719
g62
(dp4720
sg71
g4689
sg64
(lp4721
g57
(g78
g59
NtRp4722
(dp4723
g62
(dp4724
sg71
g4718
sg64
(lp4725
g57
(g58
g59
NtRp4726
(dp4727
g62
(dp4728
g70
I1
ssg71
g4722
sg64
(lp4729
S'/admin/default/site'
p4730
asbasbasbasbasbasbasbag57
(g73
g59
NtRp4731
(dp4732
g62
(dp4733
sg71
g4673
sg64
(lp4734
g57
(g78
g59
NtRp4735
(dp4736
g62
(dp4737
sg71
g4731
sg64
(lp4738
g57
(g58
g59
NtRp4739
(dp4740
g62
(dp4741
g70
I2
ssg71
g4735
sg64
(lp4742
g57
(g66
g59
NtRp4743
(dp4744
g62
(dp4745
g70
I1
ssg71
Nsg64
(lp4746
g57
(g73
g59
NtRp4747
(dp4748
g62
(dp4749
sg71
g4743
sg64
(lp4750
g57
(g78
g59
NtRp4751
(dp4752
g62
(dp4753
sg71
g4747
sg64
(lp4754
g57
(g58
g59
NtRp4755
(dp4756
g62
(dp4757
g70
I1
ssg71
g4751
sg64
(lp4758
g4560
(S's\x08\x00\x00\x00This App'
tRp4759
asbasbasbag57
(g73
g59
NtRp4760
(dp4761
g62
(dp4762
sg71
g4743
sg64
(lp4763
g57
(g78
g59
NtRp4764
(dp4765
g62
(dp4766
sg71
g4760
sg64
(lp4767
g57
(g58
g59
NtRp4768
(dp4769
g62
(dp4770
g70
I1
ssg71
g4764
sg64
(lp4771
I00
asbasbasbag57
(g73
g59
NtRp4772
(dp4773
g62
(dp4774
sg71
g4743
sg64
(lp4775
g57
(g78
g59
NtRp4776
(dp4777
g62
(dp4778
sg71
g4772
sg64
(lp4779
g57
(g58
g59
NtRp4780
(dp4781
g62
(dp4782
g70
I1
ssg71
g4776
sg64
(lp4783
S'/admin/default/design/IIIT_calendars'
p4784
asbasbasbag57
(g73
g59
NtRp4785
(dp4786
g62
(dp4787
sg71
g4743
sg64
(lp4788
g57
(g78
g59
NtRp4789
(dp4790
g62
(dp4791
sg71
g4785
sg64
(lp4792
g57
(g58
g59
NtRp4793
(dp4794
g62
(dp4795
g70
I1
ssg71
g4789
sg64
(lp4796
(lp4797
(g4560
(S's\n\x00\x00\x00Controller'
tRp4798
I00
S'/admin/default/edit/IIIT_calendars/controllers/default.py'
tp4799
a(g4560
(S's\x04\x00\x00\x00View'
tRp4800
I00
S'/admin/default/edit/IIIT_calendars/views/default/calendar.html'
tp4801
a(g4560
(S's\x06\x00\x00\x00Layout'
tRp4802
I00
S'/admin/default/edit/IIIT_calendars/views/layout.html'
tp4803
a(g4560
(S's\n\x00\x00\x00Stylesheet'
tRp4804
I00
S'/admin/default/edit/IIIT_calendars/static/css/web2py.css'
tp4805
a(g4560
(S's\x08\x00\x00\x00DB Model'
tRp4806
I00
S'/admin/default/edit/IIIT_calendars/models/db.py'
tp4807
a(g4560
(S's\n\x00\x00\x00Menu Model'
tRp4808
I00
S'/admin/default/edit/IIIT_calendars/models/menu.py'
tp4809
a(g4560
(S's\x08\x00\x00\x00Database'
tRp4810
I00
S'/IIIT_calendars/appadmin/index'
tp4811
a(g4560
(S's\x06\x00\x00\x00Errors'
tRp4812
I00
S'/admin/default/errors/IIIT_calendars'
tp4813
a(g4560
(S's\x05\x00\x00\x00About'
tRp4814
I00
S'/admin/default/about/IIIT_calendars'
tp4815
aasbasbasbasbasbasbasbag57
(g73
g59
NtRp4816
(dp4817
g62
(dp4818
sg71
g4673
sg64
(lp4819
g57
(g78
g59
NtRp4820
(dp4821
g62
(dp4822
sg71
g4816
sg64
(lp4823
g57
(g58
g59
NtRp4824
(dp4825
g62
(dp4826
g70
I2
ssg71
g4820
sg64
(lp4827
g57
(g66
g59
NtRp4828
(dp4829
g62
(dp4830
g70
I1
ssg71
Nsg64
(lp4831
g57
(g73
g59
NtRp4832
(dp4833
g62
(dp4834
sg71
g4828
sg64
(lp4835
g57
(g78
g59
NtRp4836
(dp4837
g62
(dp4838
sg71
g4832
sg64
(lp4839
g57
(g58
g59
NtRp4840
(dp4841
g62
(dp4842
g70
I1
ssg71
g4836
sg64
(lp4843
S'web2py.com'
p4844
asbasbasbag57
(g73
g59
NtRp4845
(dp4846
g62
(dp4847
sg71
g4828
sg64
(lp4848
g57
(g78
g59
NtRp4849
(dp4850
g62
(dp4851
sg71
g4845
sg64
(lp4852
g57
(g58
g59
NtRp4853
(dp4854
g62
(dp4855
g70
I1
ssg71
g4849
sg64
(lp4856
I00
asbasbasbag57
(g73
g59
NtRp4857
(dp4858
g62
(dp4859
sg71
g4828
sg64
(lp4860
g57
(g78
g59
NtRp4861
(dp4862
g62
(dp4863
sg71
g4857
sg64
(lp4864
g57
(g58
g59
NtRp4865
(dp4866
g62
(dp4867
g70
I1
ssg71
g4861
sg64
(lp4868
S'http://www.web2py.com'
p4869
asbasbasbag57
(g73
g59
NtRp4870
(dp4871
g62
(dp4872
sg71
g4828
sg64
(lp4873
g57
(g78
g59
NtRp4874
(dp4875
g62
(dp4876
sg71
g4870
sg64
(lp4877
g57
(g58
g59
NtRp4878
(dp4879
g62
(dp4880
g70
I1
ssg71
g4874
sg64
(lp4881
(lp4882
(g4560
(S's\x08\x00\x00\x00Download'
tRp4883
I00
S'http://www.web2py.com/examples/default/download'
p4884
tp4885
a(g4560
(S's\x07\x00\x00\x00Support'
tRp4886
I00
S'http://www.web2py.com/examples/default/support'
p4887
tp4888
a(g4560
(S's\x04\x00\x00\x00Demo'
tRp4889
I00
S'http://web2py.com/demo_admin'
p4890
tp4891
a(g4560
(S's\x0e\x00\x00\x00Quick Examples'
tRp4892
I00
S'http://web2py.com/examples/default/examples'
p4893
tp4894
a(g4560
(S's\x03\x00\x00\x00FAQ'
tRp4895
I00
S'http://web2py.com/AlterEgo'
p4896
tp4897
a(g4560
(S's\x06\x00\x00\x00Videos'
tRp4898
I00
S'http://www.web2py.com/examples/default/videos/'
p4899
tp4900
a(g4560
(S's\x11\x00\x00\x00Free Applications'
tRp4901
I00
S'http://web2py.com/appliances'
p4902
tp4903
a(g4560
(S's\x07\x00\x00\x00Plugins'
tRp4904
I00
S'http://web2py.com/plugins'
p4905
tp4906
a(g4560
(S's\x07\x00\x00\x00Layouts'
tRp4907
I00
S'http://web2py.com/layouts'
p4908
tp4909
a(g4560
(S's\x07\x00\x00\x00Recipes'
tRp4910
I00
S'http://web2pyslices.com/'
p4911
tp4912
a(g4560
(S's\x08\x00\x00\x00Semantic'
tRp4913
I00
S'http://web2py.com/semantic'
p4914
tp4915
aasbasbasbasbasbasbasbag57
(g73
g59
NtRp4916
(dp4917
g62
(dp4918
sg71
g4673
sg64
(lp4919
g57
(g78
g59
NtRp4920
(dp4921
g62
(dp4922
sg71
g4916
sg64
(lp4923
g57
(g58
g59
NtRp4924
(dp4925
g62
(dp4926
g70
I2
ssg71
g4920
sg64
(lp4927
g57
(g66
g59
NtRp4928
(dp4929
g62
(dp4930
g70
I1
ssg71
Nsg64
(lp4931
g57
(g73
g59
NtRp4932
(dp4933
g62
(dp4934
sg71
g4928
sg64
(lp4935
g57
(g78
g59
NtRp4936
(dp4937
g62
(dp4938
sg71
g4932
sg64
(lp4939
g57
(g58
g59
NtRp4940
(dp4941
g62
(dp4942
g70
I1
ssg71
g4936
sg64
(lp4943
g4560
(S's\r\x00\x00\x00Documentation'
tRp4944
asbasbasbag57
(g73
g59
NtRp4945
(dp4946
g62
(dp4947
sg71
g4928
sg64
(lp4948
g57
(g78
g59
NtRp4949
(dp4950
g62
(dp4951
sg71
g4945
sg64
(lp4952
g57
(g58
g59
NtRp4953
(dp4954
g62
(dp4955
g70
I1
ssg71
g4949
sg64
(lp4956
I00
asbasbasbag57
(g73
g59
NtRp4957
(dp4958
g62
(dp4959
sg71
g4928
sg64
(lp4960
g57
(g78
g59
NtRp4961
(dp4962
g62
(dp4963
sg71
g4957
sg64
(lp4964
g57
(g58
g59
NtRp4965
(dp4966
g62
(dp4967
g70
I1
ssg71
g4961
sg64
(lp4968
S'http://www.web2py.com/book'
p4969
asbasbasbag57
(g73
g59
NtRp4970
(dp4971
g62
(dp4972
sg71
g4928
sg64
(lp4973
g57
(g78
g59
NtRp4974
(dp4975
g62
(dp4976
sg71
g4970
sg64
(lp4977
g57
(g58
g59
NtRp4978
(dp4979
g62
(dp4980
g70
I1
ssg71
g4974
sg64
(lp4981
(lp4982
(g4560
(S's\x07\x00\x00\x00Preface'
tRp4983
I00
S'http://www.web2py.com/book/default/chapter/00'
p4984
tp4985
a(g4560
(S's\x0c\x00\x00\x00Introduction'
tRp4986
I00
S'http://www.web2py.com/book/default/chapter/01'
p4987
tp4988
a(g4560
(S's\x06\x00\x00\x00Python'
tRp4989
I00
S'http://www.web2py.com/book/default/chapter/02'
p4990
tp4991
a(g4560
(S's\x08\x00\x00\x00Overview'
tRp4992
I00
S'http://www.web2py.com/book/default/chapter/03'
p4993
tp4994
a(g4560
(S's\x08\x00\x00\x00The Core'
tRp4995
I00
S'http://www.web2py.com/book/default/chapter/04'
p4996
tp4997
a(g4560
(S's\t\x00\x00\x00The Views'
tRp4998
I00
S'http://www.web2py.com/book/default/chapter/05'
p4999
tp5000
a(g4560
(S's\x08\x00\x00\x00Database'
tRp5001
I00
S'http://www.web2py.com/book/default/chapter/06'
p5002
tp5003
a(g4560
(S's\x14\x00\x00\x00Forms and Validators'
tRp5004
I00
S'http://www.web2py.com/book/default/chapter/07'
p5005
tp5006
a(g4560
(S's\r\x00\x00\x00Email and SMS'
tRp5007
I00
S'http://www.web2py.com/book/default/chapter/08'
p5008
tp5009
a(g4560
(S's\x0e\x00\x00\x00Access Control'
tRp5010
I00
S'http://www.web2py.com/book/default/chapter/09'
p5011
tp5012
a(g4560
(S's\x08\x00\x00\x00Services'
tRp5013
I00
S'http://www.web2py.com/book/default/chapter/10'
p5014
tp5015
a(g4560
(S's\x0c\x00\x00\x00Ajax Recipes'
tRp5016
I00
S'http://www.web2py.com/book/default/chapter/11'
p5017
tp5018
a(g4560
(S's\x16\x00\x00\x00Components and Plugins'
tRp5019
I00
S'http://www.web2py.com/book/default/chapter/12'
p5020
tp5021
a(g4560
(S's\x12\x00\x00\x00Deployment Recipes'
tRp5022
I00
S'http://www.web2py.com/book/default/chapter/13'
p5023
tp5024
a(g4560
(S's\r\x00\x00\x00Other Recipes'
tRp5025
I00
S'http://www.web2py.com/book/default/chapter/14'
p5026
tp5027
a(g4560
(S's\r\x00\x00\x00Buy this book'
tRp5028
I00
S'http://stores.lulu.com/web2py'
p5029
tp5030
aasbasbasbasbasbasbasbag57
(g73
g59
NtRp5031
(dp5032
g62
(dp5033
sg71
g4673
sg64
(lp5034
g57
(g78
g59
NtRp5035
(dp5036
g62
(dp5037
sg71
g5031
sg64
(lp5038
g57
(g58
g59
NtRp5039
(dp5040
g62
(dp5041
g70
I2
ssg71
g5035
sg64
(lp5042
g57
(g66
g59
NtRp5043
(dp5044
g62
(dp5045
g70
I1
ssg71
Nsg64
(lp5046
g57
(g73
g59
NtRp5047
(dp5048
g62
(dp5049
sg71
g5043
sg64
(lp5050
g57
(g78
g59
NtRp5051
(dp5052
g62
(dp5053
sg71
g5047
sg64
(lp5054
g57
(g58
g59
NtRp5055
(dp5056
g62
(dp5057
g70
I1
ssg71
g5051
sg64
(lp5058
g4560
(S's\t\x00\x00\x00Community'
tRp5059
asbasbasbag57
(g73
g59
NtRp5060
(dp5061
g62
(dp5062
sg71
g5043
sg64
(lp5063
g57
(g78
g59
NtRp5064
(dp5065
g62
(dp5066
sg71
g5060
sg64
(lp5067
g57
(g58
g59
NtRp5068
(dp5069
g62
(dp5070
g70
I1
ssg71
g5064
sg64
(lp5071
I00
asbasbasbag57
(g73
g59
NtRp5072
(dp5073
g62
(dp5074
sg71
g5043
sg64
(lp5075
g57
(g78
g59
NtRp5076
(dp5077
g62
(dp5078
sg71
g5072
sg64
(lp5079
g57
(g58
g59
NtRp5080
(dp5081
g62
(dp5082
g70
I1
ssg71
g5076
sg64
(lp5083
Nasbasbasbag57
(g73
g59
NtRp5084
(dp5085
g62
(dp5086
sg71
g5043
sg64
(lp5087
g57
(g78
g59
NtRp5088
(dp5089
g62
(dp5090
sg71
g5084
sg64
(lp5091
g57
(g58
g59
NtRp5092
(dp5093
g62
(dp5094
g70
I1
ssg71
g5088
sg64
(lp5095
(lp5096
(g4560
(S's\x06\x00\x00\x00Groups'
tRp5097
I00
S'http://www.web2py.com/examples/default/usergroups'
p5098
tp5099
a(g4560
(S's\x07\x00\x00\x00Twitter'
tRp5100
I00
S'http://twitter.com/web2py'
p5101
tp5102
a(g4560
(S's\t\x00\x00\x00Live Chat'
tRp5103
I00
S'http://webchat.freenode.net/?channels=web2py'
p5104
tp5105
aasbasbasbasbasbasbasbag57
(g73
g59
NtRp5106
(dp5107
g62
(dp5108
sg71
g4673
sg64
(lp5109
g57
(g78
g59
NtRp5110
(dp5111
g62
(dp5112
sg71
g5106
sg64
(lp5113
g57
(g58
g59
NtRp5114
(dp5115
g62
(dp5116
g70
I2
ssg71
g5110
sg64
(lp5117
g57
(g66
g59
NtRp5118
(dp5119
g62
(dp5120
g70
I1
ssg71
Nsg64
(lp5121
g57
(g73
g59
NtRp5122
(dp5123
g62
(dp5124
sg71
g5118
sg64
(lp5125
g57
(g78
g59
NtRp5126
(dp5127
g62
(dp5128
sg71
g5122
sg64
(lp5129
g57
(g58
g59
NtRp5130
(dp5131
g62
(dp5132
g70
I1
ssg71
g5126
sg64
(lp5133
g4560
(S's\x07\x00\x00\x00Plugins'
tRp5134
asbasbasbag57
(g73
g59
NtRp5135
(dp5136
g62
(dp5137
sg71
g5118
sg64
(lp5138
g57
(g78
g59
NtRp5139
(dp5140
g62
(dp5141
sg71
g5135
sg64
(lp5142
g57
(g58
g59
NtRp5143
(dp5144
g62
(dp5145
g70
I1
ssg71
g5139
sg64
(lp5146
I00
asbasbasbag57
(g73
g59
NtRp5147
(dp5148
g62
(dp5149
sg71
g5118
sg64
(lp5150
g57
(g78
g59
NtRp5151
(dp5152
g62
(dp5153
sg71
g5147
sg64
(lp5154
g57
(g58
g59
NtRp5155
(dp5156
g62
(dp5157
g70
I1
ssg71
g5151
sg64
(lp5158
Nasbasbasbag57
(g73
g59
NtRp5159
(dp5160
g62
(dp5161
sg71
g5118
sg64
(lp5162
g57
(g78
g59
NtRp5163
(dp5164
g62
(dp5165
sg71
g5159
sg64
(lp5166
g57
(g58
g59
NtRp5167
(dp5168
g62
(dp5169
g70
I1
ssg71
g5163
sg64
(lp5170
(lp5171
(S'plugin_wiki'
p5172
I00
S'http://web2py.com/examples/default/download'
p5173
tp5174
a(g4560
(S's\r\x00\x00\x00Other Plugins'
tRp5175
I00
g4905
tp5176
a(g4560
(S's\x0e\x00\x00\x00Layout Plugins'
tRp5177
I00
g4908
tp5178
aasbasbasbasbasbasbasbasbasbasbasbasbasbasbasbasbasbasbasbag57
(g73
g59
NtRp5179
(dp5180
g62
(dp5181
sg71
g3857
sg64
(lp5182
g57
(g78
g59
NtRp5183
(dp5184
g62
(dp5185
g82
g83
ssg71
g5179
sg64
(lp5186
S'meta'
p5187
asbag57
(g78
g59
NtRp5188
(dp5189
g62
(dp5190
g89
g90
ssg71
g5179
sg64
(lp5191
S':'
asbag57
(g78
g59
NtRp5192
(dp5193
g62
(dp5194
sg71
g5179
sg64
(lp5195
g57
(g58
g59
NtRp5196
(dp5197
g62
(dp5198
g70
I5
ssg71
g5192
sg64
(lp5199
g57
(g66
g59
NtRp5200
(dp5201
g62
(dp5202
g70
I4
ssg71
Nsg64
(lp5203
g57
(g73
g59
NtRp5204
(dp5205
g62
(dp5206
sg71
g5200
sg64
(lp5207
g57
(g78
g59
NtRp5208
(dp5209
g62
(dp5210
g82
g83
ssg71
g5204
sg64
(lp5211
S'author'
p5212
asbag57
(g78
g59
NtRp5213
(dp5214
g62
(dp5215
g89
g90
ssg71
g5204
sg64
(lp5216
S':'
asbag57
(g78
g59
NtRp5217
(dp5218
g62
(dp5219
sg71
g5204
sg64
(lp5220
g57
(g58
g59
NtRp5221
(dp5222
g62
(dp5223
g70
I4
ssg71
g5217
sg64
(lp5224
S'Your Name <you@example.com>'
p5225
asbasbasbag57
(g73
g59
NtRp5226
(dp5227
g62
(dp5228
sg71
g5200
sg64
(lp5229
g57
(g78
g59
NtRp5230
(dp5231
g62
(dp5232
g82
g83
ssg71
g5226
sg64
(lp5233
S'description'
p5234
asbag57
(g78
g59
NtRp5235
(dp5236
g62
(dp5237
g89
g90
ssg71
g5226
sg64
(lp5238
S':'
asbag57
(g78
g59
NtRp5239
(dp5240
g62
(dp5241
sg71
g5226
sg64
(lp5242
g57
(g58
g59
NtRp5243
(dp5244
g62
(dp5245
g70
I4
ssg71
g5239
sg64
(lp5246
S'a cool new app'
p5247
asbasbasbag57
(g73
g59
NtRp5248
(dp5249
g62
(dp5250
sg71
g5200
sg64
(lp5251
g57
(g78
g59
NtRp5252
(dp5253
g62
(dp5254
g82
g83
ssg71
g5248
sg64
(lp5255
S'generator'
p5256
asbag57
(g78
g59
NtRp5257
(dp5258
g62
(dp5259
g89
g90
ssg71
g5248
sg64
(lp5260
S':'
asbag57
(g78
g59
NtRp5261
(dp5262
g62
(dp5263
sg71
g5248
sg64
(lp5264
g57
(g58
g59
NtRp5265
(dp5266
g62
(dp5267
g70
I4
ssg71
g5261
sg64
(lp5268
S'Web2py Web Framework'
p5269
asbasbasbag57
(g73
g59
NtRp5270
(dp5271
g62
(dp5272
sg71
g5200
sg64
(lp5273
g57
(g78
g59
NtRp5274
(dp5275
g62
(dp5276
g82
g83
ssg71
g5270
sg64
(lp5277
S'keywords'
p5278
asbag57
(g78
g59
NtRp5279
(dp5280
g62
(dp5281
g89
g90
ssg71
g5270
sg64
(lp5282
S':'
asbag57
(g78
g59
NtRp5283
(dp5284
g62
(dp5285
sg71
g5270
sg64
(lp5286
g57
(g58
g59
NtRp5287
(dp5288
g62
(dp5289
g70
I4
ssg71
g5283
sg64
(lp5290
S'web2py, python, framework'
p5291
asbasbasbasbasbasbasbag57
(g73
g59
NtRp5292
(dp5293
g62
(dp5294
sg71
g3857
sg64
(lp5295
g57
(g78
g59
NtRp5296
(dp5297
g62
(dp5298
g82
g83
ssg71
g5292
sg64
(lp5299
S'models_to_run'
p5300
asbag57
(g78
g59
NtRp5301
(dp5302
g62
(dp5303
g89
g90
ssg71
g5292
sg64
(lp5304
S':'
asbag57
(g78
g59
NtRp5305
(dp5306
g62
(dp5307
sg71
g5292
sg64
(lp5308
g57
(g58
g59
NtRp5309
(dp5310
g62
(dp5311
g70
I5
ssg71
g5305
sg64
(lp5312
g57
(g66
g59
NtRp5313
(dp5314
g62
(dp5315
g70
I4
ssg71
Nsg64
(lp5316
g57
(g73
g59
NtRp5317
(dp5318
g62
(dp5319
sg71
g5313
sg64
(lp5320
g57
(g78
g59
NtRp5321
(dp5322
g62
(dp5323
sg71
g5317
sg64
(lp5324
g57
(g58
g59
NtRp5325
(dp5326
g62
(dp5327
g70
I4
ssg71
g5321
sg64
(lp5328
S'^\\w+\\.py$'
p5329
asbasbasbag57
(g73
g59
NtRp5330
(dp5331
g62
(dp5332
sg71
g5313
sg64
(lp5333
g57
(g78
g59
NtRp5334
(dp5335
g62
(dp5336
sg71
g5330
sg64
(lp5337
g57
(g58
g59
NtRp5338
(dp5339
g62
(dp5340
g70
I4
ssg71
g5334
sg64
(lp5341
S'^default/\\w+\\.py$'
p5342
asbasbasbag57
(g73
g59
NtRp5343
(dp5344
g62
(dp5345
sg71
g5313
sg64
(lp5346
g57
(g78
g59
NtRp5347
(dp5348
g62
(dp5349
sg71
g5343
sg64
(lp5350
g57
(g58
g59
NtRp5351
(dp5352
g62
(dp5353
g70
I4
ssg71
g5347
sg64
(lp5354
S'^default/calendar/\\w+\\.py$'
p5355
asbasbasbasbasbasbasbag57
(g73
g59
NtRp5356
(dp5357
g62
(dp5358
sg71
g3857
sg64
(lp5359
g57
(g78
g59
NtRp5360
(dp5361
g62
(dp5362
g82
g83
ssg71
g5356
sg64
(lp5363
S'postprocessing'
p5364
asbag57
(g78
g59
NtRp5365
(dp5366
g62
(dp5367
g89
g90
ssg71
g5356
sg64
(lp5368
S':'
asbag57
(g78
g59
NtRp5369
(dp5370
g62
(dp5371
sg71
g5356
sg64
(lp5372
g57
(g58
g59
NtRp5373
(dp5374
g62
(dp5375
g70
I5
ssg71
g5369
sg64
(lp5376
g57
(g66
g59
NtRp5377
(dp5378
g62
(dp5379
g70
I4
ssg71
Nsg64
(lp5380
sbasbasbasbag57
(g73
g59
NtRp5381
(dp5382
g62
(dp5383
sg71
g3857
sg64
(lp5384
g57
(g78
g59
NtRp5385
(dp5386
g62
(dp5387
g82
g83
ssg71
g5381
sg64
(lp5388
S'session_cookie_expires'
p5389
asbag57
(g78
g59
NtRp5390
(dp5391
g62
(dp5392
g89
g90
ssg71
g5381
sg64
(lp5393
S':'
asbag57
(g78
g59
NtRp5394
(dp5395
g62
(dp5396
sg71
g5381
sg64
(lp5397
g57
(g58
g59
NtRp5398
(dp5399
g62
(dp5400
g70
I5
ssg71
g5394
sg64
(lp5401
S'None'
p5402
asbasbasbag57
(g73
g59
NtRp5403
(dp5404
g62
(dp5405
sg71
g3857
sg64
(lp5406
g57
(g78
g59
NtRp5407
(dp5408
g62
(dp5409
g82
g83
ssg71
g5403
sg64
(lp5410
S'session_data_name'
p5411
asbag57
(g78
g59
NtRp5412
(dp5413
g62
(dp5414
g89
g90
ssg71
g5403
sg64
(lp5415
S':'
asbag57
(g78
g59
NtRp5416
(dp5417
g62
(dp5418
sg71
g5403
sg64
(lp5419
g57
(g58
g59
NtRp5420
(dp5421
g62
(dp5422
g70
I5
ssg71
g5416
sg64
(lp5423
S'session_data_iiit_calendars'
p5424
asbasbasbag57
(g73
g59
NtRp5425
(dp5426
g62
(dp5427
sg71
g3857
sg64
(lp5428
g57
(g78
g59
NtRp5429
(dp5430
g62
(dp5431
g82
g83
ssg71
g5425
sg64
(lp5432
S'session_file'
p5433
asbag57
(g78
g59
NtRp5434
(dp5435
g62
(dp5436
g89
g90
ssg71
g5425
sg64
(lp5437
S':'
asbag57
(g78
g59
NtRp5438
(dp5439
g62
(dp5440
sg71
g5425
sg64
(lp5441
g57
(g58
g59
NtRp5442
(dp5443
g62
(dp5444
g70
I5
ssg71
g5438
sg64
(lp5445
S"<open file '/home/simran/web2py/applications/IIIT_calendars/sessions/127.0.0.1-027d37e9-0e6e-4153-9090-b15ef65cb5cf', mode 'rb+' at 0x7f859c3d1c00>"
p5446
asbasbasbag57
(g73
g59
NtRp5447
(dp5448
g62
(dp5449
sg71
g3857
sg64
(lp5450
g57
(g78
g59
NtRp5451
(dp5452
g62
(dp5453
g82
g83
ssg71
g5447
sg64
(lp5454
S'session_filename'
p5455
asbag57
(g78
g59
NtRp5456
(dp5457
g62
(dp5458
g89
g90
ssg71
g5447
sg64
(lp5459
S':'
asbag57
(g78
g59
NtRp5460
(dp5461
g62
(dp5462
sg71
g5447
sg64
(lp5463
g57
(g58
g59
NtRp5464
(dp5465
g62
(dp5466
g70
I5
ssg71
g5460
sg64
(lp5467
S'/home/simran/web2py/applications/IIIT_calendars/sessions/127.0.0.1-027d37e9-0e6e-4153-9090-b15ef65cb5cf'
p5468
asbasbasbag57
(g73
g59
NtRp5469
(dp5470
g62
(dp5471
sg71
g3857
sg64
(lp5472
g57
(g78
g59
NtRp5473
(dp5474
g62
(dp5475
g82
g83
ssg71
g5469
sg64
(lp5476
S'session_id'
p5477
asbag57
(g78
g59
NtRp5478
(dp5479
g62
(dp5480
g89
g90
ssg71
g5469
sg64
(lp5481
S':'
asbag57
(g78
g59
NtRp5482
(dp5483
g62
(dp5484
sg71
g5469
sg64
(lp5485
g57
(g58
g59
NtRp5486
(dp5487
g62
(dp5488
g70
I5
ssg71
g5482
sg64
(lp5489
g661
asbasbasbag57
(g73
g59
NtRp5490
(dp5491
g62
(dp5492
sg71
g3857
sg64
(lp5493
g57
(g78
g59
NtRp5494
(dp5495
g62
(dp5496
g82
g83
ssg71
g5490
sg64
(lp5497
S'session_id_name'
p5498
asbag57
(g78
g59
NtRp5499
(dp5500
g62
(dp5501
g89
g90
ssg71
g5490
sg64
(lp5502
S':'
asbag57
(g78
g59
NtRp5503
(dp5504
g62
(dp5505
sg71
g5490
sg64
(lp5506
g57
(g58
g59
NtRp5507
(dp5508
g62
(dp5509
g70
I5
ssg71
g5503
sg64
(lp5510
g3914
asbasbasbag57
(g73
g59
NtRp5511
(dp5512
g62
(dp5513
sg71
g3857
sg64
(lp5514
g57
(g78
g59
NtRp5515
(dp5516
g62
(dp5517
g82
g83
ssg71
g5511
sg64
(lp5518
S'session_locked'
p5519
asbag57
(g78
g59
NtRp5520
(dp5521
g62
(dp5522
g89
g90
ssg71
g5511
sg64
(lp5523
S':'
asbag57
(g78
g59
NtRp5524
(dp5525
g62
(dp5526
sg71
g5511
sg64
(lp5527
g57
(g58
g59
NtRp5528
(dp5529
g62
(dp5530
g70
I5
ssg71
g5524
sg64
(lp5531
g1955
asbasbasbag57
(g73
g59
NtRp5532
(dp5533
g62
(dp5534
sg71
g3857
sg64
(lp5535
g57
(g78
g59
NtRp5536
(dp5537
g62
(dp5538
g82
g83
ssg71
g5532
sg64
(lp5539
S'session_new'
p5540
asbag57
(g78
g59
NtRp5541
(dp5542
g62
(dp5543
g89
g90
ssg71
g5532
sg64
(lp5544
S':'
asbag57
(g78
g59
NtRp5545
(dp5546
g62
(dp5547
sg71
g5532
sg64
(lp5548
g57
(g58
g59
NtRp5549
(dp5550
g62
(dp5551
g70
I5
ssg71
g5545
sg64
(lp5552
g100
asbasbasbag57
(g73
g59
NtRp5553
(dp5554
g62
(dp5555
sg71
g3857
sg64
(lp5556
g57
(g78
g59
NtRp5557
(dp5558
g62
(dp5559
g82
g83
ssg71
g5553
sg64
(lp5560
S'session_storage_type'
p5561
asbag57
(g78
g59
NtRp5562
(dp5563
g62
(dp5564
g89
g90
ssg71
g5553
sg64
(lp5565
S':'
asbag57
(g78
g59
NtRp5566
(dp5567
g62
(dp5568
sg71
g5553
sg64
(lp5569
g57
(g58
g59
NtRp5570
(dp5571
g62
(dp5572
g70
I5
ssg71
g5566
sg64
(lp5573
g3385
asbasbasbag57
(g73
g59
NtRp5574
(dp5575
g62
(dp5576
sg71
g3857
sg64
(lp5577
g57
(g78
g59
NtRp5578
(dp5579
g62
(dp5580
g82
g83
ssg71
g5574
sg64
(lp5581
S'status'
p5582
asbag57
(g78
g59
NtRp5583
(dp5584
g62
(dp5585
g89
g90
ssg71
g5574
sg64
(lp5586
S':'
asbag57
(g78
g59
NtRp5587
(dp5588
g62
(dp5589
sg71
g5574
sg64
(lp5590
g57
(g58
g59
NtRp5591
(dp5592
g62
(dp5593
g70
I5
ssg71
g5587
sg64
(lp5594
S'200'
p5595
asbasbasbag57
(g73
g59
NtRp5596
(dp5597
g62
(dp5598
sg71
g3857
sg64
(lp5599
g57
(g78
g59
NtRp5600
(dp5601
g62
(dp5602
g82
g83
ssg71
g5596
sg64
(lp5603
S'subtitle'
p5604
asbag57
(g78
g59
NtRp5605
(dp5606
g62
(dp5607
g89
g90
ssg71
g5596
sg64
(lp5608
S':'
asbag57
(g78
g59
NtRp5609
(dp5610
g62
(dp5611
sg71
g5596
sg64
(lp5612
g57
(g58
g59
NtRp5613
(dp5614
g62
(dp5615
g70
I5
ssg71
g5609
sg64
(lp5616
g4560
(S's\r\x00\x00\x00customize me!'
tRp5617
asbasbasbag57
(g73
g59
NtRp5618
(dp5619
g62
(dp5620
sg71
g3857
sg64
(lp5621
g57
(g78
g59
NtRp5622
(dp5623
g62
(dp5624
g82
g83
ssg71
g5618
sg64
(lp5625
S'title'
p5626
asbag57
(g78
g59
NtRp5627
(dp5628
g62
(dp5629
g89
g90
ssg71
g5618
sg64
(lp5630
S':'
asbag57
(g78
g59
NtRp5631
(dp5632
g62
(dp5633
sg71
g5618
sg64
(lp5634
g57
(g58
g59
NtRp5635
(dp5636
g62
(dp5637
g70
I5
ssg71
g5631
sg64
(lp5638
S'Iiit Calendars'
p5639
asbasbasbag57
(g73
g59
NtRp5640
(dp5641
g62
(dp5642
sg71
g3857
sg64
(lp5643
g57
(g78
g59
NtRp5644
(dp5645
g62
(dp5646
g82
g83
ssg71
g5640
sg64
(lp5647
S'view'
p5648
asbag57
(g78
g59
NtRp5649
(dp5650
g62
(dp5651
g89
g90
ssg71
g5640
sg64
(lp5652
S':'
asbag57
(g78
g59
NtRp5653
(dp5654
g62
(dp5655
sg71
g5640
sg64
(lp5656
g57
(g58
g59
NtRp5657
(dp5658
g62
(dp5659
g70
I5
ssg71
g5653
sg64
(lp5660
S'default/calendar.html'
p5661
asbasbasbasbasbsS'locals'
p5662
(dp5663
S'Service'
p5664
S"<class 'gluon.tools.Service'>"
p5665
sS'OBJECT'
p5666
S"<class 'gluon.html.OBJECT'>"
p5667
sS'SQLDB'
p5668
S"<class 'gluon.dal.DAL'>"
p5669
sg3438
S"<Storage {'_formkey[tasks/create]': '6f44ab1c-2d...ts/24]': '5a175a41-fae1-4622-8e9b-a90c4fe7fceb'}>"
p5670
sS'LINK'
p5671
S"<class 'gluon.html.LINK'>"
p5672
sS'BR'
p5673
S"<class 'gluon.html.BR'>"
p5674
sS'local_import'
p5675
S'<function <lambda>>'
p5676
sS'OPTGROUP'
p5677
S"<class 'gluon.html.OPTGROUP'>"
p5678
sS'__package__'
p5679
S'None'
p5680
sS'PRE'
p5681
S"<class 'gluon.html.PRE'>"
p5682
sS'IS_INT_IN_RANGE'
p5683
S"<class 'gluon.validators.IS_INT_IN_RANGE'>"
p5684
sS'left_sidebar_enabled'
p5685
g100
sS'IS_LOWER'
p5686
S"<class 'gluon.validators.IS_LOWER'>"
p5687
sS'IS_STRONG'
p5688
S"<class 'gluon.validators.IS_STRONG'>"
p5689
sS'cache'
p5690
S'<gluon.cache.Cache object>'
p5691
sS'ts'
p5692
S"['00', '02', '30']"
p5693
sS'IS_IN_DB'
p5694
S"<class 'gluon.validators.IS_IN_DB'>"
p5695
sS'TAG'
p5696
S'<gluon.html.__TAG__ object>'
p5697
sS'SQLField'
p5698
S"<class 'gluon.dal.Field'>"
p5699
sS'mail'
p5700
S'<gluon.tools.Mail object>'
p5701
sS'te'
p5702
S"['00', '02', '03']"
p5703
sS'BODY'
p5704
S"<class 'gluon.html.BODY'>"
p5705
sS'IS_DATE_IN_RANGE'
p5706
S"<class 'gluon.validators.IS_DATE_IN_RANGE'>"
p5707
sS'IFRAME'
p5708
S"<class 'gluon.html.IFRAME'>"
p5709
sS'URL'
p5710
S'<function URL>'
p5711
sS'__file__'
p5712
S"'/home/simran/web2py/applications/IIIT_calendars/views/default/calendar.html'"
p5713
sS'db'
p5714
S'<DAL uri="sqlite://storage.sqlite">'
p5715
sS'auth'
p5716
S'<gluon.tools.Auth object>'
p5717
sS'P'
S"<class 'gluon.html.P'>"
p5718
sS'TFOOT'
p5719
S"<class 'gluon.html.TFOOT'>"
p5720
sS'XHTML'
p5721
S"<class 'gluon.html.XHTML'>"
p5722
sS'datetime'
p5723
S"<module 'datetime' from '/usr/lib/python2.7/lib-dynload/datetime.so'>"
p5724
sS'ON'
p5725
g1955
sS'OL'
p5726
S"<class 'gluon.html.OL'>"
p5727
sS'TEXTAREA'
p5728
S"<class 'gluon.html.TEXTAREA'>"
p5729
sS'MENU'
p5730
S"<class 'gluon.html.MENU'>"
p5731
sS'p'
S"['None']"
p5732
sS't'
S'<Rows (2)>'
p5733
sS'IS_IMAGE'
p5734
S"<class 'gluon.validators.IS_IMAGE'>"
p5735
sS'EM'
p5736
S"<class 'gluon.html.EM'>"
p5737
sS'CODE'
p5738
S"<class 'gluon.html.CODE'>"
p5739
sS'HTTP'
p5740
S"<class 'gluon.http.HTTP'>"
p5741
sS'HR'
p5742
S"<class 'gluon.html.HR'>"
p5743
sS'IS_DATETIME'
p5744
S"<class 'gluon.validators.IS_DATETIME'>"
p5745
sS'STYLE'
p5746
S"<class 'gluon.html.STYLE'>"
p5747
sS'LABEL'
p5748
S"<class 'gluon.html.LABEL'>"
p5749
sS'CLEANUP'
p5750
S"<class 'gluon.validators.CLEANUP'>"
p5751
sS'plugins'
p5752
S'<gluon.tools.PluginManager object>'
p5753
sS'et'
p5754
S"'None'"
p5755
sS'SELECT'
p5756
S"<class 'gluon.html.SELECT'>"
p5757
sS'use_janrain'
p5758
S'<function use_janrain>'
p5759
sS'CENTER'
p5760
S"<class 'gluon.html.CENTER'>"
p5761
sS'prettydate'
p5762
S'<function prettydate>'
p5763
sS'Crud'
p5764
S"<class 'gluon.tools.Crud'>"
p5765
sS'Auth'
p5766
S"<class 'gluon.tools.Auth'>"
p5767
sS'DEVELOPMENT_MENU'
p5768
g1955
sS'__builtins__'
p5769
S"{'ArithmeticError': <type 'exceptions.ArithmeticError'>, 'AssertionError': <type 'exceptions.AssertionError'>, 'AttributeError': <type 'exceptions.AttributeError'>, 'BaseException': <type 'exceptions.BaseException'>, 'BufferError': <type 'exceptions.BufferError'>, 'BytesWarning': <type 'exceptions.BytesWarning'>, 'DeprecationWarning': <type 'exceptions.DeprecationWarning'>, 'EOFError': <type 'exceptions.EOFError'>, 'Ellipsis': Ellipsis, 'EnvironmentError': <type 'exceptions.EnvironmentError'>, ...}"
p5770
sS'HTML'
p5771
S"<class 'gluon.html.HTML'>"
p5772
sS'SQLFORM'
p5773
S"<class 'gluon.sqlhtml.SQLFORM'>"
p5774
sS'LOAD'
p5775
S'<function LOAD>'
p5776
sS'redirect'
p5777
S'<function redirect>'
p5778
sS'FIELDSET'
p5779
S"<class 'gluon.html.FIELDSET'>"
p5780
sS'IS_EQUAL_TO'
p5781
S"<class 'gluon.validators.IS_EQUAL_TO'>"
p5782
sS'embed64'
p5783
S'<function embed64>'
p5784
sS'IS_LIST_OF'
p5785
S"<class 'gluon.validators.IS_LIST_OF'>"
p5786
sS'__name__'
p5787
S"'__restricted__'"
p5788
sS'EMBED'
p5789
S"<class 'gluon.html.EMBED'>"
p5790
sS'_'
S'<function _>'
p5791
sS'service'
p5792
S'<gluon.tools.Service object>'
p5793
sS'H2'
p5794
S"<class 'gluon.html.H2'>"
p5795
sS'H3'
p5796
S"<class 'gluon.html.H3'>"
p5797
sS'BUTTON'
p5798
S"<class 'gluon.html.BUTTON'>"
p5799
sS'H1'
p5800
S"<class 'gluon.html.H1'>"
p5801
sS'H6'
p5802
S"<class 'gluon.html.H6'>"
p5803
sS'H4'
p5804
S"<class 'gluon.html.H4'>"
p5805
sS'H5'
p5806
S"<class 'gluon.html.H5'>"
p5807
sS'UL'
p5808
S"<class 'gluon.html.UL'>"
p5809
sS's'
S"'None'"
p5810
sS'IS_UPPER'
p5811
S"<class 'gluon.validators.IS_UPPER'>"
p5812
sS'xmlescape'
p5813
S'<function xmlescape>'
p5814
sS'IS_TIME'
p5815
S"<class 'gluon.validators.IS_TIME'>"
p5816
sS'OPTION'
p5817
S"<class 'gluon.html.OPTION'>"
p5818
sS'TITLE'
p5819
S"<class 'gluon.html.TITLE'>"
p5820
sS'CRYPT'
p5821
S"<class 'gluon.validators.CRYPT'>"
p5822
sS'IS_EMPTY_OR'
p5823
S"<class 'gluon.validators.IS_EMPTY_OR'>"
p5824
sS'MARKMIN'
p5825
S"<class 'gluon.html.MARKMIN'>"
p5826
sS'en'
p5827
S"'2013-04-18'"
p5828
sS'INPUT'
p5829
S"<class 'gluon.html.INPUT'>"
p5830
sS'STRONG'
p5831
S"<class 'gluon.html.STRONG'>"
p5832
sS'COL'
p5833
S"<class 'gluon.html.COL'>"
p5834
sS'ps'
p5835
S"['2013', '04', '07']"
p5836
sS'pt'
p5837
S"['None']"
p5838
sS'SCRIPT'
p5839
S"<class 'gluon.html.SCRIPT'>"
p5840
sS'pe'
p5841
S"['2013', '04', '18']"
p5842
sS'TABLE'
p5843
S"<class 'gluon.html.TABLE'>"
p5844
sS'IS_IPV4'
p5845
S"<class 'gluon.validators.IS_IPV4'>"
p5846
sS'IS_LENGTH'
p5847
S"<class 'gluon.validators.IS_LENGTH'>"
p5848
sS'XML'
p5849
S"<class 'gluon.html.XML'>"
p5850
sS'B'
S"<class 'gluon.html.B'>"
p5851
sS'IMG'
p5852
S"<class 'gluon.html.IMG'>"
p5853
sS'SQLTABLE'
p5854
S"<class 'gluon.sqlhtml.SQLTABLE'>"
p5855
sS'IS_MATCH'
p5856
S"<class 'gluon.validators.IS_MATCH'>"
p5857
sS'IS_ALPHANUMERIC'
p5858
S"<class 'gluon.validators.IS_ALPHANUMERIC'>"
p5859
sS'SPAN'
p5860
S"<class 'gluon.html.SPAN'>"
p5861
sS'IS_SLUG'
p5862
S"<class 'gluon.validators.IS_SLUG'>"
p5863
sS'BEAUTIFY'
p5864
S"<class 'gluon.html.BEAUTIFY'>"
p5865
sS'META'
p5866
S"<class 'gluon.html.META'>"
p5867
sS'IS_DATE'
p5868
S"<class 'gluon.validators.IS_DATE'>"
p5869
sS'IS_EMAIL'
p5870
S"<class 'gluon.validators.IS_EMAIL'>"
p5871
sS'IS_NOT_EMPTY'
p5872
S"<class 'gluon.validators.IS_NOT_EMPTY'>"
p5873
sS'IS_FLOAT_IN_RANGE'
p5874
S"<class 'gluon.validators.IS_FLOAT_IN_RANGE'>"
p5875
sS'TBODY'
p5876
S"<class 'gluon.html.TBODY'>"
p5877
sS'CAT'
p5878
S"<class 'gluon.html.CAT'>"
p5879
sS'Field'
p5880
S"<class 'gluon.dal.Field'>"
p5881
sS'Mail'
p5882
S"<class 'gluon.tools.Mail'>"
p5883
sS'middle_columns'
p5884
S"'span12'"
p5885
sS'DIV'
p5886
S"<class 'gluon.html.DIV'>"
p5887
sS'LEGEND'
p5888
S"<class 'gluon.html.LEGEND'>"
p5889
sS'COLGROUP'
p5890
S"<class 'gluon.html.COLGROUP'>"
p5891
sS'DAL'
p5892
S"<class 'gluon.dal.DAL'>"
p5893
sS'TT'
p5894
S"<class 'gluon.html.TT'>"
p5895
sS'TR'
p5896
S"<class 'gluon.html.TR'>"
p5897
sS'LI'
p5898
S"<class 'gluon.html.LI'>"
p5899
sS'right_sidebar_enabled'
p5900
g100
sS'ent'
p5901
S"'00:02:03'"
p5902
sS'TH'
p5903
S"<class 'gluon.html.TH'>"
p5904
sS'TD'
p5905
S"<class 'gluon.html.TD'>"
p5906
sS'PluginManager'
p5907
S"<class 'gluon.tools.PluginManager'>"
p5908
sS'IS_URL'
p5909
S"<class 'gluon.validators.IS_URL'>"
p5910
sS'A'
S"<class 'gluon.html.A'>"
p5911
sS'HEAD'
p5912
S"<class 'gluon.html.HEAD'>"
p5913
sS'IS_DATETIME_IN_RANGE'
p5914
S"<class 'gluon.validators.IS_DATETIME_IN_RANGE'>"
p5915
sS'FORM'
p5916
S"<class 'gluon.html.FORM'>"
p5917
sS'I'
S"<class 'gluon.html.I'>"
p5918
sS'crud'
p5919
S'<gluon.tools.Crud object>'
p5920
sS'IS_NOT_IN_DB'
p5921
S"<class 'gluon.validators.IS_NOT_IN_DB'>"
p5922
sg3852
S"<Storage {'body': <cStringIO.StringO object at 0...x7f858c0e2b18>, 'view': 'default/calendar.html'}>"
p5923
sS'THEAD'
p5924
S"<class 'gluon.html.THEAD'>"
p5925
sS'a'
S'<Rows (3)>'
p5926
sS'IS_NULL_OR'
p5927
S"<class 'gluon.validators.IS_EMPTY_OR'>"
p5928
sS'e'
S'<Rows (3)>'
p5929
sS'i'
S"<Row {'Description': ',mhnbnvnb', 'Title': 'ITWS...alendar': 'Work', 'DeadlineDate': None, 'id': 8}>"
p5930
sg56
S"<Storage {'function': 'calendar', 'body': <cStri...ons/IIIT_calendars/', 'post_vars': <Storage {}>}>"
p5931
sS'IS_EXPR'
p5932
S"<class 'gluon.validators.IS_EXPR'>"
p5933
sS'T'
S'<gluon.languages.translator object>'
p5934
sS'st'
p5935
S"'00:02:30'"
p5936
sS'IS_IN_SET'
p5937
S"<class 'gluon.validators.IS_IN_SET'>"
p5938
sS'IS_UPLOAD_FILENAME'
p5939
S"<class 'gluon.validators.IS_UPLOAD_FILENAME'>"
p5940
sS'IS_DECIMAL_IN_RANGE'
p5941
S"<class 'gluon.validators.IS_DECIMAL_IN_RANGE'>"
p5942
sssS'traceback'
p5943
S'Traceback (most recent call last):\n  File "/home/simran/web2py/gluon/restricted.py", line 212, in restricted\n    exec ccode in environment\n  File "/home/simran/web2py/applications/IIIT_calendars/views/default/calendar.html", line 157, in <module>\nIndexError: list index out of range\n'
p5944
s.