(dp1
S'output'
p2
S"<type 'exceptions.NameError'> name 'form' is not defined"
p3
sS'layer'
p4
S'/home/simran/web2py/applications/IIIT_calendars/views/default/edit_events.html'
p5
sS'code'
p6
S'response.write(\'<!DOCTYPE html>\\n<!-- paulirish.com/2008/conditional-stylesheets-vs-css-hacks-answer-neither/ -->\\n<!--[if lt IE 7]><html class="ie ie6 ie-lte9 ie-lte8 ie-lte7 no-js" lang="\', escape=False)\nresponse.write(T.accepted_language or \'en\')\nresponse.write(\'"> <![endif]-->\\n<!--[if IE 7]><html class="ie ie7 ie-lte9 ie-lte8 ie-lte7 no-js" lang="\', escape=False)\nresponse.write(T.accepted_language or \'en\')\nresponse.write(\'"> <![endif]-->\\n<!--[if IE 8]><html class="ie ie8 ie-lte9 ie-lte8 no-js" lang="\', escape=False)\nresponse.write(T.accepted_language or \'en\')\nresponse.write(\'"> <![endif]-->\\n<!--[if IE 9]><html class="ie9 ie-lte9 no-js" lang="\', escape=False)\nresponse.write(T.accepted_language or \'en\')\nresponse.write(\'"> <![endif]-->\\n<!--[if (gt IE 9)|!(IE)]><!--> <html class="no-js" lang="\', escape=False)\nresponse.write(T.accepted_language or \'en\')\nresponse.write(\'"> <!--<![endif]-->\\n<head>\\n  <meta charset="utf-8" />\\n  <!-- www.phpied.com/conditional-comments-block-downloads/ -->\\n  <!-- Always force latest IE rendering engine\\n       (even in intranet) & Chrome Frame\\n       Remove this if you use the .htaccess -->\\n \\n      <meta http-equiv="X-UA-Compatible" content="IE=edge\', escape=False)\nresponse.write(not request.is_local and \',chrome=1\' or \'\')\nresponse.write(\'">\\n      \\n\\n  <title>\', escape=False)\nresponse.write(response.title or request.application)\nresponse.write(\'</title>\\n\\n  <!-- http://dev.w3.org/html5/markup/meta.name.html -->\\n  <meta name="application-name" content="\', escape=False)\nresponse.write(request.application)\nresponse.write(\'" />\\n\\n  <!-- Speaking of Google, don\\\'t forget to set your site up:\\n       http://google.com/webmasters -->\\n  <meta name="google-site-verification" content="" />\\n\\n  <!--  Mobile Viewport Fix\\n        j.mp/mobileviewport & davidbcalhoun.com/2010/viewport-metatag\\n        device-width: Occupy full width of the screen in its current orientation\\n        initial-scale = 1.0 retains dimensions instead of zooming out if page height > device height\\n        user-scalable = yes allows the user to zoom in -->\\n  <meta name="viewport" content="width=device-width, initial-scale=1.0" />\\n\\n  <link rel="shortcut icon" href="\', escape=False)\nresponse.write(URL(\'static\',\'images/favicon.ico\'))\nresponse.write(\'" type="image/x-icon">\\n  <link rel="apple-touch-icon" href="\', escape=False)\nresponse.write(URL(\'static\',\'images/favicon.png\'))\nresponse.write(\'">\\n\\n  <!-- All JavaScript at the bottom, except for Modernizr which enables\\n       HTML5 elements & feature detects -->\\n  <!--script src="\', escape=False)\nresponse.write(URL(\'static\',\'js/modernizr.custom.js\'))\nresponse.write(\'"></script-->\\n <script src="\', escape=False)\nresponse.write(URL(request.application,\'static\',\'js/modernizr-1.6.min.js\'))\nresponse.write(\'"></script>\\n  <!-- include stylesheets -->\\n  \', escape=False)\nresponse.files.append(URL(\'static\',\'css/web2py.css\'))\nresponse.files.append(URL(\'static\',\'css/bootstrap.min.css\'))\nresponse.files.append(URL(\'static\',\'css/bootstrap-responsive.min.css\'))\nresponse.files.append(URL(\'static\',\'css/web2py_bootstrap.css\'))\nresponse.write(\'\\n\\n  \', escape=False)\nresponse.write(\'<script type="text/javascript"><!--\\n    // These variables are used by the web2py_ajax_init function in web2py_ajax.js (which is loaded below).\\n    var w2p_ajax_confirm_message = "\', escape=False)\nresponse.write(T(\'Are you sure you want to delete this object?\'))\nresponse.write(\'";\\n    var w2p_ajax_date_format = "\', escape=False)\nresponse.write(T(\'%Y-%m-%d\'))\nresponse.write(\'";\\n    var w2p_ajax_datetime_format = "\', escape=False)\nresponse.write(T(\'%Y-%m-%d %H:%M:%S\'))\nresponse.write(\'";\\n    //--></script>\\n\', escape=False)\nresponse.files.insert(0,URL(\'static\',\'js/jquery.js\'))\nresponse.files.insert(1,URL(\'static\',\'css/calendar.css\'))\nresponse.files.insert(2,URL(\'static\',\'js/calendar.js\'))\nresponse.files.insert(3,URL(\'static\',\'js/web2py.js\'))\nresponse.include_meta()\nresponse.include_files()\nresponse.write(\'\\n\', escape=False)\nresponse.write(\'\\n\\n  \', escape=False)\n# using sidebars need to know what sidebar you want to use\nleft_sidebar_enabled = globals().get(\'left_sidebar_enabled\',False)\nright_sidebar_enabled = globals().get(\'right_sidebar_enabled\',False)\nmiddle_columns = {0:\'span12\',1:\'span9\',2:\'span6\'}[\n(left_sidebar_enabled and 1 or 0)+(right_sidebar_enabled and 1 or 0)]\nresponse.write(\'\\n\\n  <!-- uncomment here to load jquery-ui\\n       <link rel="stylesheet" href="http://ajax.googleapis.com/ajax/libs/jqueryui/1.8.16/themes/base/jquery-ui.css" type="text/css" media="all" />\\n       <script src="http://ajax.googleapis.com/ajax/libs/jqueryui/1.8.16/jquery-ui.min.js" type="text/javascript"></script>\\n       uncomment to load jquery-ui //-->\\n  <noscript><link href="\', escape=False)\nresponse.write(URL(\'static\', \'css/web2py_bootstrap_nojs.css\'))\nresponse.write(\'" rel="stylesheet" type="text/css" /></noscript>\\n  \', escape=False)\nresponse.write(\'\\n</head>\\n\\n<!--body style="background-image:url(\', escape=False)\nresponse.write(URL(\'static\', \'images/a.jpg\'))\nresponse.write(\')"-->\\n  <body id="sg">\\n  <!-- Navbar ================================================== -->\\n    <div class="navbar navbar-inverse navbar-fixed-top">\\n    <div class="flash">\', escape=False)\nresponse.write(response.flash or \'\')\nresponse.write(\'</div>\\n    <div class="navbar-inner">\\n      <div class="container">\\n        \\n        <ul id="navbar" class="nav pull-right">\', escape=False)\nresponse.write(\'auth\' in globals() and auth.navbar(mode="dropdown") or \'\')\nresponse.write(\'</ul>\\n \\n      </div>\\n    </div>\\n  </div><!--/top navbar -->\\n\\n\\n  <div class="container">\\n    <!-- Masthead ================================================== removed-->\\n      <br/>\\n\\n    <section id="main" class="main row">\\n        \', escape=False)\nif left_sidebar_enabled:\n    response.write(\'\\n        <div class="span3 left-sidebar">\\n            \', escape=False)\n    response.write(\'\\n            <h3>Left Sidebar</h3>\\n            <p></p>\\n            \', escape=False)\n    response.write(\'\\n        </div>\\n        \', escape=False)\n    pass\nresponse.write(\'\\n\\n        <div class="\', escape=False)\nresponse.write(middle_columns)\nresponse.write(\'">\\n            \', escape=False)\nresponse.write(\'\\n            \', escape=False)\nresponse.write(\'\\n\', escape=False)\nresponse.write(form)\nresponse.write(\'\\n\', escape=False)\nresponse.write(\'\\n            \', escape=False)\nresponse.write(\'\\n        </div>\\n\\n        \', escape=False)\nif right_sidebar_enabled:\n    response.write(\'\\n        <div class="span3">\\n            \', escape=False)\n    response.write(\'\\n            <h3>Right Sidebar</h3>\\n            <p></p>\\n            \', escape=False)\n    response.write(\'\\n        </div>\\n        \', escape=False)\n    pass\nresponse.write(\'\\n    </section><!--/main-->\\n\\n    <!-- Footer ================================================== -->\\n    <div class="row">\\n        <footer class="footer span12" id="footer">\\n            <div class="footer-content">\\n                \', escape=False)\nresponse.write(\' <!-- this is default footer -->\\n                <div class="copyright pull-left">\', escape=False)\nresponse.write(T(\'Copyright\'))\nresponse.write(\' &#169; \', escape=False)\nresponse.write(request.now.year)\nresponse.write(\'</div>\\n                <div id="poweredBy" class="pull-right">\\n                    \', escape=False)\nresponse.write(T(\'Powered by\'))\nresponse.write(\'\\n                    <a href="http://www.web2py.com/">web2py</a>\\n                </div>\\n                \', escape=False)\nresponse.write(\'\\n            </div>\\n        </footer>\\n    </div>\\n\\n  </div> <!-- /container -->\\n\\n  <!-- The javascript =============================================\\n       (Placed at the end of the document so the pages load faster) -->\\n  <script src="\', escape=False)\nresponse.write(URL(\'static\',\'js/bootstrap.min.js\'))\nresponse.write(\'"></script>\\n  <script src="\', escape=False)\nresponse.write(URL(\'static\',\'js/web2py_bootstrap.js\'))\nresponse.write(\'"></script>\\n  <!--[if lt IE 7 ]>\\n      <script src="\', escape=False)\nresponse.write(URL(\'static\',\'js/dd_belatedpng.js\'))\nresponse.write(\'"></script>\\n      <script> DD_belatedPNG.fix(\\\'img, .png_bg\\\'); //fix any <img> or .png_bg background-images </script>\\n      <![endif]-->\\n  \\n  \', escape=False)\nif response.google_analytics_id:\n    response.write(\'\\n  <script src="\', escape=False)\n    response.write(URL(\'static\',\'js/analytics.js\'))\n    response.write(\'"></script>\\n  <script type="text/javascript">\\n  analytics.initialize({\\n    \\\'Google Analytics\\\':{trackingId:\\\'\', escape=False)\n    response.write(response.google_analytics_id)\n    response.write("\'} \\n  });</script>\\n  ", escape=False)\n    pass\nresponse.write(\'\\n  <script src="\', escape=False)\nresponse.write(URL(\'static\',\'js/share.js\',vars=dict(static=URL(\'static\',\'images\'))))\nresponse.write(\'"></script>\\n</body>\\n</html>\\n\', escape=False)'
p7
sS'snapshot'
p8
(dp9
S'exception'
p10
(dp11
S'__hash__'
p12
S"<method-wrapper '__hash__' of exceptions.NameError object>"
p13
sS'__setattr__'
p14
S"<method-wrapper '__setattr__' of exceptions.NameError object>"
p15
sS'__reduce_ex__'
p16
S'<built-in method __reduce_ex__ of exceptions.NameError object>'
p17
sS'__getslice__'
p18
S"<method-wrapper '__getslice__' of exceptions.NameError object>"
p19
sS'__getitem__'
p20
S"<method-wrapper '__getitem__' of exceptions.NameError object>"
p21
sS'__setstate__'
p22
S'<built-in method __setstate__ of exceptions.NameError object>'
p23
sS'args'
p24
S'("name \'form\' is not defined",)'
p25
sS'__reduce__'
p26
S'<built-in method __reduce__ of exceptions.NameError object>'
p27
sS'__str__'
p28
S"<method-wrapper '__str__' of exceptions.NameError object>"
p29
sS'__format__'
p30
S'<built-in method __format__ of exceptions.NameError object>'
p31
sS'__getattribute__'
p32
S"<method-wrapper '__getattribute__' of exceptions.NameError object>"
p33
sS'__class__'
p34
S"<type 'exceptions.NameError'>"
p35
sS'__unicode__'
p36
S'<built-in method __unicode__ of exceptions.NameError object>'
p37
sS'__delattr__'
p38
S"<method-wrapper '__delattr__' of exceptions.NameError object>"
p39
sS'__subclasshook__'
p40
S'<built-in method __subclasshook__ of type object>'
p41
sS'__repr__'
p42
S"<method-wrapper '__repr__' of exceptions.NameError object>"
p43
sS'__dict__'
p44
S'{}'
p45
sS'__sizeof__'
p46
S'<built-in method __sizeof__ of exceptions.NameError object>'
p47
sS'__doc__'
p48
S"'Name not found globally.'"
p49
sS'__init__'
p50
S"<method-wrapper '__init__' of exceptions.NameError object>"
p51
sS'__new__'
p52
S'<built-in method __new__ of type object>'
p53
ssS'evalue'
p54
S"name 'form' is not defined"
p55
sS'request'
p56
ccopy_reg
_reconstructor
p57
(cgluon.html
BEAUTIFY
p58
c__builtin__
object
p59
NtRp60
(dp61
S'attributes'
p62
(dp63
sS'components'
p64
(lp65
g57
(cgluon.html
TABLE
p66
g59
NtRp67
(dp68
g62
(dp69
S'level'
p70
I5
ssS'parent'
p71
Nsg64
(lp72
g57
(cgluon.html
TR
p73
g59
NtRp74
(dp75
g62
(dp76
sg71
g67
sg64
(lp77
g57
(cgluon.html
TD
p78
g59
NtRp79
(dp80
g62
(dp81
S'_style'
p82
S'font-weight:bold;vertical-align:top'
p83
ssg71
g74
sg64
(lp84
S'ajax'
p85
asbag57
(g78
g59
NtRp86
(dp87
g62
(dp88
S'_valign'
p89
S'top'
p90
ssg71
g74
sg64
(lp91
S':'
asbag57
(g78
g59
NtRp92
(dp93
g62
(dp94
sg71
g74
sg64
(lp95
g57
(g58
g59
NtRp96
(dp97
g62
(dp98
g70
I5
ssg71
g92
sg64
(lp99
S'False'
p100
asbasbasbag57
(g73
g59
NtRp101
(dp102
g62
(dp103
sg71
g67
sg64
(lp104
g57
(g78
g59
NtRp105
(dp106
g62
(dp107
g82
g83
ssg71
g101
sg64
(lp108
S'application'
p109
asbag57
(g78
g59
NtRp110
(dp111
g62
(dp112
g89
g90
ssg71
g101
sg64
(lp113
S':'
asbag57
(g78
g59
NtRp114
(dp115
g62
(dp116
sg71
g101
sg64
(lp117
g57
(g58
g59
NtRp118
(dp119
g62
(dp120
g70
I5
ssg71
g114
sg64
(lp121
S'IIIT_calendars'
p122
asbasbasbag57
(g73
g59
NtRp123
(dp124
g62
(dp125
sg71
g67
sg64
(lp126
g57
(g78
g59
NtRp127
(dp128
g62
(dp129
g82
g83
ssg71
g123
sg64
(lp130
g24
asbag57
(g78
g59
NtRp131
(dp132
g62
(dp133
g89
g90
ssg71
g123
sg64
(lp134
S':'
asbag57
(g78
g59
NtRp135
(dp136
g62
(dp137
sg71
g123
sg64
(lp138
g57
(g58
g59
NtRp139
(dp140
g62
(dp141
g70
I5
ssg71
g135
sg64
(lp142
g57
(g66
g59
NtRp143
(dp144
g62
(dp145
g70
I4
ssg71
Nsg64
(lp146
sbasbasbasbag57
(g73
g59
NtRp147
(dp148
g62
(dp149
sg71
g67
sg64
(lp150
g57
(g78
g59
NtRp151
(dp152
g62
(dp153
g82
g83
ssg71
g147
sg64
(lp154
S'body'
p155
asbag57
(g78
g59
NtRp156
(dp157
g62
(dp158
g89
g90
ssg71
g147
sg64
(lp159
S':'
asbag57
(g78
g59
NtRp160
(dp161
g62
(dp162
sg71
g147
sg64
(lp163
g57
(g58
g59
NtRp164
(dp165
g62
(dp166
g70
I5
ssg71
g160
sg64
(lp167
S"<open file '<fdopen>', mode 'w+b' at 0x7f6fd4115540>"
p168
asbasbasbag57
(g73
g59
NtRp169
(dp170
g62
(dp171
sg71
g67
sg64
(lp172
g57
(g78
g59
NtRp173
(dp174
g62
(dp175
g82
g83
ssg71
g169
sg64
(lp176
S'cid'
p177
asbag57
(g78
g59
NtRp178
(dp179
g62
(dp180
g89
g90
ssg71
g169
sg64
(lp181
S':'
asbag57
(g78
g59
NtRp182
(dp183
g62
(dp184
sg71
g169
sg64
(lp185
g57
(g58
g59
NtRp186
(dp187
g62
(dp188
g70
I5
ssg71
g182
sg64
(lp189
S'None'
p190
asbasbasbag57
(g73
g59
NtRp191
(dp192
g62
(dp193
sg71
g67
sg64
(lp194
g57
(g78
g59
NtRp195
(dp196
g62
(dp197
g82
g83
ssg71
g191
sg64
(lp198
S'client'
p199
asbag57
(g78
g59
NtRp200
(dp201
g62
(dp202
g89
g90
ssg71
g191
sg64
(lp203
S':'
asbag57
(g78
g59
NtRp204
(dp205
g62
(dp206
sg71
g191
sg64
(lp207
g57
(g58
g59
NtRp208
(dp209
g62
(dp210
g70
I5
ssg71
g204
sg64
(lp211
S'127.0.0.1'
p212
asbasbasbag57
(g73
g59
NtRp213
(dp214
g62
(dp215
sg71
g67
sg64
(lp216
g57
(g78
g59
NtRp217
(dp218
g62
(dp219
g82
g83
ssg71
g213
sg64
(lp220
S'controller'
p221
asbag57
(g78
g59
NtRp222
(dp223
g62
(dp224
g89
g90
ssg71
g213
sg64
(lp225
S':'
asbag57
(g78
g59
NtRp226
(dp227
g62
(dp228
sg71
g213
sg64
(lp229
g57
(g58
g59
NtRp230
(dp231
g62
(dp232
g70
I5
ssg71
g226
sg64
(lp233
S'default'
p234
asbasbasbag57
(g73
g59
NtRp235
(dp236
g62
(dp237
sg71
g67
sg64
(lp238
g57
(g78
g59
NtRp239
(dp240
g62
(dp241
g82
g83
ssg71
g235
sg64
(lp242
S'cookies'
p243
asbag57
(g78
g59
NtRp244
(dp245
g62
(dp246
g89
g90
ssg71
g235
sg64
(lp247
S':'
asbag57
(g78
g59
NtRp248
(dp249
g62
(dp250
sg71
g235
sg64
(lp251
g57
(g58
g59
NtRp252
(dp253
g62
(dp254
g70
I5
ssg71
g248
sg64
(lp255
g57
(g66
g59
NtRp256
(dp257
g62
(dp258
g70
I4
ssg71
Nsg64
(lp259
g57
(g73
g59
NtRp260
(dp261
g62
(dp262
sg71
g256
sg64
(lp263
g57
(g78
g59
NtRp264
(dp265
g62
(dp266
g82
g83
ssg71
g260
sg64
(lp267
S'session_id_admin'
p268
asbag57
(g78
g59
NtRp269
(dp270
g62
(dp271
g89
g90
ssg71
g260
sg64
(lp272
S':'
asbag57
(g78
g59
NtRp273
(dp274
g62
(dp275
sg71
g260
sg64
(lp276
g57
(g58
g59
NtRp277
(dp278
g62
(dp279
g70
I4
ssg71
g273
sg64
(lp280
S'127.0.0.1-801e5f78-033a-48d6-866e-01e86a808dda'
p281
ag57
(g66
g59
NtRp282
(dp283
g62
(dp284
g70
I3
ssg71
Nsg64
(lp285
g57
(g73
g59
NtRp286
(dp287
g62
(dp288
sg71
g282
sg64
(lp289
g57
(g78
g59
NtRp290
(dp291
g62
(dp292
g82
g83
ssg71
g286
sg64
(lp293
S'comment'
p294
asbag57
(g78
g59
NtRp295
(dp296
g62
(dp297
g89
g90
ssg71
g286
sg64
(lp298
S':'
asbag57
(g78
g59
NtRp299
(dp300
g62
(dp301
sg71
g286
sg64
(lp302
g57
(g58
g59
NtRp303
(dp304
g62
(dp305
g70
I3
ssg71
g299
sg64
(lp306
S''
asbasbasbag57
(g73
g59
NtRp307
(dp308
g62
(dp309
sg71
g282
sg64
(lp310
g57
(g78
g59
NtRp311
(dp312
g62
(dp313
g82
g83
ssg71
g307
sg64
(lp314
S'domain'
p315
asbag57
(g78
g59
NtRp316
(dp317
g62
(dp318
g89
g90
ssg71
g307
sg64
(lp319
S':'
asbag57
(g78
g59
NtRp320
(dp321
g62
(dp322
sg71
g307
sg64
(lp323
g57
(g58
g59
NtRp324
(dp325
g62
(dp326
g70
I3
ssg71
g320
sg64
(lp327
S''
asbasbasbag57
(g73
g59
NtRp328
(dp329
g62
(dp330
sg71
g282
sg64
(lp331
g57
(g78
g59
NtRp332
(dp333
g62
(dp334
g82
g83
ssg71
g328
sg64
(lp335
S'expires'
p336
asbag57
(g78
g59
NtRp337
(dp338
g62
(dp339
g89
g90
ssg71
g328
sg64
(lp340
S':'
asbag57
(g78
g59
NtRp341
(dp342
g62
(dp343
sg71
g328
sg64
(lp344
g57
(g58
g59
NtRp345
(dp346
g62
(dp347
g70
I3
ssg71
g341
sg64
(lp348
S''
asbasbasbag57
(g73
g59
NtRp349
(dp350
g62
(dp351
sg71
g282
sg64
(lp352
g57
(g78
g59
NtRp353
(dp354
g62
(dp355
g82
g83
ssg71
g349
sg64
(lp356
S'httponly'
p357
asbag57
(g78
g59
NtRp358
(dp359
g62
(dp360
g89
g90
ssg71
g349
sg64
(lp361
S':'
asbag57
(g78
g59
NtRp362
(dp363
g62
(dp364
sg71
g349
sg64
(lp365
g57
(g58
g59
NtRp366
(dp367
g62
(dp368
g70
I3
ssg71
g362
sg64
(lp369
S''
asbasbasbag57
(g73
g59
NtRp370
(dp371
g62
(dp372
sg71
g282
sg64
(lp373
g57
(g78
g59
NtRp374
(dp375
g62
(dp376
g82
g83
ssg71
g370
sg64
(lp377
S'max-age'
p378
asbag57
(g78
g59
NtRp379
(dp380
g62
(dp381
g89
g90
ssg71
g370
sg64
(lp382
S':'
asbag57
(g78
g59
NtRp383
(dp384
g62
(dp385
sg71
g370
sg64
(lp386
g57
(g58
g59
NtRp387
(dp388
g62
(dp389
g70
I3
ssg71
g383
sg64
(lp390
S''
asbasbasbag57
(g73
g59
NtRp391
(dp392
g62
(dp393
sg71
g282
sg64
(lp394
g57
(g78
g59
NtRp395
(dp396
g62
(dp397
g82
g83
ssg71
g391
sg64
(lp398
S'path'
p399
asbag57
(g78
g59
NtRp400
(dp401
g62
(dp402
g89
g90
ssg71
g391
sg64
(lp403
S':'
asbag57
(g78
g59
NtRp404
(dp405
g62
(dp406
sg71
g391
sg64
(lp407
g57
(g58
g59
NtRp408
(dp409
g62
(dp410
g70
I3
ssg71
g404
sg64
(lp411
S''
asbasbasbag57
(g73
g59
NtRp412
(dp413
g62
(dp414
sg71
g282
sg64
(lp415
g57
(g78
g59
NtRp416
(dp417
g62
(dp418
g82
g83
ssg71
g412
sg64
(lp419
S'secure'
p420
asbag57
(g78
g59
NtRp421
(dp422
g62
(dp423
g89
g90
ssg71
g412
sg64
(lp424
S':'
asbag57
(g78
g59
NtRp425
(dp426
g62
(dp427
sg71
g412
sg64
(lp428
g57
(g58
g59
NtRp429
(dp430
g62
(dp431
g70
I3
ssg71
g425
sg64
(lp432
S''
asbasbasbag57
(g73
g59
NtRp433
(dp434
g62
(dp435
sg71
g282
sg64
(lp436
g57
(g78
g59
NtRp437
(dp438
g62
(dp439
g82
g83
ssg71
g433
sg64
(lp440
S'version'
p441
asbag57
(g78
g59
NtRp442
(dp443
g62
(dp444
g89
g90
ssg71
g433
sg64
(lp445
S':'
asbag57
(g78
g59
NtRp446
(dp447
g62
(dp448
sg71
g433
sg64
(lp449
g57
(g58
g59
NtRp450
(dp451
g62
(dp452
g70
I3
ssg71
g446
sg64
(lp453
S''
asbasbasbasbasbasbasbag57
(g73
g59
NtRp454
(dp455
g62
(dp456
sg71
g256
sg64
(lp457
g57
(g78
g59
NtRp458
(dp459
g62
(dp460
g82
g83
ssg71
g454
sg64
(lp461
S'session_id_iiit_calendars'
p462
asbag57
(g78
g59
NtRp463
(dp464
g62
(dp465
g89
g90
ssg71
g454
sg64
(lp466
S':'
asbag57
(g78
g59
NtRp467
(dp468
g62
(dp469
sg71
g454
sg64
(lp470
g57
(g58
g59
NtRp471
(dp472
g62
(dp473
g70
I4
ssg71
g467
sg64
(lp474
S'127.0.0.1-b512d376-91dc-477e-99ca-2b27d7ad4a7a'
p475
ag57
(g66
g59
NtRp476
(dp477
g62
(dp478
g70
I3
ssg71
Nsg64
(lp479
g57
(g73
g59
NtRp480
(dp481
g62
(dp482
sg71
g476
sg64
(lp483
g57
(g78
g59
NtRp484
(dp485
g62
(dp486
g82
g83
ssg71
g480
sg64
(lp487
g294
asbag57
(g78
g59
NtRp488
(dp489
g62
(dp490
g89
g90
ssg71
g480
sg64
(lp491
S':'
asbag57
(g78
g59
NtRp492
(dp493
g62
(dp494
sg71
g480
sg64
(lp495
g57
(g58
g59
NtRp496
(dp497
g62
(dp498
g70
I3
ssg71
g492
sg64
(lp499
S''
asbasbasbag57
(g73
g59
NtRp500
(dp501
g62
(dp502
sg71
g476
sg64
(lp503
g57
(g78
g59
NtRp504
(dp505
g62
(dp506
g82
g83
ssg71
g500
sg64
(lp507
g315
asbag57
(g78
g59
NtRp508
(dp509
g62
(dp510
g89
g90
ssg71
g500
sg64
(lp511
S':'
asbag57
(g78
g59
NtRp512
(dp513
g62
(dp514
sg71
g500
sg64
(lp515
g57
(g58
g59
NtRp516
(dp517
g62
(dp518
g70
I3
ssg71
g512
sg64
(lp519
S''
asbasbasbag57
(g73
g59
NtRp520
(dp521
g62
(dp522
sg71
g476
sg64
(lp523
g57
(g78
g59
NtRp524
(dp525
g62
(dp526
g82
g83
ssg71
g520
sg64
(lp527
g336
asbag57
(g78
g59
NtRp528
(dp529
g62
(dp530
g89
g90
ssg71
g520
sg64
(lp531
S':'
asbag57
(g78
g59
NtRp532
(dp533
g62
(dp534
sg71
g520
sg64
(lp535
g57
(g58
g59
NtRp536
(dp537
g62
(dp538
g70
I3
ssg71
g532
sg64
(lp539
S''
asbasbasbag57
(g73
g59
NtRp540
(dp541
g62
(dp542
sg71
g476
sg64
(lp543
g57
(g78
g59
NtRp544
(dp545
g62
(dp546
g82
g83
ssg71
g540
sg64
(lp547
g357
asbag57
(g78
g59
NtRp548
(dp549
g62
(dp550
g89
g90
ssg71
g540
sg64
(lp551
S':'
asbag57
(g78
g59
NtRp552
(dp553
g62
(dp554
sg71
g540
sg64
(lp555
g57
(g58
g59
NtRp556
(dp557
g62
(dp558
g70
I3
ssg71
g552
sg64
(lp559
S''
asbasbasbag57
(g73
g59
NtRp560
(dp561
g62
(dp562
sg71
g476
sg64
(lp563
g57
(g78
g59
NtRp564
(dp565
g62
(dp566
g82
g83
ssg71
g560
sg64
(lp567
g378
asbag57
(g78
g59
NtRp568
(dp569
g62
(dp570
g89
g90
ssg71
g560
sg64
(lp571
S':'
asbag57
(g78
g59
NtRp572
(dp573
g62
(dp574
sg71
g560
sg64
(lp575
g57
(g58
g59
NtRp576
(dp577
g62
(dp578
g70
I3
ssg71
g572
sg64
(lp579
S''
asbasbasbag57
(g73
g59
NtRp580
(dp581
g62
(dp582
sg71
g476
sg64
(lp583
g57
(g78
g59
NtRp584
(dp585
g62
(dp586
g82
g83
ssg71
g580
sg64
(lp587
g399
asbag57
(g78
g59
NtRp588
(dp589
g62
(dp590
g89
g90
ssg71
g580
sg64
(lp591
S':'
asbag57
(g78
g59
NtRp592
(dp593
g62
(dp594
sg71
g580
sg64
(lp595
g57
(g58
g59
NtRp596
(dp597
g62
(dp598
g70
I3
ssg71
g592
sg64
(lp599
S''
asbasbasbag57
(g73
g59
NtRp600
(dp601
g62
(dp602
sg71
g476
sg64
(lp603
g57
(g78
g59
NtRp604
(dp605
g62
(dp606
g82
g83
ssg71
g600
sg64
(lp607
g420
asbag57
(g78
g59
NtRp608
(dp609
g62
(dp610
g89
g90
ssg71
g600
sg64
(lp611
S':'
asbag57
(g78
g59
NtRp612
(dp613
g62
(dp614
sg71
g600
sg64
(lp615
g57
(g58
g59
NtRp616
(dp617
g62
(dp618
g70
I3
ssg71
g612
sg64
(lp619
S''
asbasbasbag57
(g73
g59
NtRp620
(dp621
g62
(dp622
sg71
g476
sg64
(lp623
g57
(g78
g59
NtRp624
(dp625
g62
(dp626
g82
g83
ssg71
g620
sg64
(lp627
g441
asbag57
(g78
g59
NtRp628
(dp629
g62
(dp630
g89
g90
ssg71
g620
sg64
(lp631
S':'
asbag57
(g78
g59
NtRp632
(dp633
g62
(dp634
sg71
g620
sg64
(lp635
g57
(g58
g59
NtRp636
(dp637
g62
(dp638
g70
I3
ssg71
g632
sg64
(lp639
S''
asbasbasbasbasbasbasbag57
(g73
g59
NtRp640
(dp641
g62
(dp642
sg71
g256
sg64
(lp643
g57
(g78
g59
NtRp644
(dp645
g62
(dp646
g82
g83
ssg71
g640
sg64
(lp647
S'session_id_welcome'
p648
asbag57
(g78
g59
NtRp649
(dp650
g62
(dp651
g89
g90
ssg71
g640
sg64
(lp652
S':'
asbag57
(g78
g59
NtRp653
(dp654
g62
(dp655
sg71
g640
sg64
(lp656
g57
(g58
g59
NtRp657
(dp658
g62
(dp659
g70
I4
ssg71
g653
sg64
(lp660
S'127.0.0.1-63e75989-5c9b-4e21-8376-c640fec67f50'
p661
ag57
(g66
g59
NtRp662
(dp663
g62
(dp664
g70
I3
ssg71
Nsg64
(lp665
g57
(g73
g59
NtRp666
(dp667
g62
(dp668
sg71
g662
sg64
(lp669
g57
(g78
g59
NtRp670
(dp671
g62
(dp672
g82
g83
ssg71
g666
sg64
(lp673
g294
asbag57
(g78
g59
NtRp674
(dp675
g62
(dp676
g89
g90
ssg71
g666
sg64
(lp677
S':'
asbag57
(g78
g59
NtRp678
(dp679
g62
(dp680
sg71
g666
sg64
(lp681
g57
(g58
g59
NtRp682
(dp683
g62
(dp684
g70
I3
ssg71
g678
sg64
(lp685
S''
asbasbasbag57
(g73
g59
NtRp686
(dp687
g62
(dp688
sg71
g662
sg64
(lp689
g57
(g78
g59
NtRp690
(dp691
g62
(dp692
g82
g83
ssg71
g686
sg64
(lp693
g315
asbag57
(g78
g59
NtRp694
(dp695
g62
(dp696
g89
g90
ssg71
g686
sg64
(lp697
S':'
asbag57
(g78
g59
NtRp698
(dp699
g62
(dp700
sg71
g686
sg64
(lp701
g57
(g58
g59
NtRp702
(dp703
g62
(dp704
g70
I3
ssg71
g698
sg64
(lp705
S''
asbasbasbag57
(g73
g59
NtRp706
(dp707
g62
(dp708
sg71
g662
sg64
(lp709
g57
(g78
g59
NtRp710
(dp711
g62
(dp712
g82
g83
ssg71
g706
sg64
(lp713
g336
asbag57
(g78
g59
NtRp714
(dp715
g62
(dp716
g89
g90
ssg71
g706
sg64
(lp717
S':'
asbag57
(g78
g59
NtRp718
(dp719
g62
(dp720
sg71
g706
sg64
(lp721
g57
(g58
g59
NtRp722
(dp723
g62
(dp724
g70
I3
ssg71
g718
sg64
(lp725
S''
asbasbasbag57
(g73
g59
NtRp726
(dp727
g62
(dp728
sg71
g662
sg64
(lp729
g57
(g78
g59
NtRp730
(dp731
g62
(dp732
g82
g83
ssg71
g726
sg64
(lp733
g357
asbag57
(g78
g59
NtRp734
(dp735
g62
(dp736
g89
g90
ssg71
g726
sg64
(lp737
S':'
asbag57
(g78
g59
NtRp738
(dp739
g62
(dp740
sg71
g726
sg64
(lp741
g57
(g58
g59
NtRp742
(dp743
g62
(dp744
g70
I3
ssg71
g738
sg64
(lp745
S''
asbasbasbag57
(g73
g59
NtRp746
(dp747
g62
(dp748
sg71
g662
sg64
(lp749
g57
(g78
g59
NtRp750
(dp751
g62
(dp752
g82
g83
ssg71
g746
sg64
(lp753
g378
asbag57
(g78
g59
NtRp754
(dp755
g62
(dp756
g89
g90
ssg71
g746
sg64
(lp757
S':'
asbag57
(g78
g59
NtRp758
(dp759
g62
(dp760
sg71
g746
sg64
(lp761
g57
(g58
g59
NtRp762
(dp763
g62
(dp764
g70
I3
ssg71
g758
sg64
(lp765
S''
asbasbasbag57
(g73
g59
NtRp766
(dp767
g62
(dp768
sg71
g662
sg64
(lp769
g57
(g78
g59
NtRp770
(dp771
g62
(dp772
g82
g83
ssg71
g766
sg64
(lp773
g399
asbag57
(g78
g59
NtRp774
(dp775
g62
(dp776
g89
g90
ssg71
g766
sg64
(lp777
S':'
asbag57
(g78
g59
NtRp778
(dp779
g62
(dp780
sg71
g766
sg64
(lp781
g57
(g58
g59
NtRp782
(dp783
g62
(dp784
g70
I3
ssg71
g778
sg64
(lp785
S''
asbasbasbag57
(g73
g59
NtRp786
(dp787
g62
(dp788
sg71
g662
sg64
(lp789
g57
(g78
g59
NtRp790
(dp791
g62
(dp792
g82
g83
ssg71
g786
sg64
(lp793
g420
asbag57
(g78
g59
NtRp794
(dp795
g62
(dp796
g89
g90
ssg71
g786
sg64
(lp797
S':'
asbag57
(g78
g59
NtRp798
(dp799
g62
(dp800
sg71
g786
sg64
(lp801
g57
(g58
g59
NtRp802
(dp803
g62
(dp804
g70
I3
ssg71
g798
sg64
(lp805
S''
asbasbasbag57
(g73
g59
NtRp806
(dp807
g62
(dp808
sg71
g662
sg64
(lp809
g57
(g78
g59
NtRp810
(dp811
g62
(dp812
g82
g83
ssg71
g806
sg64
(lp813
g441
asbag57
(g78
g59
NtRp814
(dp815
g62
(dp816
g89
g90
ssg71
g806
sg64
(lp817
S':'
asbag57
(g78
g59
NtRp818
(dp819
g62
(dp820
sg71
g806
sg64
(lp821
g57
(g58
g59
NtRp822
(dp823
g62
(dp824
g70
I3
ssg71
g818
sg64
(lp825
S''
asbasbasbasbasbasbasbasbasbasbasbag57
(g73
g59
NtRp826
(dp827
g62
(dp828
sg71
g67
sg64
(lp829
g57
(g78
g59
NtRp830
(dp831
g62
(dp832
g82
g83
ssg71
g826
sg64
(lp833
S'env'
p834
asbag57
(g78
g59
NtRp835
(dp836
g62
(dp837
g89
g90
ssg71
g826
sg64
(lp838
S':'
asbag57
(g78
g59
NtRp839
(dp840
g62
(dp841
sg71
g826
sg64
(lp842
g57
(g58
g59
NtRp843
(dp844
g62
(dp845
g70
I5
ssg71
g839
sg64
(lp846
g57
(g66
g59
NtRp847
(dp848
g62
(dp849
g70
I4
ssg71
Nsg64
(lp850
g57
(g73
g59
NtRp851
(dp852
g62
(dp853
sg71
g847
sg64
(lp854
g57
(g78
g59
NtRp855
(dp856
g62
(dp857
g82
g83
ssg71
g851
sg64
(lp858
S'app_folders'
p859
asbag57
(g78
g59
NtRp860
(dp861
g62
(dp862
g89
g90
ssg71
g851
sg64
(lp863
S':'
asbag57
(g78
g59
NtRp864
(dp865
g62
(dp866
sg71
g851
sg64
(lp867
g57
(g58
g59
NtRp868
(dp869
g62
(dp870
g70
I4
ssg71
g864
sg64
(lp871
S"set(['/home/simran/web2py/applications/welcome/', '/home/simran/web2py/applications/IIIT_calendars/', '/home/simran/web2py/applications/admin/'])"
p872
asbasbasbag57
(g73
g59
NtRp873
(dp874
g62
(dp875
sg71
g847
sg64
(lp876
g57
(g78
g59
NtRp877
(dp878
g62
(dp879
g82
g83
ssg71
g873
sg64
(lp880
S'applications_parent'
p881
asbag57
(g78
g59
NtRp882
(dp883
g62
(dp884
g89
g90
ssg71
g873
sg64
(lp885
S':'
asbag57
(g78
g59
NtRp886
(dp887
g62
(dp888
sg71
g873
sg64
(lp889
g57
(g58
g59
NtRp890
(dp891
g62
(dp892
g70
I4
ssg71
g886
sg64
(lp893
S'/home/simran/web2py'
p894
asbasbasbag57
(g73
g59
NtRp895
(dp896
g62
(dp897
sg71
g847
sg64
(lp898
g57
(g78
g59
NtRp899
(dp900
g62
(dp901
g82
g83
ssg71
g895
sg64
(lp902
S'cmd_args'
p903
asbag57
(g78
g59
NtRp904
(dp905
g62
(dp906
g89
g90
ssg71
g895
sg64
(lp907
S':'
asbag57
(g78
g59
NtRp908
(dp909
g62
(dp910
sg71
g895
sg64
(lp911
g57
(g58
g59
NtRp912
(dp913
g62
(dp914
g70
I4
ssg71
g908
sg64
(lp915
g57
(g66
g59
NtRp916
(dp917
g62
(dp918
g70
I3
ssg71
Nsg64
(lp919
sbasbasbasbag57
(g73
g59
NtRp920
(dp921
g62
(dp922
sg71
g847
sg64
(lp923
g57
(g78
g59
NtRp924
(dp925
g62
(dp926
g82
g83
ssg71
g920
sg64
(lp927
S'cmd_options'
p928
asbag57
(g78
g59
NtRp929
(dp930
g62
(dp931
g89
g90
ssg71
g920
sg64
(lp932
S':'
asbag57
(g78
g59
NtRp933
(dp934
g62
(dp935
sg71
g920
sg64
(lp936
g57
(g58
g59
NtRp937
(dp938
g62
(dp939
g70
I4
ssg71
g933
sg64
(lp940
S"<Values at 0x2bbe7e8: {'verbose': False, 'ip': '127.0.0.1', 'with_scheduler': False, 'ips': [], 'shutdown_timeout': 5, 'taskbar': False, 'port': 8000, 'maxthreads': None, 'softcron': False, 'server_name': 'ubuntu', 'bpython': False, 'nogui': False, 'pid_filename': 'httpserver.pid', 'extcron': False, 'runcron': False, 'run_system_tests': False, 'test': None, 'folder': '/home/simran/web2py', 'config': '', 'minthreads': None, 'winservice': '', 'shell': None, 'run': '', 'log_filename': 'httpserver.log', 'debuglevel': 30, 'args': [''], 'socket_timeout': 5, 'ssl_ca_certificate': None, 'scheduler': None, 'profiler_filename': None, 'ssl_private_key': '', 'scheduler_groups': None, 'password': '<ask>', 'request_queue_size': 5, 'ssl_certificate': '', 'cronjob': False, 'numthreads': None, 'quiet': False, 'interfaces': None, 'import_models': False, 'timeout': 10, 'plain': False, 'nobanner': False}>"
p941
asbasbasbag57
(g73
g59
NtRp942
(dp943
g62
(dp944
sg71
g847
sg64
(lp945
g57
(g78
g59
NtRp946
(dp947
g62
(dp948
g82
g83
ssg71
g942
sg64
(lp949
S'content_length'
p950
asbag57
(g78
g59
NtRp951
(dp952
g62
(dp953
g89
g90
ssg71
g942
sg64
(lp954
S':'
asbag57
(g78
g59
NtRp955
(dp956
g62
(dp957
sg71
g942
sg64
(lp958
g57
(g58
g59
NtRp959
(dp960
g62
(dp961
g70
I4
ssg71
g955
sg64
(lp962
S'26'
p963
asbasbasbag57
(g73
g59
NtRp964
(dp965
g62
(dp966
sg71
g847
sg64
(lp967
g57
(g78
g59
NtRp968
(dp969
g62
(dp970
g82
g83
ssg71
g964
sg64
(lp971
S'content_type'
p972
asbag57
(g78
g59
NtRp973
(dp974
g62
(dp975
g89
g90
ssg71
g964
sg64
(lp976
S':'
asbag57
(g78
g59
NtRp977
(dp978
g62
(dp979
sg71
g964
sg64
(lp980
g57
(g58
g59
NtRp981
(dp982
g62
(dp983
g70
I4
ssg71
g977
sg64
(lp984
S'application/x-www-form-urlencoded'
p985
asbasbasbag57
(g73
g59
NtRp986
(dp987
g62
(dp988
sg71
g847
sg64
(lp989
g57
(g78
g59
NtRp990
(dp991
g62
(dp992
g82
g83
ssg71
g986
sg64
(lp993
S'db_sessions'
p994
asbag57
(g78
g59
NtRp995
(dp996
g62
(dp997
g89
g90
ssg71
g986
sg64
(lp998
S':'
asbag57
(g78
g59
NtRp999
(dp1000
g62
(dp1001
sg71
g986
sg64
(lp1002
g57
(g58
g59
NtRp1003
(dp1004
g62
(dp1005
g70
I4
ssg71
g999
sg64
(lp1006
S'set([])'
p1007
asbasbasbag57
(g73
g59
NtRp1008
(dp1009
g62
(dp1010
sg71
g847
sg64
(lp1011
g57
(g78
g59
NtRp1012
(dp1013
g62
(dp1014
g82
g83
ssg71
g1008
sg64
(lp1015
S'debugging'
p1016
asbag57
(g78
g59
NtRp1017
(dp1018
g62
(dp1019
g89
g90
ssg71
g1008
sg64
(lp1020
S':'
asbag57
(g78
g59
NtRp1021
(dp1022
g62
(dp1023
sg71
g1008
sg64
(lp1024
g57
(g58
g59
NtRp1025
(dp1026
g62
(dp1027
g70
I4
ssg71
g1021
sg64
(lp1028
g100
asbasbasbag57
(g73
g59
NtRp1029
(dp1030
g62
(dp1031
sg71
g847
sg64
(lp1032
g57
(g78
g59
NtRp1033
(dp1034
g62
(dp1035
g82
g83
ssg71
g1029
sg64
(lp1036
S'gluon_parent'
p1037
asbag57
(g78
g59
NtRp1038
(dp1039
g62
(dp1040
g89
g90
ssg71
g1029
sg64
(lp1041
S':'
asbag57
(g78
g59
NtRp1042
(dp1043
g62
(dp1044
sg71
g1029
sg64
(lp1045
g57
(g58
g59
NtRp1046
(dp1047
g62
(dp1048
g70
I4
ssg71
g1042
sg64
(lp1049
S'/home/simran/web2py'
p1050
asbasbasbag57
(g73
g59
NtRp1051
(dp1052
g62
(dp1053
sg71
g847
sg64
(lp1054
g57
(g78
g59
NtRp1055
(dp1056
g62
(dp1057
g82
g83
ssg71
g1051
sg64
(lp1058
S'http_accept'
p1059
asbag57
(g78
g59
NtRp1060
(dp1061
g62
(dp1062
g89
g90
ssg71
g1051
sg64
(lp1063
S':'
asbag57
(g78
g59
NtRp1064
(dp1065
g62
(dp1066
sg71
g1051
sg64
(lp1067
g57
(g58
g59
NtRp1068
(dp1069
g62
(dp1070
g70
I4
ssg71
g1064
sg64
(lp1071
S'text/html,application/xhtml+xml,application/xml;q=0.9,*/*;q=0.8'
p1072
asbasbasbag57
(g73
g59
NtRp1073
(dp1074
g62
(dp1075
sg71
g847
sg64
(lp1076
g57
(g78
g59
NtRp1077
(dp1078
g62
(dp1079
g82
g83
ssg71
g1073
sg64
(lp1080
S'http_accept_encoding'
p1081
asbag57
(g78
g59
NtRp1082
(dp1083
g62
(dp1084
g89
g90
ssg71
g1073
sg64
(lp1085
S':'
asbag57
(g78
g59
NtRp1086
(dp1087
g62
(dp1088
sg71
g1073
sg64
(lp1089
g57
(g58
g59
NtRp1090
(dp1091
g62
(dp1092
g70
I4
ssg71
g1086
sg64
(lp1093
S'gzip, deflate'
p1094
asbasbasbag57
(g73
g59
NtRp1095
(dp1096
g62
(dp1097
sg71
g847
sg64
(lp1098
g57
(g78
g59
NtRp1099
(dp1100
g62
(dp1101
g82
g83
ssg71
g1095
sg64
(lp1102
S'http_accept_language'
p1103
asbag57
(g78
g59
NtRp1104
(dp1105
g62
(dp1106
g89
g90
ssg71
g1095
sg64
(lp1107
S':'
asbag57
(g78
g59
NtRp1108
(dp1109
g62
(dp1110
sg71
g1095
sg64
(lp1111
g57
(g58
g59
NtRp1112
(dp1113
g62
(dp1114
g70
I4
ssg71
g1108
sg64
(lp1115
S'en-US,en;q=0.5'
p1116
asbasbasbag57
(g73
g59
NtRp1117
(dp1118
g62
(dp1119
sg71
g847
sg64
(lp1120
g57
(g78
g59
NtRp1121
(dp1122
g62
(dp1123
g82
g83
ssg71
g1117
sg64
(lp1124
S'http_connection'
p1125
asbag57
(g78
g59
NtRp1126
(dp1127
g62
(dp1128
g89
g90
ssg71
g1117
sg64
(lp1129
S':'
asbag57
(g78
g59
NtRp1130
(dp1131
g62
(dp1132
sg71
g1117
sg64
(lp1133
g57
(g58
g59
NtRp1134
(dp1135
g62
(dp1136
g70
I4
ssg71
g1130
sg64
(lp1137
S'keep-alive'
p1138
asbasbasbag57
(g73
g59
NtRp1139
(dp1140
g62
(dp1141
sg71
g847
sg64
(lp1142
g57
(g78
g59
NtRp1143
(dp1144
g62
(dp1145
g82
g83
ssg71
g1139
sg64
(lp1146
S'http_content_length'
p1147
asbag57
(g78
g59
NtRp1148
(dp1149
g62
(dp1150
g89
g90
ssg71
g1139
sg64
(lp1151
S':'
asbag57
(g78
g59
NtRp1152
(dp1153
g62
(dp1154
sg71
g1139
sg64
(lp1155
g57
(g58
g59
NtRp1156
(dp1157
g62
(dp1158
g70
I4
ssg71
g1152
sg64
(lp1159
g963
asbasbasbag57
(g73
g59
NtRp1160
(dp1161
g62
(dp1162
sg71
g847
sg64
(lp1163
g57
(g78
g59
NtRp1164
(dp1165
g62
(dp1166
g82
g83
ssg71
g1160
sg64
(lp1167
S'http_content_type'
p1168
asbag57
(g78
g59
NtRp1169
(dp1170
g62
(dp1171
g89
g90
ssg71
g1160
sg64
(lp1172
S':'
asbag57
(g78
g59
NtRp1173
(dp1174
g62
(dp1175
sg71
g1160
sg64
(lp1176
g57
(g58
g59
NtRp1177
(dp1178
g62
(dp1179
g70
I4
ssg71
g1173
sg64
(lp1180
g985
asbasbasbag57
(g73
g59
NtRp1181
(dp1182
g62
(dp1183
sg71
g847
sg64
(lp1184
g57
(g78
g59
NtRp1185
(dp1186
g62
(dp1187
g82
g83
ssg71
g1181
sg64
(lp1188
S'http_cookie'
p1189
asbag57
(g78
g59
NtRp1190
(dp1191
g62
(dp1192
g89
g90
ssg71
g1181
sg64
(lp1193
S':'
asbag57
(g78
g59
NtRp1194
(dp1195
g62
(dp1196
sg71
g1181
sg64
(lp1197
g57
(g58
g59
NtRp1198
(dp1199
g62
(dp1200
g70
I4
ssg71
g1194
sg64
(lp1201
S'session_id_welcome=127.0.0.1-63e75989-5c9b-4e21-8376-c640fec67f50; session_id_admin=127.0.0.1-801e5f78-033a-48d6-866e-01e86a808dda; session_id_iiit_calendars=127.0.0.1-b512d376-91dc-477e-99ca-2b27d7ad4a7a'
p1202
asbasbasbag57
(g73
g59
NtRp1203
(dp1204
g62
(dp1205
sg71
g847
sg64
(lp1206
g57
(g78
g59
NtRp1207
(dp1208
g62
(dp1209
g82
g83
ssg71
g1203
sg64
(lp1210
S'http_host'
p1211
asbag57
(g78
g59
NtRp1212
(dp1213
g62
(dp1214
g89
g90
ssg71
g1203
sg64
(lp1215
S':'
asbag57
(g78
g59
NtRp1216
(dp1217
g62
(dp1218
sg71
g1203
sg64
(lp1219
g57
(g58
g59
NtRp1220
(dp1221
g62
(dp1222
g70
I4
ssg71
g1216
sg64
(lp1223
S'127.0.0.1:8000'
p1224
asbasbasbag57
(g73
g59
NtRp1225
(dp1226
g62
(dp1227
sg71
g847
sg64
(lp1228
g57
(g78
g59
NtRp1229
(dp1230
g62
(dp1231
g82
g83
ssg71
g1225
sg64
(lp1232
S'http_referer'
p1233
asbag57
(g78
g59
NtRp1234
(dp1235
g62
(dp1236
g89
g90
ssg71
g1225
sg64
(lp1237
S':'
asbag57
(g78
g59
NtRp1238
(dp1239
g62
(dp1240
sg71
g1225
sg64
(lp1241
g57
(g58
g59
NtRp1242
(dp1243
g62
(dp1244
g70
I4
ssg71
g1238
sg64
(lp1245
S'http://127.0.0.1:8000/IIIT_calendars/default/editeventdetails.html'
p1246
asbasbasbag57
(g73
g59
NtRp1247
(dp1248
g62
(dp1249
sg71
g847
sg64
(lp1250
g57
(g78
g59
NtRp1251
(dp1252
g62
(dp1253
g82
g83
ssg71
g1247
sg64
(lp1254
S'http_user_agent'
p1255
asbag57
(g78
g59
NtRp1256
(dp1257
g62
(dp1258
g89
g90
ssg71
g1247
sg64
(lp1259
S':'
asbag57
(g78
g59
NtRp1260
(dp1261
g62
(dp1262
sg71
g1247
sg64
(lp1263
g57
(g58
g59
NtRp1264
(dp1265
g62
(dp1266
g70
I4
ssg71
g1260
sg64
(lp1267
S'Mozilla/5.0 (X11; Ubuntu; Linux x86_64; rv:20.0) Gecko/20100101 Firefox/20.0'
p1268
asbasbasbag57
(g73
g59
NtRp1269
(dp1270
g62
(dp1271
sg71
g847
sg64
(lp1272
g57
(g78
g59
NtRp1273
(dp1274
g62
(dp1275
g82
g83
ssg71
g1269
sg64
(lp1276
S'is_jython'
p1277
asbag57
(g78
g59
NtRp1278
(dp1279
g62
(dp1280
g89
g90
ssg71
g1269
sg64
(lp1281
S':'
asbag57
(g78
g59
NtRp1282
(dp1283
g62
(dp1284
sg71
g1269
sg64
(lp1285
g57
(g58
g59
NtRp1286
(dp1287
g62
(dp1288
g70
I4
ssg71
g1282
sg64
(lp1289
g100
asbasbasbag57
(g73
g59
NtRp1290
(dp1291
g62
(dp1292
sg71
g847
sg64
(lp1293
g57
(g78
g59
NtRp1294
(dp1295
g62
(dp1296
g82
g83
ssg71
g1290
sg64
(lp1297
S'is_pypy'
p1298
asbag57
(g78
g59
NtRp1299
(dp1300
g62
(dp1301
g89
g90
ssg71
g1290
sg64
(lp1302
S':'
asbag57
(g78
g59
NtRp1303
(dp1304
g62
(dp1305
sg71
g1290
sg64
(lp1306
g57
(g58
g59
NtRp1307
(dp1308
g62
(dp1309
g70
I4
ssg71
g1303
sg64
(lp1310
g100
asbasbasbag57
(g73
g59
NtRp1311
(dp1312
g62
(dp1313
sg71
g847
sg64
(lp1314
g57
(g78
g59
NtRp1315
(dp1316
g62
(dp1317
g82
g83
ssg71
g1311
sg64
(lp1318
S'local_hosts'
p1319
asbag57
(g78
g59
NtRp1320
(dp1321
g62
(dp1322
g89
g90
ssg71
g1311
sg64
(lp1323
S':'
asbag57
(g78
g59
NtRp1324
(dp1325
g62
(dp1326
sg71
g1311
sg64
(lp1327
g57
(g58
g59
NtRp1328
(dp1329
g62
(dp1330
g70
I4
ssg71
g1324
sg64
(lp1331
g57
(g66
g59
NtRp1332
(dp1333
g62
(dp1334
g70
I3
ssg71
Nsg64
(lp1335
g57
(g73
g59
NtRp1336
(dp1337
g62
(dp1338
sg71
g1332
sg64
(lp1339
g57
(g78
g59
NtRp1340
(dp1341
g62
(dp1342
sg71
g1336
sg64
(lp1343
g57
(g58
g59
NtRp1344
(dp1345
g62
(dp1346
g70
I3
ssg71
g1340
sg64
(lp1347
S'::1'
p1348
asbasbasbag57
(g73
g59
NtRp1349
(dp1350
g62
(dp1351
sg71
g1332
sg64
(lp1352
g57
(g78
g59
NtRp1353
(dp1354
g62
(dp1355
sg71
g1349
sg64
(lp1356
g57
(g58
g59
NtRp1357
(dp1358
g62
(dp1359
g70
I3
ssg71
g1353
sg64
(lp1360
S'127.0.1.1'
p1361
asbasbasbag57
(g73
g59
NtRp1362
(dp1363
g62
(dp1364
sg71
g1332
sg64
(lp1365
g57
(g78
g59
NtRp1366
(dp1367
g62
(dp1368
sg71
g1362
sg64
(lp1369
g57
(g58
g59
NtRp1370
(dp1371
g62
(dp1372
g70
I3
ssg71
g1366
sg64
(lp1373
S'::ffff:127.0.0.1'
p1374
asbasbasbag57
(g73
g59
NtRp1375
(dp1376
g62
(dp1377
sg71
g1332
sg64
(lp1378
g57
(g78
g59
NtRp1379
(dp1380
g62
(dp1381
sg71
g1375
sg64
(lp1382
g57
(g58
g59
NtRp1383
(dp1384
g62
(dp1385
g70
I3
ssg71
g1379
sg64
(lp1386
S'127.0.0.1'
p1387
asbasbasbag57
(g73
g59
NtRp1388
(dp1389
g62
(dp1390
sg71
g1332
sg64
(lp1391
g57
(g78
g59
NtRp1392
(dp1393
g62
(dp1394
sg71
g1388
sg64
(lp1395
g57
(g58
g59
NtRp1396
(dp1397
g62
(dp1398
g70
I3
ssg71
g1392
sg64
(lp1399
S'ubuntu'
p1400
asbasbasbasbasbasbasbag57
(g73
g59
NtRp1401
(dp1402
g62
(dp1403
sg71
g847
sg64
(lp1404
g57
(g78
g59
NtRp1405
(dp1406
g62
(dp1407
g82
g83
ssg71
g1401
sg64
(lp1408
S'path_info'
p1409
asbag57
(g78
g59
NtRp1410
(dp1411
g62
(dp1412
g89
g90
ssg71
g1401
sg64
(lp1413
S':'
asbag57
(g78
g59
NtRp1414
(dp1415
g62
(dp1416
sg71
g1401
sg64
(lp1417
g57
(g58
g59
NtRp1418
(dp1419
g62
(dp1420
g70
I4
ssg71
g1414
sg64
(lp1421
S'/IIIT_calendars/default/edit_events'
p1422
asbasbasbag57
(g73
g59
NtRp1423
(dp1424
g62
(dp1425
sg71
g847
sg64
(lp1426
g57
(g78
g59
NtRp1427
(dp1428
g62
(dp1429
g82
g83
ssg71
g1423
sg64
(lp1430
S'query_string'
p1431
asbag57
(g78
g59
NtRp1432
(dp1433
g62
(dp1434
g89
g90
ssg71
g1423
sg64
(lp1435
S':'
asbag57
(g78
g59
NtRp1436
(dp1437
g62
(dp1438
sg71
g1423
sg64
(lp1439
g57
(g58
g59
NtRp1440
(dp1441
g62
(dp1442
g70
I4
ssg71
g1436
sg64
(lp1443
S''
asbasbasbag57
(g73
g59
NtRp1444
(dp1445
g62
(dp1446
sg71
g847
sg64
(lp1447
g57
(g78
g59
NtRp1448
(dp1449
g62
(dp1450
g82
g83
ssg71
g1444
sg64
(lp1451
S'remote_addr'
p1452
asbag57
(g78
g59
NtRp1453
(dp1454
g62
(dp1455
g89
g90
ssg71
g1444
sg64
(lp1456
S':'
asbag57
(g78
g59
NtRp1457
(dp1458
g62
(dp1459
sg71
g1444
sg64
(lp1460
g57
(g58
g59
NtRp1461
(dp1462
g62
(dp1463
g70
I4
ssg71
g1457
sg64
(lp1464
g212
asbasbasbag57
(g73
g59
NtRp1465
(dp1466
g62
(dp1467
sg71
g847
sg64
(lp1468
g57
(g78
g59
NtRp1469
(dp1470
g62
(dp1471
g82
g83
ssg71
g1465
sg64
(lp1472
S'remote_port'
p1473
asbag57
(g78
g59
NtRp1474
(dp1475
g62
(dp1476
g89
g90
ssg71
g1465
sg64
(lp1477
S':'
asbag57
(g78
g59
NtRp1478
(dp1479
g62
(dp1480
sg71
g1465
sg64
(lp1481
g57
(g58
g59
NtRp1482
(dp1483
g62
(dp1484
g70
I4
ssg71
g1478
sg64
(lp1485
S'52975'
p1486
asbasbasbag57
(g73
g59
NtRp1487
(dp1488
g62
(dp1489
sg71
g847
sg64
(lp1490
g57
(g78
g59
NtRp1491
(dp1492
g62
(dp1493
g82
g83
ssg71
g1487
sg64
(lp1494
S'request_method'
p1495
asbag57
(g78
g59
NtRp1496
(dp1497
g62
(dp1498
g89
g90
ssg71
g1487
sg64
(lp1499
S':'
asbag57
(g78
g59
NtRp1500
(dp1501
g62
(dp1502
sg71
g1487
sg64
(lp1503
g57
(g58
g59
NtRp1504
(dp1505
g62
(dp1506
g70
I4
ssg71
g1500
sg64
(lp1507
S'POST'
p1508
asbasbasbag57
(g73
g59
NtRp1509
(dp1510
g62
(dp1511
sg71
g847
sg64
(lp1512
g57
(g78
g59
NtRp1513
(dp1514
g62
(dp1515
g82
g83
ssg71
g1509
sg64
(lp1516
S'request_uri'
p1517
asbag57
(g78
g59
NtRp1518
(dp1519
g62
(dp1520
g89
g90
ssg71
g1509
sg64
(lp1521
S':'
asbag57
(g78
g59
NtRp1522
(dp1523
g62
(dp1524
sg71
g1509
sg64
(lp1525
g57
(g58
g59
NtRp1526
(dp1527
g62
(dp1528
g70
I4
ssg71
g1522
sg64
(lp1529
g1422
asbasbasbag57
(g73
g59
NtRp1530
(dp1531
g62
(dp1532
sg71
g847
sg64
(lp1533
g57
(g78
g59
NtRp1534
(dp1535
g62
(dp1536
g82
g83
ssg71
g1530
sg64
(lp1537
S'script_name'
p1538
asbag57
(g78
g59
NtRp1539
(dp1540
g62
(dp1541
g89
g90
ssg71
g1530
sg64
(lp1542
S':'
asbag57
(g78
g59
NtRp1543
(dp1544
g62
(dp1545
sg71
g1530
sg64
(lp1546
g57
(g58
g59
NtRp1547
(dp1548
g62
(dp1549
g70
I4
ssg71
g1543
sg64
(lp1550
S''
asbasbasbag57
(g73
g59
NtRp1551
(dp1552
g62
(dp1553
sg71
g847
sg64
(lp1554
g57
(g78
g59
NtRp1555
(dp1556
g62
(dp1557
g82
g83
ssg71
g1551
sg64
(lp1558
S'server_name'
p1559
asbag57
(g78
g59
NtRp1560
(dp1561
g62
(dp1562
g89
g90
ssg71
g1551
sg64
(lp1563
S':'
asbag57
(g78
g59
NtRp1564
(dp1565
g62
(dp1566
sg71
g1551
sg64
(lp1567
g57
(g58
g59
NtRp1568
(dp1569
g62
(dp1570
g70
I4
ssg71
g1564
sg64
(lp1571
S'ubuntu'
p1572
asbasbasbag57
(g73
g59
NtRp1573
(dp1574
g62
(dp1575
sg71
g847
sg64
(lp1576
g57
(g78
g59
NtRp1577
(dp1578
g62
(dp1579
g82
g83
ssg71
g1573
sg64
(lp1580
S'server_port'
p1581
asbag57
(g78
g59
NtRp1582
(dp1583
g62
(dp1584
g89
g90
ssg71
g1573
sg64
(lp1585
S':'
asbag57
(g78
g59
NtRp1586
(dp1587
g62
(dp1588
sg71
g1573
sg64
(lp1589
g57
(g58
g59
NtRp1590
(dp1591
g62
(dp1592
g70
I4
ssg71
g1586
sg64
(lp1593
S'8000'
p1594
asbasbasbag57
(g73
g59
NtRp1595
(dp1596
g62
(dp1597
sg71
g847
sg64
(lp1598
g57
(g78
g59
NtRp1599
(dp1600
g62
(dp1601
g82
g83
ssg71
g1595
sg64
(lp1602
S'server_protocol'
p1603
asbag57
(g78
g59
NtRp1604
(dp1605
g62
(dp1606
g89
g90
ssg71
g1595
sg64
(lp1607
S':'
asbag57
(g78
g59
NtRp1608
(dp1609
g62
(dp1610
sg71
g1595
sg64
(lp1611
g57
(g58
g59
NtRp1612
(dp1613
g62
(dp1614
g70
I4
ssg71
g1608
sg64
(lp1615
S'HTTP/1.1'
p1616
asbasbasbag57
(g73
g59
NtRp1617
(dp1618
g62
(dp1619
sg71
g847
sg64
(lp1620
g57
(g78
g59
NtRp1621
(dp1622
g62
(dp1623
g82
g83
ssg71
g1617
sg64
(lp1624
S'server_software'
p1625
asbag57
(g78
g59
NtRp1626
(dp1627
g62
(dp1628
g89
g90
ssg71
g1617
sg64
(lp1629
S':'
asbag57
(g78
g59
NtRp1630
(dp1631
g62
(dp1632
sg71
g1617
sg64
(lp1633
g57
(g58
g59
NtRp1634
(dp1635
g62
(dp1636
g70
I4
ssg71
g1630
sg64
(lp1637
S'Rocket 1.2.6'
p1638
asbasbasbag57
(g73
g59
NtRp1639
(dp1640
g62
(dp1641
sg71
g847
sg64
(lp1642
g57
(g78
g59
NtRp1643
(dp1644
g62
(dp1645
g82
g83
ssg71
g1639
sg64
(lp1646
S'web2py_path'
p1647
asbag57
(g78
g59
NtRp1648
(dp1649
g62
(dp1650
g89
g90
ssg71
g1639
sg64
(lp1651
S':'
asbag57
(g78
g59
NtRp1652
(dp1653
g62
(dp1654
sg71
g1639
sg64
(lp1655
g57
(g58
g59
NtRp1656
(dp1657
g62
(dp1658
g70
I4
ssg71
g1652
sg64
(lp1659
g894
asbasbasbag57
(g73
g59
NtRp1660
(dp1661
g62
(dp1662
sg71
g847
sg64
(lp1663
g57
(g78
g59
NtRp1664
(dp1665
g62
(dp1666
g82
g83
ssg71
g1660
sg64
(lp1667
S'web2py_version'
p1668
asbag57
(g78
g59
NtRp1669
(dp1670
g62
(dp1671
g89
g90
ssg71
g1660
sg64
(lp1672
S':'
asbag57
(g78
g59
NtRp1673
(dp1674
g62
(dp1675
sg71
g1660
sg64
(lp1676
g57
(g58
g59
NtRp1677
(dp1678
g62
(dp1679
g70
I4
ssg71
g1673
sg64
(lp1680
g57
(g66
g59
NtRp1681
(dp1682
g62
(dp1683
g70
I3
ssg71
Nsg64
(lp1684
g57
(g73
g59
NtRp1685
(dp1686
g62
(dp1687
sg71
g1681
sg64
(lp1688
g57
(g78
g59
NtRp1689
(dp1690
g62
(dp1691
sg71
g1685
sg64
(lp1692
g57
(g58
g59
NtRp1693
(dp1694
g62
(dp1695
g70
I3
ssg71
g1689
sg64
(lp1696
S'2'
asbasbasbag57
(g73
g59
NtRp1697
(dp1698
g62
(dp1699
sg71
g1681
sg64
(lp1700
g57
(g78
g59
NtRp1701
(dp1702
g62
(dp1703
sg71
g1697
sg64
(lp1704
g57
(g58
g59
NtRp1705
(dp1706
g62
(dp1707
g70
I3
ssg71
g1701
sg64
(lp1708
S'3'
asbasbasbag57
(g73
g59
NtRp1709
(dp1710
g62
(dp1711
sg71
g1681
sg64
(lp1712
g57
(g78
g59
NtRp1713
(dp1714
g62
(dp1715
sg71
g1709
sg64
(lp1716
g57
(g58
g59
NtRp1717
(dp1718
g62
(dp1719
g70
I3
ssg71
g1713
sg64
(lp1720
S'2'
asbasbasbag57
(g73
g59
NtRp1721
(dp1722
g62
(dp1723
sg71
g1681
sg64
(lp1724
g57
(g78
g59
NtRp1725
(dp1726
g62
(dp1727
sg71
g1721
sg64
(lp1728
g57
(g58
g59
NtRp1729
(dp1730
g62
(dp1731
g70
I3
ssg71
g1725
sg64
(lp1732
S'datetime.datetime(2012, 12, 17, 15, 3, 30)'
p1733
asbasbasbag57
(g73
g59
NtRp1734
(dp1735
g62
(dp1736
sg71
g1681
sg64
(lp1737
g57
(g78
g59
NtRp1738
(dp1739
g62
(dp1740
sg71
g1734
sg64
(lp1741
g57
(g58
g59
NtRp1742
(dp1743
g62
(dp1744
g70
I3
ssg71
g1738
sg64
(lp1745
S'stable'
p1746
asbasbasbasbasbasbasbag57
(g73
g59
NtRp1747
(dp1748
g62
(dp1749
sg71
g847
sg64
(lp1750
g57
(g78
g59
NtRp1751
(dp1752
g62
(dp1753
g82
g83
ssg71
g1747
sg64
(lp1754
S'wsgi_errors'
p1755
asbag57
(g78
g59
NtRp1756
(dp1757
g62
(dp1758
g89
g90
ssg71
g1747
sg64
(lp1759
S':'
asbag57
(g78
g59
NtRp1760
(dp1761
g62
(dp1762
sg71
g1747
sg64
(lp1763
g57
(g58
g59
NtRp1764
(dp1765
g62
(dp1766
g70
I4
ssg71
g1760
sg64
(lp1767
S"<open file '<stderr>', mode 'w' at 0x7f6fffa09270>"
p1768
asbasbasbag57
(g73
g59
NtRp1769
(dp1770
g62
(dp1771
sg71
g847
sg64
(lp1772
g57
(g78
g59
NtRp1773
(dp1774
g62
(dp1775
g82
g83
ssg71
g1769
sg64
(lp1776
S'wsgi_file_wrapper'
p1777
asbag57
(g78
g59
NtRp1778
(dp1779
g62
(dp1780
g89
g90
ssg71
g1769
sg64
(lp1781
S':'
asbag57
(g78
g59
NtRp1782
(dp1783
g62
(dp1784
sg71
g1769
sg64
(lp1785
g57
(g58
g59
NtRp1786
(dp1787
g62
(dp1788
g70
I4
ssg71
g1782
sg64
(lp1789
S'<class wsgiref.util.FileWrapper at 0x2b28c18>'
p1790
asbasbasbag57
(g73
g59
NtRp1791
(dp1792
g62
(dp1793
sg71
g847
sg64
(lp1794
g57
(g78
g59
NtRp1795
(dp1796
g62
(dp1797
g82
g83
ssg71
g1791
sg64
(lp1798
S'wsgi_input'
p1799
asbag57
(g78
g59
NtRp1800
(dp1801
g62
(dp1802
g89
g90
ssg71
g1791
sg64
(lp1803
S':'
asbag57
(g78
g59
NtRp1804
(dp1805
g62
(dp1806
sg71
g1791
sg64
(lp1807
g57
(g58
g59
NtRp1808
(dp1809
g62
(dp1810
g70
I4
ssg71
g1804
sg64
(lp1811
S'<socket._fileobject object at 0x7f6fdc116e50>'
p1812
asbasbasbag57
(g73
g59
NtRp1813
(dp1814
g62
(dp1815
sg71
g847
sg64
(lp1816
g57
(g78
g59
NtRp1817
(dp1818
g62
(dp1819
g82
g83
ssg71
g1813
sg64
(lp1820
S'wsgi_multiprocess'
p1821
asbag57
(g78
g59
NtRp1822
(dp1823
g62
(dp1824
g89
g90
ssg71
g1813
sg64
(lp1825
S':'
asbag57
(g78
g59
NtRp1826
(dp1827
g62
(dp1828
sg71
g1813
sg64
(lp1829
g57
(g58
g59
NtRp1830
(dp1831
g62
(dp1832
g70
I4
ssg71
g1826
sg64
(lp1833
g100
asbasbasbag57
(g73
g59
NtRp1834
(dp1835
g62
(dp1836
sg71
g847
sg64
(lp1837
g57
(g78
g59
NtRp1838
(dp1839
g62
(dp1840
g82
g83
ssg71
g1834
sg64
(lp1841
S'wsgi_multithread'
p1842
asbag57
(g78
g59
NtRp1843
(dp1844
g62
(dp1845
g89
g90
ssg71
g1834
sg64
(lp1846
S':'
asbag57
(g78
g59
NtRp1847
(dp1848
g62
(dp1849
sg71
g1834
sg64
(lp1850
g57
(g58
g59
NtRp1851
(dp1852
g62
(dp1853
g70
I4
ssg71
g1847
sg64
(lp1854
S'True'
p1855
asbasbasbag57
(g73
g59
NtRp1856
(dp1857
g62
(dp1858
sg71
g847
sg64
(lp1859
g57
(g78
g59
NtRp1860
(dp1861
g62
(dp1862
g82
g83
ssg71
g1856
sg64
(lp1863
S'wsgi_run_once'
p1864
asbag57
(g78
g59
NtRp1865
(dp1866
g62
(dp1867
g89
g90
ssg71
g1856
sg64
(lp1868
S':'
asbag57
(g78
g59
NtRp1869
(dp1870
g62
(dp1871
sg71
g1856
sg64
(lp1872
g57
(g58
g59
NtRp1873
(dp1874
g62
(dp1875
g70
I4
ssg71
g1869
sg64
(lp1876
g100
asbasbasbag57
(g73
g59
NtRp1877
(dp1878
g62
(dp1879
sg71
g847
sg64
(lp1880
g57
(g78
g59
NtRp1881
(dp1882
g62
(dp1883
g82
g83
ssg71
g1877
sg64
(lp1884
S'wsgi_url_scheme'
p1885
asbag57
(g78
g59
NtRp1886
(dp1887
g62
(dp1888
g89
g90
ssg71
g1877
sg64
(lp1889
S':'
asbag57
(g78
g59
NtRp1890
(dp1891
g62
(dp1892
sg71
g1877
sg64
(lp1893
g57
(g58
g59
NtRp1894
(dp1895
g62
(dp1896
g70
I4
ssg71
g1890
sg64
(lp1897
S'http'
p1898
asbasbasbag57
(g73
g59
NtRp1899
(dp1900
g62
(dp1901
sg71
g847
sg64
(lp1902
g57
(g78
g59
NtRp1903
(dp1904
g62
(dp1905
g82
g83
ssg71
g1899
sg64
(lp1906
S'wsgi_version'
p1907
asbag57
(g78
g59
NtRp1908
(dp1909
g62
(dp1910
g89
g90
ssg71
g1899
sg64
(lp1911
S':'
asbag57
(g78
g59
NtRp1912
(dp1913
g62
(dp1914
sg71
g1899
sg64
(lp1915
g57
(g58
g59
NtRp1916
(dp1917
g62
(dp1918
g70
I4
ssg71
g1912
sg64
(lp1919
g57
(g66
g59
NtRp1920
(dp1921
g62
(dp1922
g70
I3
ssg71
Nsg64
(lp1923
g57
(g73
g59
NtRp1924
(dp1925
g62
(dp1926
sg71
g1920
sg64
(lp1927
g57
(g78
g59
NtRp1928
(dp1929
g62
(dp1930
sg71
g1924
sg64
(lp1931
g57
(g58
g59
NtRp1932
(dp1933
g62
(dp1934
g70
I3
ssg71
g1928
sg64
(lp1935
S'1'
asbasbasbag57
(g73
g59
NtRp1936
(dp1937
g62
(dp1938
sg71
g1920
sg64
(lp1939
g57
(g78
g59
NtRp1940
(dp1941
g62
(dp1942
sg71
g1936
sg64
(lp1943
g57
(g58
g59
NtRp1944
(dp1945
g62
(dp1946
g70
I3
ssg71
g1940
sg64
(lp1947
S'0'
asbasbasbasbasbasbasbasbasbasbasbag57
(g73
g59
NtRp1948
(dp1949
g62
(dp1950
sg71
g67
sg64
(lp1951
g57
(g78
g59
NtRp1952
(dp1953
g62
(dp1954
g82
g83
ssg71
g1948
sg64
(lp1955
S'extension'
p1956
asbag57
(g78
g59
NtRp1957
(dp1958
g62
(dp1959
g89
g90
ssg71
g1948
sg64
(lp1960
S':'
asbag57
(g78
g59
NtRp1961
(dp1962
g62
(dp1963
sg71
g1948
sg64
(lp1964
g57
(g58
g59
NtRp1965
(dp1966
g62
(dp1967
g70
I5
ssg71
g1961
sg64
(lp1968
S'html'
p1969
asbasbasbag57
(g73
g59
NtRp1970
(dp1971
g62
(dp1972
sg71
g67
sg64
(lp1973
g57
(g78
g59
NtRp1974
(dp1975
g62
(dp1976
g82
g83
ssg71
g1970
sg64
(lp1977
S'folder'
p1978
asbag57
(g78
g59
NtRp1979
(dp1980
g62
(dp1981
g89
g90
ssg71
g1970
sg64
(lp1982
S':'
asbag57
(g78
g59
NtRp1983
(dp1984
g62
(dp1985
sg71
g1970
sg64
(lp1986
g57
(g58
g59
NtRp1987
(dp1988
g62
(dp1989
g70
I5
ssg71
g1983
sg64
(lp1990
S'/home/simran/web2py/applications/IIIT_calendars/'
p1991
asbasbasbag57
(g73
g59
NtRp1992
(dp1993
g62
(dp1994
sg71
g67
sg64
(lp1995
g57
(g78
g59
NtRp1996
(dp1997
g62
(dp1998
g82
g83
ssg71
g1992
sg64
(lp1999
S'function'
p2000
asbag57
(g78
g59
NtRp2001
(dp2002
g62
(dp2003
g89
g90
ssg71
g1992
sg64
(lp2004
S':'
asbag57
(g78
g59
NtRp2005
(dp2006
g62
(dp2007
sg71
g1992
sg64
(lp2008
g57
(g58
g59
NtRp2009
(dp2010
g62
(dp2011
g70
I5
ssg71
g2005
sg64
(lp2012
S'edit_events'
p2013
asbasbasbag57
(g73
g59
NtRp2014
(dp2015
g62
(dp2016
sg71
g67
sg64
(lp2017
g57
(g78
g59
NtRp2018
(dp2019
g62
(dp2020
g82
g83
ssg71
g2014
sg64
(lp2021
S'get_vars'
p2022
asbag57
(g78
g59
NtRp2023
(dp2024
g62
(dp2025
g89
g90
ssg71
g2014
sg64
(lp2026
S':'
asbag57
(g78
g59
NtRp2027
(dp2028
g62
(dp2029
sg71
g2014
sg64
(lp2030
g57
(g58
g59
NtRp2031
(dp2032
g62
(dp2033
g70
I5
ssg71
g2027
sg64
(lp2034
g57
(g66
g59
NtRp2035
(dp2036
g62
(dp2037
g70
I4
ssg71
Nsg64
(lp2038
sbasbasbasbag57
(g73
g59
NtRp2039
(dp2040
g62
(dp2041
sg71
g67
sg64
(lp2042
g57
(g78
g59
NtRp2043
(dp2044
g62
(dp2045
g82
g83
ssg71
g2039
sg64
(lp2046
S'global_settings'
p2047
asbag57
(g78
g59
NtRp2048
(dp2049
g62
(dp2050
g89
g90
ssg71
g2039
sg64
(lp2051
S':'
asbag57
(g78
g59
NtRp2052
(dp2053
g62
(dp2054
sg71
g2039
sg64
(lp2055
g57
(g58
g59
NtRp2056
(dp2057
g62
(dp2058
g70
I5
ssg71
g2052
sg64
(lp2059
g57
(g66
g59
NtRp2060
(dp2061
g62
(dp2062
g70
I4
ssg71
Nsg64
(lp2063
g57
(g73
g59
NtRp2064
(dp2065
g62
(dp2066
sg71
g2060
sg64
(lp2067
g57
(g78
g59
NtRp2068
(dp2069
g62
(dp2070
g82
g83
ssg71
g2064
sg64
(lp2071
g859
asbag57
(g78
g59
NtRp2072
(dp2073
g62
(dp2074
g89
g90
ssg71
g2064
sg64
(lp2075
S':'
asbag57
(g78
g59
NtRp2076
(dp2077
g62
(dp2078
sg71
g2064
sg64
(lp2079
g57
(g58
g59
NtRp2080
(dp2081
g62
(dp2082
g70
I4
ssg71
g2076
sg64
(lp2083
S"set(['/home/simran/web2py/applications/welcome/', '/home/simran/web2py/applications/IIIT_calendars/', '/home/simran/web2py/applications/admin/'])"
p2084
asbasbasbag57
(g73
g59
NtRp2085
(dp2086
g62
(dp2087
sg71
g2060
sg64
(lp2088
g57
(g78
g59
NtRp2089
(dp2090
g62
(dp2091
g82
g83
ssg71
g2085
sg64
(lp2092
g881
asbag57
(g78
g59
NtRp2093
(dp2094
g62
(dp2095
g89
g90
ssg71
g2085
sg64
(lp2096
S':'
asbag57
(g78
g59
NtRp2097
(dp2098
g62
(dp2099
sg71
g2085
sg64
(lp2100
g57
(g58
g59
NtRp2101
(dp2102
g62
(dp2103
g70
I4
ssg71
g2097
sg64
(lp2104
g894
asbasbasbag57
(g73
g59
NtRp2105
(dp2106
g62
(dp2107
sg71
g2060
sg64
(lp2108
g57
(g78
g59
NtRp2109
(dp2110
g62
(dp2111
g82
g83
ssg71
g2105
sg64
(lp2112
g903
asbag57
(g78
g59
NtRp2113
(dp2114
g62
(dp2115
g89
g90
ssg71
g2105
sg64
(lp2116
S':'
asbag57
(g78
g59
NtRp2117
(dp2118
g62
(dp2119
sg71
g2105
sg64
(lp2120
g57
(g58
g59
NtRp2121
(dp2122
g62
(dp2123
g70
I4
ssg71
g2117
sg64
(lp2124
g57
(g66
g59
NtRp2125
(dp2126
g62
(dp2127
g70
I3
ssg71
Nsg64
(lp2128
sbasbasbasbag57
(g73
g59
NtRp2129
(dp2130
g62
(dp2131
sg71
g2060
sg64
(lp2132
g57
(g78
g59
NtRp2133
(dp2134
g62
(dp2135
g82
g83
ssg71
g2129
sg64
(lp2136
g928
asbag57
(g78
g59
NtRp2137
(dp2138
g62
(dp2139
g89
g90
ssg71
g2129
sg64
(lp2140
S':'
asbag57
(g78
g59
NtRp2141
(dp2142
g62
(dp2143
sg71
g2129
sg64
(lp2144
g57
(g58
g59
NtRp2145
(dp2146
g62
(dp2147
g70
I4
ssg71
g2141
sg64
(lp2148
S"<Values at 0x2bbe7e8: {'verbose': False, 'ip': '127.0.0.1', 'with_scheduler': False, 'ips': [], 'shutdown_timeout': 5, 'taskbar': False, 'port': 8000, 'maxthreads': None, 'softcron': False, 'server_name': 'ubuntu', 'bpython': False, 'nogui': False, 'pid_filename': 'httpserver.pid', 'extcron': False, 'runcron': False, 'run_system_tests': False, 'test': None, 'folder': '/home/simran/web2py', 'config': '', 'minthreads': None, 'winservice': '', 'shell': None, 'run': '', 'log_filename': 'httpserver.log', 'debuglevel': 30, 'args': [''], 'socket_timeout': 5, 'ssl_ca_certificate': None, 'scheduler': None, 'profiler_filename': None, 'ssl_private_key': '', 'scheduler_groups': None, 'password': '<ask>', 'request_queue_size': 5, 'ssl_certificate': '', 'cronjob': False, 'numthreads': None, 'quiet': False, 'interfaces': None, 'import_models': False, 'timeout': 10, 'plain': False, 'nobanner': False}>"
p2149
asbasbasbag57
(g73
g59
NtRp2150
(dp2151
g62
(dp2152
sg71
g2060
sg64
(lp2153
g57
(g78
g59
NtRp2154
(dp2155
g62
(dp2156
g82
g83
ssg71
g2150
sg64
(lp2157
g994
asbag57
(g78
g59
NtRp2158
(dp2159
g62
(dp2160
g89
g90
ssg71
g2150
sg64
(lp2161
S':'
asbag57
(g78
g59
NtRp2162
(dp2163
g62
(dp2164
sg71
g2150
sg64
(lp2165
g57
(g58
g59
NtRp2166
(dp2167
g62
(dp2168
g70
I4
ssg71
g2162
sg64
(lp2169
S'set([])'
p2170
asbasbasbag57
(g73
g59
NtRp2171
(dp2172
g62
(dp2173
sg71
g2060
sg64
(lp2174
g57
(g78
g59
NtRp2175
(dp2176
g62
(dp2177
g82
g83
ssg71
g2171
sg64
(lp2178
g1016
asbag57
(g78
g59
NtRp2179
(dp2180
g62
(dp2181
g89
g90
ssg71
g2171
sg64
(lp2182
S':'
asbag57
(g78
g59
NtRp2183
(dp2184
g62
(dp2185
sg71
g2171
sg64
(lp2186
g57
(g58
g59
NtRp2187
(dp2188
g62
(dp2189
g70
I4
ssg71
g2183
sg64
(lp2190
g100
asbasbasbag57
(g73
g59
NtRp2191
(dp2192
g62
(dp2193
sg71
g2060
sg64
(lp2194
g57
(g78
g59
NtRp2195
(dp2196
g62
(dp2197
g82
g83
ssg71
g2191
sg64
(lp2198
g1037
asbag57
(g78
g59
NtRp2199
(dp2200
g62
(dp2201
g89
g90
ssg71
g2191
sg64
(lp2202
S':'
asbag57
(g78
g59
NtRp2203
(dp2204
g62
(dp2205
sg71
g2191
sg64
(lp2206
g57
(g58
g59
NtRp2207
(dp2208
g62
(dp2209
g70
I4
ssg71
g2203
sg64
(lp2210
g1050
asbasbasbag57
(g73
g59
NtRp2211
(dp2212
g62
(dp2213
sg71
g2060
sg64
(lp2214
g57
(g78
g59
NtRp2215
(dp2216
g62
(dp2217
g82
g83
ssg71
g2211
sg64
(lp2218
g1277
asbag57
(g78
g59
NtRp2219
(dp2220
g62
(dp2221
g89
g90
ssg71
g2211
sg64
(lp2222
S':'
asbag57
(g78
g59
NtRp2223
(dp2224
g62
(dp2225
sg71
g2211
sg64
(lp2226
g57
(g58
g59
NtRp2227
(dp2228
g62
(dp2229
g70
I4
ssg71
g2223
sg64
(lp2230
g100
asbasbasbag57
(g73
g59
NtRp2231
(dp2232
g62
(dp2233
sg71
g2060
sg64
(lp2234
g57
(g78
g59
NtRp2235
(dp2236
g62
(dp2237
g82
g83
ssg71
g2231
sg64
(lp2238
g1298
asbag57
(g78
g59
NtRp2239
(dp2240
g62
(dp2241
g89
g90
ssg71
g2231
sg64
(lp2242
S':'
asbag57
(g78
g59
NtRp2243
(dp2244
g62
(dp2245
sg71
g2231
sg64
(lp2246
g57
(g58
g59
NtRp2247
(dp2248
g62
(dp2249
g70
I4
ssg71
g2243
sg64
(lp2250
g100
asbasbasbag57
(g73
g59
NtRp2251
(dp2252
g62
(dp2253
sg71
g2060
sg64
(lp2254
g57
(g78
g59
NtRp2255
(dp2256
g62
(dp2257
g82
g83
ssg71
g2251
sg64
(lp2258
g1319
asbag57
(g78
g59
NtRp2259
(dp2260
g62
(dp2261
g89
g90
ssg71
g2251
sg64
(lp2262
S':'
asbag57
(g78
g59
NtRp2263
(dp2264
g62
(dp2265
sg71
g2251
sg64
(lp2266
g57
(g58
g59
NtRp2267
(dp2268
g62
(dp2269
g70
I4
ssg71
g2263
sg64
(lp2270
g57
(g66
g59
NtRp2271
(dp2272
g62
(dp2273
g70
I3
ssg71
Nsg64
(lp2274
g57
(g73
g59
NtRp2275
(dp2276
g62
(dp2277
sg71
g2271
sg64
(lp2278
g57
(g78
g59
NtRp2279
(dp2280
g62
(dp2281
sg71
g2275
sg64
(lp2282
g57
(g58
g59
NtRp2283
(dp2284
g62
(dp2285
g70
I3
ssg71
g2279
sg64
(lp2286
g1348
asbasbasbag57
(g73
g59
NtRp2287
(dp2288
g62
(dp2289
sg71
g2271
sg64
(lp2290
g57
(g78
g59
NtRp2291
(dp2292
g62
(dp2293
sg71
g2287
sg64
(lp2294
g57
(g58
g59
NtRp2295
(dp2296
g62
(dp2297
g70
I3
ssg71
g2291
sg64
(lp2298
g1361
asbasbasbag57
(g73
g59
NtRp2299
(dp2300
g62
(dp2301
sg71
g2271
sg64
(lp2302
g57
(g78
g59
NtRp2303
(dp2304
g62
(dp2305
sg71
g2299
sg64
(lp2306
g57
(g58
g59
NtRp2307
(dp2308
g62
(dp2309
g70
I3
ssg71
g2303
sg64
(lp2310
g1374
asbasbasbag57
(g73
g59
NtRp2311
(dp2312
g62
(dp2313
sg71
g2271
sg64
(lp2314
g57
(g78
g59
NtRp2315
(dp2316
g62
(dp2317
sg71
g2311
sg64
(lp2318
g57
(g58
g59
NtRp2319
(dp2320
g62
(dp2321
g70
I3
ssg71
g2315
sg64
(lp2322
g1387
asbasbasbag57
(g73
g59
NtRp2323
(dp2324
g62
(dp2325
sg71
g2271
sg64
(lp2326
g57
(g78
g59
NtRp2327
(dp2328
g62
(dp2329
sg71
g2323
sg64
(lp2330
g57
(g58
g59
NtRp2331
(dp2332
g62
(dp2333
g70
I3
ssg71
g2327
sg64
(lp2334
g1400
asbasbasbasbasbasbasbag57
(g73
g59
NtRp2335
(dp2336
g62
(dp2337
sg71
g2060
sg64
(lp2338
g57
(g78
g59
NtRp2339
(dp2340
g62
(dp2341
g82
g83
ssg71
g2335
sg64
(lp2342
g1668
asbag57
(g78
g59
NtRp2343
(dp2344
g62
(dp2345
g89
g90
ssg71
g2335
sg64
(lp2346
S':'
asbag57
(g78
g59
NtRp2347
(dp2348
g62
(dp2349
sg71
g2335
sg64
(lp2350
g57
(g58
g59
NtRp2351
(dp2352
g62
(dp2353
g70
I4
ssg71
g2347
sg64
(lp2354
g57
(g66
g59
NtRp2355
(dp2356
g62
(dp2357
g70
I3
ssg71
Nsg64
(lp2358
g57
(g73
g59
NtRp2359
(dp2360
g62
(dp2361
sg71
g2355
sg64
(lp2362
g57
(g78
g59
NtRp2363
(dp2364
g62
(dp2365
sg71
g2359
sg64
(lp2366
g57
(g58
g59
NtRp2367
(dp2368
g62
(dp2369
g70
I3
ssg71
g2363
sg64
(lp2370
S'2'
asbasbasbag57
(g73
g59
NtRp2371
(dp2372
g62
(dp2373
sg71
g2355
sg64
(lp2374
g57
(g78
g59
NtRp2375
(dp2376
g62
(dp2377
sg71
g2371
sg64
(lp2378
g57
(g58
g59
NtRp2379
(dp2380
g62
(dp2381
g70
I3
ssg71
g2375
sg64
(lp2382
S'3'
asbasbasbag57
(g73
g59
NtRp2383
(dp2384
g62
(dp2385
sg71
g2355
sg64
(lp2386
g57
(g78
g59
NtRp2387
(dp2388
g62
(dp2389
sg71
g2383
sg64
(lp2390
g57
(g58
g59
NtRp2391
(dp2392
g62
(dp2393
g70
I3
ssg71
g2387
sg64
(lp2394
S'2'
asbasbasbag57
(g73
g59
NtRp2395
(dp2396
g62
(dp2397
sg71
g2355
sg64
(lp2398
g57
(g78
g59
NtRp2399
(dp2400
g62
(dp2401
sg71
g2395
sg64
(lp2402
g57
(g58
g59
NtRp2403
(dp2404
g62
(dp2405
g70
I3
ssg71
g2399
sg64
(lp2406
S'datetime.datetime(2012, 12, 17, 15, 3, 30)'
p2407
asbasbasbag57
(g73
g59
NtRp2408
(dp2409
g62
(dp2410
sg71
g2355
sg64
(lp2411
g57
(g78
g59
NtRp2412
(dp2413
g62
(dp2414
sg71
g2408
sg64
(lp2415
g57
(g58
g59
NtRp2416
(dp2417
g62
(dp2418
g70
I3
ssg71
g2412
sg64
(lp2419
g1746
asbasbasbasbasbasbasbasbasbasbasbag57
(g73
g59
NtRp2420
(dp2421
g62
(dp2422
sg71
g67
sg64
(lp2423
g57
(g78
g59
NtRp2424
(dp2425
g62
(dp2426
g82
g83
ssg71
g2420
sg64
(lp2427
S'is_https'
p2428
asbag57
(g78
g59
NtRp2429
(dp2430
g62
(dp2431
g89
g90
ssg71
g2420
sg64
(lp2432
S':'
asbag57
(g78
g59
NtRp2433
(dp2434
g62
(dp2435
sg71
g2420
sg64
(lp2436
g57
(g58
g59
NtRp2437
(dp2438
g62
(dp2439
g70
I5
ssg71
g2433
sg64
(lp2440
g100
asbasbasbag57
(g73
g59
NtRp2441
(dp2442
g62
(dp2443
sg71
g67
sg64
(lp2444
g57
(g78
g59
NtRp2445
(dp2446
g62
(dp2447
g82
g83
ssg71
g2441
sg64
(lp2448
S'is_local'
p2449
asbag57
(g78
g59
NtRp2450
(dp2451
g62
(dp2452
g89
g90
ssg71
g2441
sg64
(lp2453
S':'
asbag57
(g78
g59
NtRp2454
(dp2455
g62
(dp2456
sg71
g2441
sg64
(lp2457
g57
(g58
g59
NtRp2458
(dp2459
g62
(dp2460
g70
I5
ssg71
g2454
sg64
(lp2461
g1855
asbasbasbag57
(g73
g59
NtRp2462
(dp2463
g62
(dp2464
sg71
g67
sg64
(lp2465
g57
(g78
g59
NtRp2466
(dp2467
g62
(dp2468
g82
g83
ssg71
g2462
sg64
(lp2469
S'is_restful'
p2470
asbag57
(g78
g59
NtRp2471
(dp2472
g62
(dp2473
g89
g90
ssg71
g2462
sg64
(lp2474
S':'
asbag57
(g78
g59
NtRp2475
(dp2476
g62
(dp2477
sg71
g2462
sg64
(lp2478
g57
(g58
g59
NtRp2479
(dp2480
g62
(dp2481
g70
I5
ssg71
g2475
sg64
(lp2482
g100
asbasbasbag57
(g73
g59
NtRp2483
(dp2484
g62
(dp2485
sg71
g67
sg64
(lp2486
g57
(g78
g59
NtRp2487
(dp2488
g62
(dp2489
g82
g83
ssg71
g2483
sg64
(lp2490
S'now'
p2491
asbag57
(g78
g59
NtRp2492
(dp2493
g62
(dp2494
g89
g90
ssg71
g2483
sg64
(lp2495
S':'
asbag57
(g78
g59
NtRp2496
(dp2497
g62
(dp2498
sg71
g2483
sg64
(lp2499
g57
(g58
g59
NtRp2500
(dp2501
g62
(dp2502
g70
I5
ssg71
g2496
sg64
(lp2503
S'datetime.datetime(2013, 4, 14, 14, 2, 0, 379061)'
p2504
asbasbasbag57
(g73
g59
NtRp2505
(dp2506
g62
(dp2507
sg71
g67
sg64
(lp2508
g57
(g78
g59
NtRp2509
(dp2510
g62
(dp2511
g82
g83
ssg71
g2505
sg64
(lp2512
S'post_vars'
p2513
asbag57
(g78
g59
NtRp2514
(dp2515
g62
(dp2516
g89
g90
ssg71
g2505
sg64
(lp2517
S':'
asbag57
(g78
g59
NtRp2518
(dp2519
g62
(dp2520
sg71
g2505
sg64
(lp2521
g57
(g58
g59
NtRp2522
(dp2523
g62
(dp2524
g70
I5
ssg71
g2518
sg64
(lp2525
g57
(g66
g59
NtRp2526
(dp2527
g62
(dp2528
g70
I4
ssg71
Nsg64
(lp2529
g57
(g73
g59
NtRp2530
(dp2531
g62
(dp2532
sg71
g2526
sg64
(lp2533
g57
(g78
g59
NtRp2534
(dp2535
g62
(dp2536
g82
g83
ssg71
g2530
sg64
(lp2537
S'event'
p2538
asbag57
(g78
g59
NtRp2539
(dp2540
g62
(dp2541
g89
g90
ssg71
g2530
sg64
(lp2542
S':'
asbag57
(g78
g59
NtRp2543
(dp2544
g62
(dp2545
sg71
g2530
sg64
(lp2546
g57
(g58
g59
NtRp2547
(dp2548
g62
(dp2549
g70
I4
ssg71
g2543
sg64
(lp2550
S'ITWS Project'
p2551
asbasbasbag57
(g73
g59
NtRp2552
(dp2553
g62
(dp2554
sg71
g2526
sg64
(lp2555
g57
(g78
g59
NtRp2556
(dp2557
g62
(dp2558
g82
g83
ssg71
g2552
sg64
(lp2559
S'submit'
p2560
asbag57
(g78
g59
NtRp2561
(dp2562
g62
(dp2563
g89
g90
ssg71
g2552
sg64
(lp2564
S':'
asbag57
(g78
g59
NtRp2565
(dp2566
g62
(dp2567
sg71
g2552
sg64
(lp2568
g57
(g58
g59
NtRp2569
(dp2570
g62
(dp2571
g70
I4
ssg71
g2565
sg64
(lp2572
S''
asbasbasbasbasbasbasbag57
(g73
g59
NtRp2573
(dp2574
g62
(dp2575
sg71
g67
sg64
(lp2576
g57
(g78
g59
NtRp2577
(dp2578
g62
(dp2579
g82
g83
ssg71
g2573
sg64
(lp2580
S'raw_args'
p2581
asbag57
(g78
g59
NtRp2582
(dp2583
g62
(dp2584
g89
g90
ssg71
g2573
sg64
(lp2585
S':'
asbag57
(g78
g59
NtRp2586
(dp2587
g62
(dp2588
sg71
g2573
sg64
(lp2589
g57
(g58
g59
NtRp2590
(dp2591
g62
(dp2592
g70
I5
ssg71
g2586
sg64
(lp2593
S''
asbasbasbag57
(g73
g59
NtRp2594
(dp2595
g62
(dp2596
sg71
g67
sg64
(lp2597
g57
(g78
g59
NtRp2598
(dp2599
g62
(dp2600
g82
g83
ssg71
g2594
sg64
(lp2601
S'raw_extension'
p2602
asbag57
(g78
g59
NtRp2603
(dp2604
g62
(dp2605
g89
g90
ssg71
g2594
sg64
(lp2606
S':'
asbag57
(g78
g59
NtRp2607
(dp2608
g62
(dp2609
sg71
g2594
sg64
(lp2610
g57
(g58
g59
NtRp2611
(dp2612
g62
(dp2613
g70
I5
ssg71
g2607
sg64
(lp2614
S'None'
p2615
asbasbasbag57
(g73
g59
NtRp2616
(dp2617
g62
(dp2618
sg71
g67
sg64
(lp2619
g57
(g78
g59
NtRp2620
(dp2621
g62
(dp2622
g82
g83
ssg71
g2616
sg64
(lp2623
S'url'
p2624
asbag57
(g78
g59
NtRp2625
(dp2626
g62
(dp2627
g89
g90
ssg71
g2616
sg64
(lp2628
S':'
asbag57
(g78
g59
NtRp2629
(dp2630
g62
(dp2631
sg71
g2616
sg64
(lp2632
g57
(g58
g59
NtRp2633
(dp2634
g62
(dp2635
g70
I5
ssg71
g2629
sg64
(lp2636
g1422
asbasbasbag57
(g73
g59
NtRp2637
(dp2638
g62
(dp2639
sg71
g67
sg64
(lp2640
g57
(g78
g59
NtRp2641
(dp2642
g62
(dp2643
g82
g83
ssg71
g2637
sg64
(lp2644
S'utcnow'
p2645
asbag57
(g78
g59
NtRp2646
(dp2647
g62
(dp2648
g89
g90
ssg71
g2637
sg64
(lp2649
S':'
asbag57
(g78
g59
NtRp2650
(dp2651
g62
(dp2652
sg71
g2637
sg64
(lp2653
g57
(g58
g59
NtRp2654
(dp2655
g62
(dp2656
g70
I5
ssg71
g2650
sg64
(lp2657
S'datetime.datetime(2013, 4, 14, 8, 32, 0, 379111)'
p2658
asbasbasbag57
(g73
g59
NtRp2659
(dp2660
g62
(dp2661
sg71
g67
sg64
(lp2662
g57
(g78
g59
NtRp2663
(dp2664
g62
(dp2665
g82
g83
ssg71
g2659
sg64
(lp2666
S'uuid'
p2667
asbag57
(g78
g59
NtRp2668
(dp2669
g62
(dp2670
g89
g90
ssg71
g2659
sg64
(lp2671
S':'
asbag57
(g78
g59
NtRp2672
(dp2673
g62
(dp2674
sg71
g2659
sg64
(lp2675
g57
(g58
g59
NtRp2676
(dp2677
g62
(dp2678
g70
I5
ssg71
g2672
sg64
(lp2679
S'IIIT_calendars/127.0.0.1.2013-04-14.14-02-00.2b0af6e1-d76d-489c-b3a1-e6df0d3ddd50'
p2680
asbasbasbag57
(g73
g59
NtRp2681
(dp2682
g62
(dp2683
sg71
g67
sg64
(lp2684
g57
(g78
g59
NtRp2685
(dp2686
g62
(dp2687
g82
g83
ssg71
g2681
sg64
(lp2688
S'vars'
p2689
asbag57
(g78
g59
NtRp2690
(dp2691
g62
(dp2692
g89
g90
ssg71
g2681
sg64
(lp2693
S':'
asbag57
(g78
g59
NtRp2694
(dp2695
g62
(dp2696
sg71
g2681
sg64
(lp2697
g57
(g58
g59
NtRp2698
(dp2699
g62
(dp2700
g70
I5
ssg71
g2694
sg64
(lp2701
g57
(g66
g59
NtRp2702
(dp2703
g62
(dp2704
g70
I4
ssg71
Nsg64
(lp2705
g57
(g73
g59
NtRp2706
(dp2707
g62
(dp2708
sg71
g2702
sg64
(lp2709
g57
(g78
g59
NtRp2710
(dp2711
g62
(dp2712
g82
g83
ssg71
g2706
sg64
(lp2713
g2538
asbag57
(g78
g59
NtRp2714
(dp2715
g62
(dp2716
g89
g90
ssg71
g2706
sg64
(lp2717
S':'
asbag57
(g78
g59
NtRp2718
(dp2719
g62
(dp2720
sg71
g2706
sg64
(lp2721
g57
(g58
g59
NtRp2722
(dp2723
g62
(dp2724
g70
I4
ssg71
g2718
sg64
(lp2725
g2551
asbasbasbag57
(g73
g59
NtRp2726
(dp2727
g62
(dp2728
sg71
g2702
sg64
(lp2729
g57
(g78
g59
NtRp2730
(dp2731
g62
(dp2732
g82
g83
ssg71
g2726
sg64
(lp2733
g2560
asbag57
(g78
g59
NtRp2734
(dp2735
g62
(dp2736
g89
g90
ssg71
g2726
sg64
(lp2737
S':'
asbag57
(g78
g59
NtRp2738
(dp2739
g62
(dp2740
sg71
g2726
sg64
(lp2741
g57
(g58
g59
NtRp2742
(dp2743
g62
(dp2744
g70
I4
ssg71
g2738
sg64
(lp2745
S''
asbasbasbasbasbasbasbag57
(g73
g59
NtRp2746
(dp2747
g62
(dp2748
sg71
g67
sg64
(lp2749
g57
(g78
g59
NtRp2750
(dp2751
g62
(dp2752
g82
g83
ssg71
g2746
sg64
(lp2753
S'wsgi'
p2754
asbag57
(g78
g59
NtRp2755
(dp2756
g62
(dp2757
g89
g90
ssg71
g2746
sg64
(lp2758
S':'
asbag57
(g78
g59
NtRp2759
(dp2760
g62
(dp2761
sg71
g2746
sg64
(lp2762
g57
(g58
g59
NtRp2763
(dp2764
g62
(dp2765
g70
I5
ssg71
g2759
sg64
(lp2766
g57
(g66
g59
NtRp2767
(dp2768
g62
(dp2769
g70
I4
ssg71
Nsg64
(lp2770
g57
(g73
g59
NtRp2771
(dp2772
g62
(dp2773
sg71
g2767
sg64
(lp2774
g57
(g78
g59
NtRp2775
(dp2776
g62
(dp2777
g82
g83
ssg71
g2771
sg64
(lp2778
S'environ'
p2779
asbag57
(g78
g59
NtRp2780
(dp2781
g62
(dp2782
g89
g90
ssg71
g2771
sg64
(lp2783
S':'
asbag57
(g78
g59
NtRp2784
(dp2785
g62
(dp2786
sg71
g2771
sg64
(lp2787
g57
(g58
g59
NtRp2788
(dp2789
g62
(dp2790
g70
I4
ssg71
g2784
sg64
(lp2791
g57
(g66
g59
NtRp2792
(dp2793
g62
(dp2794
g70
I3
ssg71
Nsg64
(lp2795
g57
(g73
g59
NtRp2796
(dp2797
g62
(dp2798
sg71
g2792
sg64
(lp2799
g57
(g78
g59
NtRp2800
(dp2801
g62
(dp2802
g82
g83
ssg71
g2796
sg64
(lp2803
S'CONTENT_LENGTH'
p2804
asbag57
(g78
g59
NtRp2805
(dp2806
g62
(dp2807
g89
g90
ssg71
g2796
sg64
(lp2808
S':'
asbag57
(g78
g59
NtRp2809
(dp2810
g62
(dp2811
sg71
g2796
sg64
(lp2812
g57
(g58
g59
NtRp2813
(dp2814
g62
(dp2815
g70
I3
ssg71
g2809
sg64
(lp2816
g963
asbasbasbag57
(g73
g59
NtRp2817
(dp2818
g62
(dp2819
sg71
g2792
sg64
(lp2820
g57
(g78
g59
NtRp2821
(dp2822
g62
(dp2823
g82
g83
ssg71
g2817
sg64
(lp2824
S'CONTENT_TYPE'
p2825
asbag57
(g78
g59
NtRp2826
(dp2827
g62
(dp2828
g89
g90
ssg71
g2817
sg64
(lp2829
S':'
asbag57
(g78
g59
NtRp2830
(dp2831
g62
(dp2832
sg71
g2817
sg64
(lp2833
g57
(g58
g59
NtRp2834
(dp2835
g62
(dp2836
g70
I3
ssg71
g2830
sg64
(lp2837
g985
asbasbasbag57
(g73
g59
NtRp2838
(dp2839
g62
(dp2840
sg71
g2792
sg64
(lp2841
g57
(g78
g59
NtRp2842
(dp2843
g62
(dp2844
g82
g83
ssg71
g2838
sg64
(lp2845
S'HTTP_ACCEPT'
p2846
asbag57
(g78
g59
NtRp2847
(dp2848
g62
(dp2849
g89
g90
ssg71
g2838
sg64
(lp2850
S':'
asbag57
(g78
g59
NtRp2851
(dp2852
g62
(dp2853
sg71
g2838
sg64
(lp2854
g57
(g58
g59
NtRp2855
(dp2856
g62
(dp2857
g70
I3
ssg71
g2851
sg64
(lp2858
g1072
asbasbasbag57
(g73
g59
NtRp2859
(dp2860
g62
(dp2861
sg71
g2792
sg64
(lp2862
g57
(g78
g59
NtRp2863
(dp2864
g62
(dp2865
g82
g83
ssg71
g2859
sg64
(lp2866
S'HTTP_ACCEPT_ENCODING'
p2867
asbag57
(g78
g59
NtRp2868
(dp2869
g62
(dp2870
g89
g90
ssg71
g2859
sg64
(lp2871
S':'
asbag57
(g78
g59
NtRp2872
(dp2873
g62
(dp2874
sg71
g2859
sg64
(lp2875
g57
(g58
g59
NtRp2876
(dp2877
g62
(dp2878
g70
I3
ssg71
g2872
sg64
(lp2879
g1094
asbasbasbag57
(g73
g59
NtRp2880
(dp2881
g62
(dp2882
sg71
g2792
sg64
(lp2883
g57
(g78
g59
NtRp2884
(dp2885
g62
(dp2886
g82
g83
ssg71
g2880
sg64
(lp2887
S'HTTP_ACCEPT_LANGUAGE'
p2888
asbag57
(g78
g59
NtRp2889
(dp2890
g62
(dp2891
g89
g90
ssg71
g2880
sg64
(lp2892
S':'
asbag57
(g78
g59
NtRp2893
(dp2894
g62
(dp2895
sg71
g2880
sg64
(lp2896
g57
(g58
g59
NtRp2897
(dp2898
g62
(dp2899
g70
I3
ssg71
g2893
sg64
(lp2900
g1116
asbasbasbag57
(g73
g59
NtRp2901
(dp2902
g62
(dp2903
sg71
g2792
sg64
(lp2904
g57
(g78
g59
NtRp2905
(dp2906
g62
(dp2907
g82
g83
ssg71
g2901
sg64
(lp2908
S'HTTP_CONNECTION'
p2909
asbag57
(g78
g59
NtRp2910
(dp2911
g62
(dp2912
g89
g90
ssg71
g2901
sg64
(lp2913
S':'
asbag57
(g78
g59
NtRp2914
(dp2915
g62
(dp2916
sg71
g2901
sg64
(lp2917
g57
(g58
g59
NtRp2918
(dp2919
g62
(dp2920
g70
I3
ssg71
g2914
sg64
(lp2921
g1138
asbasbasbag57
(g73
g59
NtRp2922
(dp2923
g62
(dp2924
sg71
g2792
sg64
(lp2925
g57
(g78
g59
NtRp2926
(dp2927
g62
(dp2928
g82
g83
ssg71
g2922
sg64
(lp2929
S'HTTP_CONTENT_LENGTH'
p2930
asbag57
(g78
g59
NtRp2931
(dp2932
g62
(dp2933
g89
g90
ssg71
g2922
sg64
(lp2934
S':'
asbag57
(g78
g59
NtRp2935
(dp2936
g62
(dp2937
sg71
g2922
sg64
(lp2938
g57
(g58
g59
NtRp2939
(dp2940
g62
(dp2941
g70
I3
ssg71
g2935
sg64
(lp2942
g963
asbasbasbag57
(g73
g59
NtRp2943
(dp2944
g62
(dp2945
sg71
g2792
sg64
(lp2946
g57
(g78
g59
NtRp2947
(dp2948
g62
(dp2949
g82
g83
ssg71
g2943
sg64
(lp2950
S'HTTP_CONTENT_TYPE'
p2951
asbag57
(g78
g59
NtRp2952
(dp2953
g62
(dp2954
g89
g90
ssg71
g2943
sg64
(lp2955
S':'
asbag57
(g78
g59
NtRp2956
(dp2957
g62
(dp2958
sg71
g2943
sg64
(lp2959
g57
(g58
g59
NtRp2960
(dp2961
g62
(dp2962
g70
I3
ssg71
g2956
sg64
(lp2963
g985
asbasbasbag57
(g73
g59
NtRp2964
(dp2965
g62
(dp2966
sg71
g2792
sg64
(lp2967
g57
(g78
g59
NtRp2968
(dp2969
g62
(dp2970
g82
g83
ssg71
g2964
sg64
(lp2971
S'HTTP_COOKIE'
p2972
asbag57
(g78
g59
NtRp2973
(dp2974
g62
(dp2975
g89
g90
ssg71
g2964
sg64
(lp2976
S':'
asbag57
(g78
g59
NtRp2977
(dp2978
g62
(dp2979
sg71
g2964
sg64
(lp2980
g57
(g58
g59
NtRp2981
(dp2982
g62
(dp2983
g70
I3
ssg71
g2977
sg64
(lp2984
g1202
asbasbasbag57
(g73
g59
NtRp2985
(dp2986
g62
(dp2987
sg71
g2792
sg64
(lp2988
g57
(g78
g59
NtRp2989
(dp2990
g62
(dp2991
g82
g83
ssg71
g2985
sg64
(lp2992
S'HTTP_HOST'
p2993
asbag57
(g78
g59
NtRp2994
(dp2995
g62
(dp2996
g89
g90
ssg71
g2985
sg64
(lp2997
S':'
asbag57
(g78
g59
NtRp2998
(dp2999
g62
(dp3000
sg71
g2985
sg64
(lp3001
g57
(g58
g59
NtRp3002
(dp3003
g62
(dp3004
g70
I3
ssg71
g2998
sg64
(lp3005
g1224
asbasbasbag57
(g73
g59
NtRp3006
(dp3007
g62
(dp3008
sg71
g2792
sg64
(lp3009
g57
(g78
g59
NtRp3010
(dp3011
g62
(dp3012
g82
g83
ssg71
g3006
sg64
(lp3013
S'HTTP_REFERER'
p3014
asbag57
(g78
g59
NtRp3015
(dp3016
g62
(dp3017
g89
g90
ssg71
g3006
sg64
(lp3018
S':'
asbag57
(g78
g59
NtRp3019
(dp3020
g62
(dp3021
sg71
g3006
sg64
(lp3022
g57
(g58
g59
NtRp3023
(dp3024
g62
(dp3025
g70
I3
ssg71
g3019
sg64
(lp3026
g1246
asbasbasbag57
(g73
g59
NtRp3027
(dp3028
g62
(dp3029
sg71
g2792
sg64
(lp3030
g57
(g78
g59
NtRp3031
(dp3032
g62
(dp3033
g82
g83
ssg71
g3027
sg64
(lp3034
S'HTTP_USER_AGENT'
p3035
asbag57
(g78
g59
NtRp3036
(dp3037
g62
(dp3038
g89
g90
ssg71
g3027
sg64
(lp3039
S':'
asbag57
(g78
g59
NtRp3040
(dp3041
g62
(dp3042
sg71
g3027
sg64
(lp3043
g57
(g58
g59
NtRp3044
(dp3045
g62
(dp3046
g70
I3
ssg71
g3040
sg64
(lp3047
g1268
asbasbasbag57
(g73
g59
NtRp3048
(dp3049
g62
(dp3050
sg71
g2792
sg64
(lp3051
g57
(g78
g59
NtRp3052
(dp3053
g62
(dp3054
g82
g83
ssg71
g3048
sg64
(lp3055
S'PATH_INFO'
p3056
asbag57
(g78
g59
NtRp3057
(dp3058
g62
(dp3059
g89
g90
ssg71
g3048
sg64
(lp3060
S':'
asbag57
(g78
g59
NtRp3061
(dp3062
g62
(dp3063
sg71
g3048
sg64
(lp3064
g57
(g58
g59
NtRp3065
(dp3066
g62
(dp3067
g70
I3
ssg71
g3061
sg64
(lp3068
g1422
asbasbasbag57
(g73
g59
NtRp3069
(dp3070
g62
(dp3071
sg71
g2792
sg64
(lp3072
g57
(g78
g59
NtRp3073
(dp3074
g62
(dp3075
g82
g83
ssg71
g3069
sg64
(lp3076
S'QUERY_STRING'
p3077
asbag57
(g78
g59
NtRp3078
(dp3079
g62
(dp3080
g89
g90
ssg71
g3069
sg64
(lp3081
S':'
asbag57
(g78
g59
NtRp3082
(dp3083
g62
(dp3084
sg71
g3069
sg64
(lp3085
g57
(g58
g59
NtRp3086
(dp3087
g62
(dp3088
g70
I3
ssg71
g3082
sg64
(lp3089
S''
asbasbasbag57
(g73
g59
NtRp3090
(dp3091
g62
(dp3092
sg71
g2792
sg64
(lp3093
g57
(g78
g59
NtRp3094
(dp3095
g62
(dp3096
g82
g83
ssg71
g3090
sg64
(lp3097
S'REMOTE_ADDR'
p3098
asbag57
(g78
g59
NtRp3099
(dp3100
g62
(dp3101
g89
g90
ssg71
g3090
sg64
(lp3102
S':'
asbag57
(g78
g59
NtRp3103
(dp3104
g62
(dp3105
sg71
g3090
sg64
(lp3106
g57
(g58
g59
NtRp3107
(dp3108
g62
(dp3109
g70
I3
ssg71
g3103
sg64
(lp3110
g212
asbasbasbag57
(g73
g59
NtRp3111
(dp3112
g62
(dp3113
sg71
g2792
sg64
(lp3114
g57
(g78
g59
NtRp3115
(dp3116
g62
(dp3117
g82
g83
ssg71
g3111
sg64
(lp3118
S'REMOTE_PORT'
p3119
asbag57
(g78
g59
NtRp3120
(dp3121
g62
(dp3122
g89
g90
ssg71
g3111
sg64
(lp3123
S':'
asbag57
(g78
g59
NtRp3124
(dp3125
g62
(dp3126
sg71
g3111
sg64
(lp3127
g57
(g58
g59
NtRp3128
(dp3129
g62
(dp3130
g70
I3
ssg71
g3124
sg64
(lp3131
g1486
asbasbasbag57
(g73
g59
NtRp3132
(dp3133
g62
(dp3134
sg71
g2792
sg64
(lp3135
g57
(g78
g59
NtRp3136
(dp3137
g62
(dp3138
g82
g83
ssg71
g3132
sg64
(lp3139
S'REQUEST_METHOD'
p3140
asbag57
(g78
g59
NtRp3141
(dp3142
g62
(dp3143
g89
g90
ssg71
g3132
sg64
(lp3144
S':'
asbag57
(g78
g59
NtRp3145
(dp3146
g62
(dp3147
sg71
g3132
sg64
(lp3148
g57
(g58
g59
NtRp3149
(dp3150
g62
(dp3151
g70
I3
ssg71
g3145
sg64
(lp3152
g1508
asbasbasbag57
(g73
g59
NtRp3153
(dp3154
g62
(dp3155
sg71
g2792
sg64
(lp3156
g57
(g78
g59
NtRp3157
(dp3158
g62
(dp3159
g82
g83
ssg71
g3153
sg64
(lp3160
S'REQUEST_URI'
p3161
asbag57
(g78
g59
NtRp3162
(dp3163
g62
(dp3164
g89
g90
ssg71
g3153
sg64
(lp3165
S':'
asbag57
(g78
g59
NtRp3166
(dp3167
g62
(dp3168
sg71
g3153
sg64
(lp3169
g57
(g58
g59
NtRp3170
(dp3171
g62
(dp3172
g70
I3
ssg71
g3166
sg64
(lp3173
g1422
asbasbasbag57
(g73
g59
NtRp3174
(dp3175
g62
(dp3176
sg71
g2792
sg64
(lp3177
g57
(g78
g59
NtRp3178
(dp3179
g62
(dp3180
g82
g83
ssg71
g3174
sg64
(lp3181
S'SCRIPT_NAME'
p3182
asbag57
(g78
g59
NtRp3183
(dp3184
g62
(dp3185
g89
g90
ssg71
g3174
sg64
(lp3186
S':'
asbag57
(g78
g59
NtRp3187
(dp3188
g62
(dp3189
sg71
g3174
sg64
(lp3190
g57
(g58
g59
NtRp3191
(dp3192
g62
(dp3193
g70
I3
ssg71
g3187
sg64
(lp3194
S''
asbasbasbag57
(g73
g59
NtRp3195
(dp3196
g62
(dp3197
sg71
g2792
sg64
(lp3198
g57
(g78
g59
NtRp3199
(dp3200
g62
(dp3201
g82
g83
ssg71
g3195
sg64
(lp3202
S'SERVER_NAME'
p3203
asbag57
(g78
g59
NtRp3204
(dp3205
g62
(dp3206
g89
g90
ssg71
g3195
sg64
(lp3207
S':'
asbag57
(g78
g59
NtRp3208
(dp3209
g62
(dp3210
sg71
g3195
sg64
(lp3211
g57
(g58
g59
NtRp3212
(dp3213
g62
(dp3214
g70
I3
ssg71
g3208
sg64
(lp3215
g1572
asbasbasbag57
(g73
g59
NtRp3216
(dp3217
g62
(dp3218
sg71
g2792
sg64
(lp3219
g57
(g78
g59
NtRp3220
(dp3221
g62
(dp3222
g82
g83
ssg71
g3216
sg64
(lp3223
S'SERVER_PORT'
p3224
asbag57
(g78
g59
NtRp3225
(dp3226
g62
(dp3227
g89
g90
ssg71
g3216
sg64
(lp3228
S':'
asbag57
(g78
g59
NtRp3229
(dp3230
g62
(dp3231
sg71
g3216
sg64
(lp3232
g57
(g58
g59
NtRp3233
(dp3234
g62
(dp3235
g70
I3
ssg71
g3229
sg64
(lp3236
g1594
asbasbasbag57
(g73
g59
NtRp3237
(dp3238
g62
(dp3239
sg71
g2792
sg64
(lp3240
g57
(g78
g59
NtRp3241
(dp3242
g62
(dp3243
g82
g83
ssg71
g3237
sg64
(lp3244
S'SERVER_PROTOCOL'
p3245
asbag57
(g78
g59
NtRp3246
(dp3247
g62
(dp3248
g89
g90
ssg71
g3237
sg64
(lp3249
S':'
asbag57
(g78
g59
NtRp3250
(dp3251
g62
(dp3252
sg71
g3237
sg64
(lp3253
g57
(g58
g59
NtRp3254
(dp3255
g62
(dp3256
g70
I3
ssg71
g3250
sg64
(lp3257
g1616
asbasbasbag57
(g73
g59
NtRp3258
(dp3259
g62
(dp3260
sg71
g2792
sg64
(lp3261
g57
(g78
g59
NtRp3262
(dp3263
g62
(dp3264
g82
g83
ssg71
g3258
sg64
(lp3265
S'SERVER_SOFTWARE'
p3266
asbag57
(g78
g59
NtRp3267
(dp3268
g62
(dp3269
g89
g90
ssg71
g3258
sg64
(lp3270
S':'
asbag57
(g78
g59
NtRp3271
(dp3272
g62
(dp3273
sg71
g3258
sg64
(lp3274
g57
(g58
g59
NtRp3275
(dp3276
g62
(dp3277
g70
I3
ssg71
g3271
sg64
(lp3278
g1638
asbasbasbag57
(g73
g59
NtRp3279
(dp3280
g62
(dp3281
sg71
g2792
sg64
(lp3282
g57
(g78
g59
NtRp3283
(dp3284
g62
(dp3285
g82
g83
ssg71
g3279
sg64
(lp3286
S'wsgi.errors'
p3287
asbag57
(g78
g59
NtRp3288
(dp3289
g62
(dp3290
g89
g90
ssg71
g3279
sg64
(lp3291
S':'
asbag57
(g78
g59
NtRp3292
(dp3293
g62
(dp3294
sg71
g3279
sg64
(lp3295
g57
(g58
g59
NtRp3296
(dp3297
g62
(dp3298
g70
I3
ssg71
g3292
sg64
(lp3299
S"<open file '<stderr>', mode 'w' at 0x7f6fffa09270>"
p3300
asbasbasbag57
(g73
g59
NtRp3301
(dp3302
g62
(dp3303
sg71
g2792
sg64
(lp3304
g57
(g78
g59
NtRp3305
(dp3306
g62
(dp3307
g82
g83
ssg71
g3301
sg64
(lp3308
S'wsgi.file_wrapper'
p3309
asbag57
(g78
g59
NtRp3310
(dp3311
g62
(dp3312
g89
g90
ssg71
g3301
sg64
(lp3313
S':'
asbag57
(g78
g59
NtRp3314
(dp3315
g62
(dp3316
sg71
g3301
sg64
(lp3317
g57
(g58
g59
NtRp3318
(dp3319
g62
(dp3320
g70
I3
ssg71
g3314
sg64
(lp3321
S'<class wsgiref.util.FileWrapper at 0x2b28c18>'
p3322
asbasbasbag57
(g73
g59
NtRp3323
(dp3324
g62
(dp3325
sg71
g2792
sg64
(lp3326
g57
(g78
g59
NtRp3327
(dp3328
g62
(dp3329
g82
g83
ssg71
g3323
sg64
(lp3330
S'wsgi.input'
p3331
asbag57
(g78
g59
NtRp3332
(dp3333
g62
(dp3334
g89
g90
ssg71
g3323
sg64
(lp3335
S':'
asbag57
(g78
g59
NtRp3336
(dp3337
g62
(dp3338
sg71
g3323
sg64
(lp3339
g57
(g58
g59
NtRp3340
(dp3341
g62
(dp3342
g70
I3
ssg71
g3336
sg64
(lp3343
S"<open file '<fdopen>', mode 'w+b' at 0x7f6fd4115540>"
p3344
asbasbasbag57
(g73
g59
NtRp3345
(dp3346
g62
(dp3347
sg71
g2792
sg64
(lp3348
g57
(g78
g59
NtRp3349
(dp3350
g62
(dp3351
g82
g83
ssg71
g3345
sg64
(lp3352
S'wsgi.multiprocess'
p3353
asbag57
(g78
g59
NtRp3354
(dp3355
g62
(dp3356
g89
g90
ssg71
g3345
sg64
(lp3357
S':'
asbag57
(g78
g59
NtRp3358
(dp3359
g62
(dp3360
sg71
g3345
sg64
(lp3361
g57
(g58
g59
NtRp3362
(dp3363
g62
(dp3364
g70
I3
ssg71
g3358
sg64
(lp3365
g100
asbasbasbag57
(g73
g59
NtRp3366
(dp3367
g62
(dp3368
sg71
g2792
sg64
(lp3369
g57
(g78
g59
NtRp3370
(dp3371
g62
(dp3372
g82
g83
ssg71
g3366
sg64
(lp3373
S'wsgi.multithread'
p3374
asbag57
(g78
g59
NtRp3375
(dp3376
g62
(dp3377
g89
g90
ssg71
g3366
sg64
(lp3378
S':'
asbag57
(g78
g59
NtRp3379
(dp3380
g62
(dp3381
sg71
g3366
sg64
(lp3382
g57
(g58
g59
NtRp3383
(dp3384
g62
(dp3385
g70
I3
ssg71
g3379
sg64
(lp3386
g1855
asbasbasbag57
(g73
g59
NtRp3387
(dp3388
g62
(dp3389
sg71
g2792
sg64
(lp3390
g57
(g78
g59
NtRp3391
(dp3392
g62
(dp3393
g82
g83
ssg71
g3387
sg64
(lp3394
S'wsgi.run_once'
p3395
asbag57
(g78
g59
NtRp3396
(dp3397
g62
(dp3398
g89
g90
ssg71
g3387
sg64
(lp3399
S':'
asbag57
(g78
g59
NtRp3400
(dp3401
g62
(dp3402
sg71
g3387
sg64
(lp3403
g57
(g58
g59
NtRp3404
(dp3405
g62
(dp3406
g70
I3
ssg71
g3400
sg64
(lp3407
g100
asbasbasbag57
(g73
g59
NtRp3408
(dp3409
g62
(dp3410
sg71
g2792
sg64
(lp3411
g57
(g78
g59
NtRp3412
(dp3413
g62
(dp3414
g82
g83
ssg71
g3408
sg64
(lp3415
S'wsgi.url_scheme'
p3416
asbag57
(g78
g59
NtRp3417
(dp3418
g62
(dp3419
g89
g90
ssg71
g3408
sg64
(lp3420
S':'
asbag57
(g78
g59
NtRp3421
(dp3422
g62
(dp3423
sg71
g3408
sg64
(lp3424
g57
(g58
g59
NtRp3425
(dp3426
g62
(dp3427
g70
I3
ssg71
g3421
sg64
(lp3428
g1898
asbasbasbag57
(g73
g59
NtRp3429
(dp3430
g62
(dp3431
sg71
g2792
sg64
(lp3432
g57
(g78
g59
NtRp3433
(dp3434
g62
(dp3435
g82
g83
ssg71
g3429
sg64
(lp3436
S'wsgi.version'
p3437
asbag57
(g78
g59
NtRp3438
(dp3439
g62
(dp3440
g89
g90
ssg71
g3429
sg64
(lp3441
S':'
asbag57
(g78
g59
NtRp3442
(dp3443
g62
(dp3444
sg71
g3429
sg64
(lp3445
g57
(g58
g59
NtRp3446
(dp3447
g62
(dp3448
g70
I3
ssg71
g3442
sg64
(lp3449
S'1'
asbasbasbasbasbasbasbasbasbasbasbasbasbsS'frames'
p3450
(lp3451
(dp3452
S'file'
p3453
S'/home/simran/web2py/gluon/restricted.py'
p3454
sS'dump'
p3455
(dp3456
S'environment'
p3457
S"{'A': <class 'gluon.html.A'>, 'Auth': <class 'gluon.tools.Auth'>, 'B': <class 'gluon.html.B'>, 'BEAUTIFY': <class 'gluon.html.BEAUTIFY'>, 'BODY': <class 'gluon.html.BODY'>, 'BR': <class 'gluon.html.BR'>, 'BUTTON': <class 'gluon.html.BUTTON'>, 'CAT': <class 'gluon.html.CAT'>, 'CENTER': <class 'gluon.html.CENTER'>, 'CLEANUP': <class 'gluon.validators.CLEANUP'>, ...}"
p3458
sS'ccode'
p3459
S'<code object <module> at 0x7f6fd811fb30, file "/...alendars/views/default/edit_events.html", line 1>'
p3460
ssS'lnum'
p3461
I212
sS'lines'
p3462
(dp3463
I207
S'    try:'
p3464
sI208
S'        if isinstance(code, types.CodeType):'
p3465
sI209
S'            ccode = code'
p3466
sI210
S'        else:'
p3467
sI211
S'            ccode = compile2(code, layer)'
p3468
sI212
S'        exec ccode in environment'
p3469
sI213
S'    except HTTP:'
p3470
sI214
S'        raise'
p3471
sI215
S'    except RestrictedError:'
p3472
sI216
S'        # do not encapsulate (obfuscate) the original RestrictedError'
p3473
ssS'call'
p3474
S'(code=\'response.write(\\\'<!DOCTYPE html>\\\\n<!-- paulirish....(\\\'"></script>\\\\n</body>\\\\n</html>\\\\n\\\', escape=False)\', environment={\'A\': <class \'gluon.html.A\'>, \'Auth\': <class \'gluon.tools.Auth\'>, \'B\': <class \'gluon.html.B\'>, \'BEAUTIFY\': <class \'gluon.html.BEAUTIFY\'>, \'BODY\': <class \'gluon.html.BODY\'>, \'BR\': <class \'gluon.html.BR\'>, \'BUTTON\': <class \'gluon.html.BUTTON\'>, \'CAT\': <class \'gluon.html.CAT\'>, \'CENTER\': <class \'gluon.html.CENTER\'>, \'CLEANUP\': <class \'gluon.validators.CLEANUP\'>, ...}, layer=\'/home/simran/web2py/applications/IIIT_calendars/views/default/edit_events.html\')'
p3475
sS'func'
p3476
S'restricted'
p3477
sa(dp3478
g3453
S'/home/simran/web2py/applications/IIIT_calendars/views/default/edit_events.html'
p3479
sg3455
(dp3480
sg3461
I71
sg3462
(dp3481
I64
S"    response.write('\\n        </div>\\n        ', escape=False)"
p3482
sI65
S'    pass'
p3483
sI66
S'response.write(\'\\n\\n        <div class="\', escape=False)'
p3484
sI67
S'response.write(middle_columns)'
p3485
sI68
S'response.write(\'">\\n            \', escape=False)'
p3486
sI69
S"response.write('\\n            ', escape=False)"
p3487
sI70
S"response.write('\\n', escape=False)"
p3488
sI71
S'response.write(form)'
p3489
sI72
S"response.write('\\n', escape=False)"
p3490
sI73
S"response.write('\\n            ', escape=False)"
p3491
sI74
S"response.write('\\n        </div>\\n\\n        ', escape=False)"
p3492
sI75
S'if right_sidebar_enabled:'
p3493
sI76
S'    response.write(\'\\n        <div class="span3">\\n            \', escape=False)'
p3494
sI77
S"    response.write('\\n            <h3>Right Sidebar</h3>\\n            <p></p>\\n            ', escape=False)"
p3495
sI78
S"    response.write('\\n        </div>\\n        ', escape=False)"
p3496
sI79
S'    pass'
p3497
sI80
S'response.write(\'\\n    </section><!--/main-->\\n\\n    <!-- Footer ================================================== -->\\n    <div class="row">\\n        <footer class="footer span12" id="footer">\\n            <div class="footer-content">\\n                \', escape=False)'
p3498
sI81
S'response.write(\' <!-- this is default footer -->\\n                <div class="copyright pull-left">\', escape=False)'
p3499
sI62
S'    response.write(\'\\n        <div class="span3 left-sidebar">\\n            \', escape=False)'
p3500
sI63
S"    response.write('\\n            <h3>Left Sidebar</h3>\\n            <p></p>\\n            ', escape=False)"
p3501
ssg3474
S'()'
p3502
sg3476
S'<module>'
p3503
sasS'pyver'
p3504
S'Python 2.7.3: /usr/bin/python'
p3505
sS'session'
p3506
g57
(g58
g59
NtRp3507
(dp3508
g62
(dp3509
sg64
(lp3510
g57
(g66
g59
NtRp3511
(dp3512
g62
(dp3513
g70
I5
ssg71
Nsg64
(lp3514
g57
(g73
g59
NtRp3515
(dp3516
g62
(dp3517
sg71
g3511
sg64
(lp3518
g57
(g78
g59
NtRp3519
(dp3520
g62
(dp3521
g82
g83
ssg71
g3515
sg64
(lp3522
S'auth'
p3523
asbag57
(g78
g59
NtRp3524
(dp3525
g62
(dp3526
g89
g90
ssg71
g3515
sg64
(lp3527
S':'
asbag57
(g78
g59
NtRp3528
(dp3529
g62
(dp3530
sg71
g3515
sg64
(lp3531
g57
(g58
g59
NtRp3532
(dp3533
g62
(dp3534
g70
I5
ssg71
g3528
sg64
(lp3535
g57
(g66
g59
NtRp3536
(dp3537
g62
(dp3538
g70
I4
ssg71
Nsg64
(lp3539
g57
(g73
g59
NtRp3540
(dp3541
g62
(dp3542
sg71
g3536
sg64
(lp3543
g57
(g78
g59
NtRp3544
(dp3545
g62
(dp3546
g82
g83
ssg71
g3540
sg64
(lp3547
S'expiration'
p3548
asbag57
(g78
g59
NtRp3549
(dp3550
g62
(dp3551
g89
g90
ssg71
g3540
sg64
(lp3552
S':'
asbag57
(g78
g59
NtRp3553
(dp3554
g62
(dp3555
sg71
g3540
sg64
(lp3556
g57
(g58
g59
NtRp3557
(dp3558
g62
(dp3559
g70
I4
ssg71
g3553
sg64
(lp3560
S'3600'
p3561
asbasbasbag57
(g73
g59
NtRp3562
(dp3563
g62
(dp3564
sg71
g3536
sg64
(lp3565
g57
(g78
g59
NtRp3566
(dp3567
g62
(dp3568
g82
g83
ssg71
g3562
sg64
(lp3569
S'hmac_key'
p3570
asbag57
(g78
g59
NtRp3571
(dp3572
g62
(dp3573
g89
g90
ssg71
g3562
sg64
(lp3574
S':'
asbag57
(g78
g59
NtRp3575
(dp3576
g62
(dp3577
sg71
g3562
sg64
(lp3578
g57
(g58
g59
NtRp3579
(dp3580
g62
(dp3581
g70
I4
ssg71
g3575
sg64
(lp3582
S'be390dc0-f870-44dc-a039-6ff3f2f75cbf'
p3583
asbasbasbag57
(g73
g59
NtRp3584
(dp3585
g62
(dp3586
sg71
g3536
sg64
(lp3587
g57
(g78
g59
NtRp3588
(dp3589
g62
(dp3590
g82
g83
ssg71
g3584
sg64
(lp3591
S'last_visit'
p3592
asbag57
(g78
g59
NtRp3593
(dp3594
g62
(dp3595
g89
g90
ssg71
g3584
sg64
(lp3596
S':'
asbag57
(g78
g59
NtRp3597
(dp3598
g62
(dp3599
sg71
g3584
sg64
(lp3600
g57
(g58
g59
NtRp3601
(dp3602
g62
(dp3603
g70
I4
ssg71
g3597
sg64
(lp3604
S'datetime.datetime(2013, 4, 14, 14, 1, 32, 41934)'
p3605
asbasbasbag57
(g73
g59
NtRp3606
(dp3607
g62
(dp3608
sg71
g3536
sg64
(lp3609
g57
(g78
g59
NtRp3610
(dp3611
g62
(dp3612
g82
g83
ssg71
g3606
sg64
(lp3613
S'remember'
p3614
asbag57
(g78
g59
NtRp3615
(dp3616
g62
(dp3617
g89
g90
ssg71
g3606
sg64
(lp3618
S':'
asbag57
(g78
g59
NtRp3619
(dp3620
g62
(dp3621
sg71
g3606
sg64
(lp3622
g57
(g58
g59
NtRp3623
(dp3624
g62
(dp3625
g70
I4
ssg71
g3619
sg64
(lp3626
g100
asbasbasbag57
(g73
g59
NtRp3627
(dp3628
g62
(dp3629
sg71
g3536
sg64
(lp3630
g57
(g78
g59
NtRp3631
(dp3632
g62
(dp3633
g82
g83
ssg71
g3627
sg64
(lp3634
S'user'
p3635
asbag57
(g78
g59
NtRp3636
(dp3637
g62
(dp3638
g89
g90
ssg71
g3627
sg64
(lp3639
S':'
asbag57
(g78
g59
NtRp3640
(dp3641
g62
(dp3642
sg71
g3627
sg64
(lp3643
g57
(g58
g59
NtRp3644
(dp3645
g62
(dp3646
g70
I4
ssg71
g3640
sg64
(lp3647
g57
(g66
g59
NtRp3648
(dp3649
g62
(dp3650
g70
I3
ssg71
Nsg64
(lp3651
g57
(g73
g59
NtRp3652
(dp3653
g62
(dp3654
sg71
g3648
sg64
(lp3655
g57
(g78
g59
NtRp3656
(dp3657
g62
(dp3658
g82
g83
ssg71
g3652
sg64
(lp3659
S'email'
p3660
asbag57
(g78
g59
NtRp3661
(dp3662
g62
(dp3663
g89
g90
ssg71
g3652
sg64
(lp3664
S':'
asbag57
(g78
g59
NtRp3665
(dp3666
g62
(dp3667
sg71
g3652
sg64
(lp3668
g57
(g58
g59
NtRp3669
(dp3670
g62
(dp3671
g70
I3
ssg71
g3665
sg64
(lp3672
S'simikedia93@gmail.com'
p3673
asbasbasbag57
(g73
g59
NtRp3674
(dp3675
g62
(dp3676
sg71
g3648
sg64
(lp3677
g57
(g78
g59
NtRp3678
(dp3679
g62
(dp3680
g82
g83
ssg71
g3674
sg64
(lp3681
S'first_name'
p3682
asbag57
(g78
g59
NtRp3683
(dp3684
g62
(dp3685
g89
g90
ssg71
g3674
sg64
(lp3686
S':'
asbag57
(g78
g59
NtRp3687
(dp3688
g62
(dp3689
sg71
g3674
sg64
(lp3690
g57
(g58
g59
NtRp3691
(dp3692
g62
(dp3693
g70
I3
ssg71
g3687
sg64
(lp3694
S'Simran'
p3695
asbasbasbag57
(g73
g59
NtRp3696
(dp3697
g62
(dp3698
sg71
g3648
sg64
(lp3699
g57
(g78
g59
NtRp3700
(dp3701
g62
(dp3702
g82
g83
ssg71
g3696
sg64
(lp3703
S'id'
p3704
asbag57
(g78
g59
NtRp3705
(dp3706
g62
(dp3707
g89
g90
ssg71
g3696
sg64
(lp3708
S':'
asbag57
(g78
g59
NtRp3709
(dp3710
g62
(dp3711
sg71
g3696
sg64
(lp3712
g57
(g58
g59
NtRp3713
(dp3714
g62
(dp3715
g70
I3
ssg71
g3709
sg64
(lp3716
S'17'
p3717
asbasbasbag57
(g73
g59
NtRp3718
(dp3719
g62
(dp3720
sg71
g3648
sg64
(lp3721
g57
(g78
g59
NtRp3722
(dp3723
g62
(dp3724
g82
g83
ssg71
g3718
sg64
(lp3725
S'last_name'
p3726
asbag57
(g78
g59
NtRp3727
(dp3728
g62
(dp3729
g89
g90
ssg71
g3718
sg64
(lp3730
S':'
asbag57
(g78
g59
NtRp3731
(dp3732
g62
(dp3733
sg71
g3718
sg64
(lp3734
g57
(g58
g59
NtRp3735
(dp3736
g62
(dp3737
g70
I3
ssg71
g3731
sg64
(lp3738
S'Kedia'
p3739
asbasbasbag57
(g73
g59
NtRp3740
(dp3741
g62
(dp3742
sg71
g3648
sg64
(lp3743
g57
(g78
g59
NtRp3744
(dp3745
g62
(dp3746
g82
g83
ssg71
g3740
sg64
(lp3747
S'registration_id'
p3748
asbag57
(g78
g59
NtRp3749
(dp3750
g62
(dp3751
g89
g90
ssg71
g3740
sg64
(lp3752
S':'
asbag57
(g78
g59
NtRp3753
(dp3754
g62
(dp3755
sg71
g3740
sg64
(lp3756
g57
(g58
g59
NtRp3757
(dp3758
g62
(dp3759
g70
I3
ssg71
g3753
sg64
(lp3760
S''
asbasbasbag57
(g73
g59
NtRp3761
(dp3762
g62
(dp3763
sg71
g3648
sg64
(lp3764
g57
(g78
g59
NtRp3765
(dp3766
g62
(dp3767
g82
g83
ssg71
g3761
sg64
(lp3768
S'registration_key'
p3769
asbag57
(g78
g59
NtRp3770
(dp3771
g62
(dp3772
g89
g90
ssg71
g3761
sg64
(lp3773
S':'
asbag57
(g78
g59
NtRp3774
(dp3775
g62
(dp3776
sg71
g3761
sg64
(lp3777
g57
(g58
g59
NtRp3778
(dp3779
g62
(dp3780
g70
I3
ssg71
g3774
sg64
(lp3781
S''
asbasbasbag57
(g73
g59
NtRp3782
(dp3783
g62
(dp3784
sg71
g3648
sg64
(lp3785
g57
(g78
g59
NtRp3786
(dp3787
g62
(dp3788
g82
g83
ssg71
g3782
sg64
(lp3789
S'reset_password_key'
p3790
asbag57
(g78
g59
NtRp3791
(dp3792
g62
(dp3793
g89
g90
ssg71
g3782
sg64
(lp3794
S':'
asbag57
(g78
g59
NtRp3795
(dp3796
g62
(dp3797
sg71
g3782
sg64
(lp3798
g57
(g58
g59
NtRp3799
(dp3800
g62
(dp3801
g70
I3
ssg71
g3795
sg64
(lp3802
S''
asbasbasbasbasbasbasbag57
(g73
g59
NtRp3803
(dp3804
g62
(dp3805
sg71
g3536
sg64
(lp3806
g57
(g78
g59
NtRp3807
(dp3808
g62
(dp3809
g82
g83
ssg71
g3803
sg64
(lp3810
S'user_groups'
p3811
asbag57
(g78
g59
NtRp3812
(dp3813
g62
(dp3814
g89
g90
ssg71
g3803
sg64
(lp3815
S':'
asbag57
(g78
g59
NtRp3816
(dp3817
g62
(dp3818
sg71
g3803
sg64
(lp3819
g57
(g58
g59
NtRp3820
(dp3821
g62
(dp3822
g70
I4
ssg71
g3816
sg64
(lp3823
g57
(g66
g59
NtRp3824
(dp3825
g62
(dp3826
g70
I3
ssg71
Nsg64
(lp3827
g57
(g73
g59
NtRp3828
(dp3829
g62
(dp3830
sg71
g3824
sg64
(lp3831
g57
(g78
g59
NtRp3832
(dp3833
g62
(dp3834
g82
g83
ssg71
g3828
sg64
(lp3835
S'17'
p3836
asbag57
(g78
g59
NtRp3837
(dp3838
g62
(dp3839
g89
g90
ssg71
g3828
sg64
(lp3840
S':'
asbag57
(g78
g59
NtRp3841
(dp3842
g62
(dp3843
sg71
g3828
sg64
(lp3844
g57
(g58
g59
NtRp3845
(dp3846
g62
(dp3847
g70
I3
ssg71
g3841
sg64
(lp3848
S'user_17'
p3849
asbasbasbasbasbasbasbasbasbasbasbag57
(g73
g59
NtRp3850
(dp3851
g62
(dp3852
sg71
g3511
sg64
(lp3853
g57
(g78
g59
NtRp3854
(dp3855
g62
(dp3856
g82
g83
ssg71
g3850
sg64
(lp3857
S'flash'
p3858
asbag57
(g78
g59
NtRp3859
(dp3860
g62
(dp3861
g89
g90
ssg71
g3850
sg64
(lp3862
S':'
asbag57
(g78
g59
NtRp3863
(dp3864
g62
(dp3865
sg71
g3850
sg64
(lp3866
g57
(g58
g59
NtRp3867
(dp3868
g62
(dp3869
g70
I5
ssg71
g3863
sg64
(lp3870
S'None'
p3871
asbasbasbag57
(g73
g59
NtRp3872
(dp3873
g62
(dp3874
sg71
g3511
sg64
(lp3875
g57
(g78
g59
NtRp3876
(dp3877
g62
(dp3878
g82
g83
ssg71
g3872
sg64
(lp3879
S'last_orderby'
p3880
asbag57
(g78
g59
NtRp3881
(dp3882
g62
(dp3883
g89
g90
ssg71
g3872
sg64
(lp3884
S':'
asbag57
(g78
g59
NtRp3885
(dp3886
g62
(dp3887
sg71
g3872
sg64
(lp3888
g57
(g58
g59
NtRp3889
(dp3890
g62
(dp3891
g70
I5
ssg71
g3885
sg64
(lp3892
S'None'
p3893
asbasbasbag57
(g73
g59
NtRp3894
(dp3895
g62
(dp3896
sg71
g3511
sg64
(lp3897
g57
(g78
g59
NtRp3898
(dp3899
g62
(dp3900
g82
g83
ssg71
g3894
sg64
(lp3901
S'last_query'
p3902
asbag57
(g78
g59
NtRp3903
(dp3904
g62
(dp3905
g89
g90
ssg71
g3894
sg64
(lp3906
S':'
asbag57
(g78
g59
NtRp3907
(dp3908
g62
(dp3909
sg71
g3894
sg64
(lp3910
g57
(g58
g59
NtRp3911
(dp3912
g62
(dp3913
g70
I5
ssg71
g3907
sg64
(lp3914
S'db.auth_user.id>0'
p3915
asbasbasbasbasbsS'etype'
p3916
S"<type 'exceptions.NameError'>"
p3917
sS'date'
p3918
S'Sun Apr 14 14:02:00 2013'
p3919
sS'response'
p3920
g57
(g58
g59
NtRp3921
(dp3922
g62
(dp3923
sg64
(lp3924
g57
(g66
g59
NtRp3925
(dp3926
g62
(dp3927
g70
I5
ssg71
Nsg64
(lp3928
g57
(g73
g59
NtRp3929
(dp3930
g62
(dp3931
sg71
g3925
sg64
(lp3932
g57
(g78
g59
NtRp3933
(dp3934
g62
(dp3935
g82
g83
ssg71
g3929
sg64
(lp3936
g155
asbag57
(g78
g59
NtRp3937
(dp3938
g62
(dp3939
g89
g90
ssg71
g3929
sg64
(lp3940
S':'
asbag57
(g78
g59
NtRp3941
(dp3942
g62
(dp3943
sg71
g3929
sg64
(lp3944
g57
(g58
g59
NtRp3945
(dp3946
g62
(dp3947
g70
I5
ssg71
g3941
sg64
(lp3948
S'<cStringIO.StringO object at 0x7f6fd4269a08>'
p3949
asbasbasbag57
(g73
g59
NtRp3950
(dp3951
g62
(dp3952
sg71
g3925
sg64
(lp3953
g57
(g78
g59
NtRp3954
(dp3955
g62
(dp3956
g82
g83
ssg71
g3950
sg64
(lp3957
g243
asbag57
(g78
g59
NtRp3958
(dp3959
g62
(dp3960
g89
g90
ssg71
g3950
sg64
(lp3961
S':'
asbag57
(g78
g59
NtRp3962
(dp3963
g62
(dp3964
sg71
g3950
sg64
(lp3965
g57
(g58
g59
NtRp3966
(dp3967
g62
(dp3968
g70
I5
ssg71
g3962
sg64
(lp3969
g57
(g66
g59
NtRp3970
(dp3971
g62
(dp3972
g70
I4
ssg71
Nsg64
(lp3973
g57
(g73
g59
NtRp3974
(dp3975
g62
(dp3976
sg71
g3970
sg64
(lp3977
g57
(g78
g59
NtRp3978
(dp3979
g62
(dp3980
g82
g83
ssg71
g3974
sg64
(lp3981
S'session_id_iiit_calendars'
p3982
asbag57
(g78
g59
NtRp3983
(dp3984
g62
(dp3985
g89
g90
ssg71
g3974
sg64
(lp3986
S':'
asbag57
(g78
g59
NtRp3987
(dp3988
g62
(dp3989
sg71
g3974
sg64
(lp3990
g57
(g58
g59
NtRp3991
(dp3992
g62
(dp3993
g70
I4
ssg71
g3987
sg64
(lp3994
g475
ag57
(g66
g59
NtRp3995
(dp3996
g62
(dp3997
g70
I3
ssg71
Nsg64
(lp3998
g57
(g73
g59
NtRp3999
(dp4000
g62
(dp4001
sg71
g3995
sg64
(lp4002
g57
(g78
g59
NtRp4003
(dp4004
g62
(dp4005
g82
g83
ssg71
g3999
sg64
(lp4006
g294
asbag57
(g78
g59
NtRp4007
(dp4008
g62
(dp4009
g89
g90
ssg71
g3999
sg64
(lp4010
S':'
asbag57
(g78
g59
NtRp4011
(dp4012
g62
(dp4013
sg71
g3999
sg64
(lp4014
g57
(g58
g59
NtRp4015
(dp4016
g62
(dp4017
g70
I3
ssg71
g4011
sg64
(lp4018
S''
asbasbasbag57
(g73
g59
NtRp4019
(dp4020
g62
(dp4021
sg71
g3995
sg64
(lp4022
g57
(g78
g59
NtRp4023
(dp4024
g62
(dp4025
g82
g83
ssg71
g4019
sg64
(lp4026
g315
asbag57
(g78
g59
NtRp4027
(dp4028
g62
(dp4029
g89
g90
ssg71
g4019
sg64
(lp4030
S':'
asbag57
(g78
g59
NtRp4031
(dp4032
g62
(dp4033
sg71
g4019
sg64
(lp4034
g57
(g58
g59
NtRp4035
(dp4036
g62
(dp4037
g70
I3
ssg71
g4031
sg64
(lp4038
S''
asbasbasbag57
(g73
g59
NtRp4039
(dp4040
g62
(dp4041
sg71
g3995
sg64
(lp4042
g57
(g78
g59
NtRp4043
(dp4044
g62
(dp4045
g82
g83
ssg71
g4039
sg64
(lp4046
g336
asbag57
(g78
g59
NtRp4047
(dp4048
g62
(dp4049
g89
g90
ssg71
g4039
sg64
(lp4050
S':'
asbag57
(g78
g59
NtRp4051
(dp4052
g62
(dp4053
sg71
g4039
sg64
(lp4054
g57
(g58
g59
NtRp4055
(dp4056
g62
(dp4057
g70
I3
ssg71
g4051
sg64
(lp4058
S''
asbasbasbag57
(g73
g59
NtRp4059
(dp4060
g62
(dp4061
sg71
g3995
sg64
(lp4062
g57
(g78
g59
NtRp4063
(dp4064
g62
(dp4065
g82
g83
ssg71
g4059
sg64
(lp4066
g357
asbag57
(g78
g59
NtRp4067
(dp4068
g62
(dp4069
g89
g90
ssg71
g4059
sg64
(lp4070
S':'
asbag57
(g78
g59
NtRp4071
(dp4072
g62
(dp4073
sg71
g4059
sg64
(lp4074
g57
(g58
g59
NtRp4075
(dp4076
g62
(dp4077
g70
I3
ssg71
g4071
sg64
(lp4078
S''
asbasbasbag57
(g73
g59
NtRp4079
(dp4080
g62
(dp4081
sg71
g3995
sg64
(lp4082
g57
(g78
g59
NtRp4083
(dp4084
g62
(dp4085
g82
g83
ssg71
g4079
sg64
(lp4086
g378
asbag57
(g78
g59
NtRp4087
(dp4088
g62
(dp4089
g89
g90
ssg71
g4079
sg64
(lp4090
S':'
asbag57
(g78
g59
NtRp4091
(dp4092
g62
(dp4093
sg71
g4079
sg64
(lp4094
g57
(g58
g59
NtRp4095
(dp4096
g62
(dp4097
g70
I3
ssg71
g4091
sg64
(lp4098
S''
asbasbasbag57
(g73
g59
NtRp4099
(dp4100
g62
(dp4101
sg71
g3995
sg64
(lp4102
g57
(g78
g59
NtRp4103
(dp4104
g62
(dp4105
g82
g83
ssg71
g4099
sg64
(lp4106
g399
asbag57
(g78
g59
NtRp4107
(dp4108
g62
(dp4109
g89
g90
ssg71
g4099
sg64
(lp4110
S':'
asbag57
(g78
g59
NtRp4111
(dp4112
g62
(dp4113
sg71
g4099
sg64
(lp4114
g57
(g58
g59
NtRp4115
(dp4116
g62
(dp4117
g70
I3
ssg71
g4111
sg64
(lp4118
S'/'
asbasbasbag57
(g73
g59
NtRp4119
(dp4120
g62
(dp4121
sg71
g3995
sg64
(lp4122
g57
(g78
g59
NtRp4123
(dp4124
g62
(dp4125
g82
g83
ssg71
g4119
sg64
(lp4126
g420
asbag57
(g78
g59
NtRp4127
(dp4128
g62
(dp4129
g89
g90
ssg71
g4119
sg64
(lp4130
S':'
asbag57
(g78
g59
NtRp4131
(dp4132
g62
(dp4133
sg71
g4119
sg64
(lp4134
g57
(g58
g59
NtRp4135
(dp4136
g62
(dp4137
g70
I3
ssg71
g4131
sg64
(lp4138
S''
asbasbasbag57
(g73
g59
NtRp4139
(dp4140
g62
(dp4141
sg71
g3995
sg64
(lp4142
g57
(g78
g59
NtRp4143
(dp4144
g62
(dp4145
g82
g83
ssg71
g4139
sg64
(lp4146
g441
asbag57
(g78
g59
NtRp4147
(dp4148
g62
(dp4149
g89
g90
ssg71
g4139
sg64
(lp4150
S':'
asbag57
(g78
g59
NtRp4151
(dp4152
g62
(dp4153
sg71
g4139
sg64
(lp4154
g57
(g58
g59
NtRp4155
(dp4156
g62
(dp4157
g70
I3
ssg71
g4151
sg64
(lp4158
S''
asbasbasbasbasbasbasbasbasbasbasbag57
(g73
g59
NtRp4159
(dp4160
g62
(dp4161
sg71
g3925
sg64
(lp4162
g57
(g78
g59
NtRp4163
(dp4164
g62
(dp4165
g82
g83
ssg71
g4159
sg64
(lp4166
S'delimiters'
p4167
asbag57
(g78
g59
NtRp4168
(dp4169
g62
(dp4170
g89
g90
ssg71
g4159
sg64
(lp4171
S':'
asbag57
(g78
g59
NtRp4172
(dp4173
g62
(dp4174
sg71
g4159
sg64
(lp4175
g57
(g58
g59
NtRp4176
(dp4177
g62
(dp4178
g70
I5
ssg71
g4172
sg64
(lp4179
g57
(g66
g59
NtRp4180
(dp4181
g62
(dp4182
g70
I4
ssg71
Nsg64
(lp4183
g57
(g73
g59
NtRp4184
(dp4185
g62
(dp4186
sg71
g4180
sg64
(lp4187
g57
(g78
g59
NtRp4188
(dp4189
g62
(dp4190
sg71
g4184
sg64
(lp4191
g57
(g58
g59
NtRp4192
(dp4193
g62
(dp4194
g70
I4
ssg71
g4188
sg64
(lp4195
S'{{'
p4196
asbasbasbag57
(g73
g59
NtRp4197
(dp4198
g62
(dp4199
sg71
g4180
sg64
(lp4200
g57
(g78
g59
NtRp4201
(dp4202
g62
(dp4203
sg71
g4197
sg64
(lp4204
g57
(g58
g59
NtRp4205
(dp4206
g62
(dp4207
g70
I4
ssg71
g4201
sg64
(lp4208
S'}}'
p4209
asbasbasbasbasbasbasbag57
(g73
g59
NtRp4210
(dp4211
g62
(dp4212
sg71
g3925
sg64
(lp4213
g57
(g78
g59
NtRp4214
(dp4215
g62
(dp4216
g82
g83
ssg71
g4210
sg64
(lp4217
S'files'
p4218
asbag57
(g78
g59
NtRp4219
(dp4220
g62
(dp4221
g89
g90
ssg71
g4210
sg64
(lp4222
S':'
asbag57
(g78
g59
NtRp4223
(dp4224
g62
(dp4225
sg71
g4210
sg64
(lp4226
g57
(g58
g59
NtRp4227
(dp4228
g62
(dp4229
g70
I5
ssg71
g4223
sg64
(lp4230
g57
(g66
g59
NtRp4231
(dp4232
g62
(dp4233
g70
I4
ssg71
Nsg64
(lp4234
g57
(g73
g59
NtRp4235
(dp4236
g62
(dp4237
sg71
g4231
sg64
(lp4238
g57
(g78
g59
NtRp4239
(dp4240
g62
(dp4241
sg71
g4235
sg64
(lp4242
g57
(g58
g59
NtRp4243
(dp4244
g62
(dp4245
g70
I4
ssg71
g4239
sg64
(lp4246
S'/IIIT_calendars/static/js/jquery.js'
p4247
asbasbasbag57
(g73
g59
NtRp4248
(dp4249
g62
(dp4250
sg71
g4231
sg64
(lp4251
g57
(g78
g59
NtRp4252
(dp4253
g62
(dp4254
sg71
g4248
sg64
(lp4255
g57
(g58
g59
NtRp4256
(dp4257
g62
(dp4258
g70
I4
ssg71
g4252
sg64
(lp4259
S'/IIIT_calendars/static/css/calendar.css'
p4260
asbasbasbag57
(g73
g59
NtRp4261
(dp4262
g62
(dp4263
sg71
g4231
sg64
(lp4264
g57
(g78
g59
NtRp4265
(dp4266
g62
(dp4267
sg71
g4261
sg64
(lp4268
g57
(g58
g59
NtRp4269
(dp4270
g62
(dp4271
g70
I4
ssg71
g4265
sg64
(lp4272
S'/IIIT_calendars/static/js/calendar.js'
p4273
asbasbasbag57
(g73
g59
NtRp4274
(dp4275
g62
(dp4276
sg71
g4231
sg64
(lp4277
g57
(g78
g59
NtRp4278
(dp4279
g62
(dp4280
sg71
g4274
sg64
(lp4281
g57
(g58
g59
NtRp4282
(dp4283
g62
(dp4284
g70
I4
ssg71
g4278
sg64
(lp4285
S'/IIIT_calendars/static/js/web2py.js'
p4286
asbasbasbag57
(g73
g59
NtRp4287
(dp4288
g62
(dp4289
sg71
g4231
sg64
(lp4290
g57
(g78
g59
NtRp4291
(dp4292
g62
(dp4293
sg71
g4287
sg64
(lp4294
g57
(g58
g59
NtRp4295
(dp4296
g62
(dp4297
g70
I4
ssg71
g4291
sg64
(lp4298
S'/IIIT_calendars/static/css/web2py.css'
p4299
asbasbasbag57
(g73
g59
NtRp4300
(dp4301
g62
(dp4302
sg71
g4231
sg64
(lp4303
g57
(g78
g59
NtRp4304
(dp4305
g62
(dp4306
sg71
g4300
sg64
(lp4307
g57
(g58
g59
NtRp4308
(dp4309
g62
(dp4310
g70
I4
ssg71
g4304
sg64
(lp4311
S'/IIIT_calendars/static/css/bootstrap.min.css'
p4312
asbasbasbag57
(g73
g59
NtRp4313
(dp4314
g62
(dp4315
sg71
g4231
sg64
(lp4316
g57
(g78
g59
NtRp4317
(dp4318
g62
(dp4319
sg71
g4313
sg64
(lp4320
g57
(g58
g59
NtRp4321
(dp4322
g62
(dp4323
g70
I4
ssg71
g4317
sg64
(lp4324
S'/IIIT_calendars/static/css/bootstrap-responsive.min.css'
p4325
asbasbasbag57
(g73
g59
NtRp4326
(dp4327
g62
(dp4328
sg71
g4231
sg64
(lp4329
g57
(g78
g59
NtRp4330
(dp4331
g62
(dp4332
sg71
g4326
sg64
(lp4333
g57
(g58
g59
NtRp4334
(dp4335
g62
(dp4336
g70
I4
ssg71
g4330
sg64
(lp4337
S'/IIIT_calendars/static/css/web2py_bootstrap.css'
p4338
asbasbasbasbasbasbasbag57
(g73
g59
NtRp4339
(dp4340
g62
(dp4341
sg71
g3925
sg64
(lp4342
g57
(g78
g59
NtRp4343
(dp4344
g62
(dp4345
g82
g83
ssg71
g4339
sg64
(lp4346
S'flash'
p4347
asbag57
(g78
g59
NtRp4348
(dp4349
g62
(dp4350
g89
g90
ssg71
g4339
sg64
(lp4351
S':'
asbag57
(g78
g59
NtRp4352
(dp4353
g62
(dp4354
sg71
g4339
sg64
(lp4355
g57
(g58
g59
NtRp4356
(dp4357
g62
(dp4358
g70
I5
ssg71
g4352
sg64
(lp4359
S''
asbasbasbag57
(g73
g59
NtRp4360
(dp4361
g62
(dp4362
sg71
g3925
sg64
(lp4363
g57
(g78
g59
NtRp4364
(dp4365
g62
(dp4366
g82
g83
ssg71
g4360
sg64
(lp4367
S'generic_patterns'
p4368
asbag57
(g78
g59
NtRp4369
(dp4370
g62
(dp4371
g89
g90
ssg71
g4360
sg64
(lp4372
S':'
asbag57
(g78
g59
NtRp4373
(dp4374
g62
(dp4375
sg71
g4360
sg64
(lp4376
g57
(g58
g59
NtRp4377
(dp4378
g62
(dp4379
g70
I5
ssg71
g4373
sg64
(lp4380
g57
(g66
g59
NtRp4381
(dp4382
g62
(dp4383
g70
I4
ssg71
Nsg64
(lp4384
g57
(g73
g59
NtRp4385
(dp4386
g62
(dp4387
sg71
g4381
sg64
(lp4388
g57
(g78
g59
NtRp4389
(dp4390
g62
(dp4391
sg71
g4385
sg64
(lp4392
g57
(g58
g59
NtRp4393
(dp4394
g62
(dp4395
g70
I4
ssg71
g4389
sg64
(lp4396
S'*'
asbasbasbasbasbasbasbag57
(g73
g59
NtRp4397
(dp4398
g62
(dp4399
sg71
g3925
sg64
(lp4400
g57
(g78
g59
NtRp4401
(dp4402
g62
(dp4403
g82
g83
ssg71
g4397
sg64
(lp4404
S'google_analytics_id'
p4405
asbag57
(g78
g59
NtRp4406
(dp4407
g62
(dp4408
g89
g90
ssg71
g4397
sg64
(lp4409
S':'
asbag57
(g78
g59
NtRp4410
(dp4411
g62
(dp4412
sg71
g4397
sg64
(lp4413
g57
(g58
g59
NtRp4414
(dp4415
g62
(dp4416
g70
I5
ssg71
g4410
sg64
(lp4417
S'None'
p4418
asbasbasbag57
(g73
g59
NtRp4419
(dp4420
g62
(dp4421
sg71
g3925
sg64
(lp4422
g57
(g78
g59
NtRp4423
(dp4424
g62
(dp4425
g82
g83
ssg71
g4419
sg64
(lp4426
S'headers'
p4427
asbag57
(g78
g59
NtRp4428
(dp4429
g62
(dp4430
g89
g90
ssg71
g4419
sg64
(lp4431
S':'
asbag57
(g78
g59
NtRp4432
(dp4433
g62
(dp4434
sg71
g4419
sg64
(lp4435
g57
(g58
g59
NtRp4436
(dp4437
g62
(dp4438
g70
I5
ssg71
g4432
sg64
(lp4439
g57
(g66
g59
NtRp4440
(dp4441
g62
(dp4442
g70
I4
ssg71
Nsg64
(lp4443
g57
(g73
g59
NtRp4444
(dp4445
g62
(dp4446
sg71
g4440
sg64
(lp4447
g57
(g78
g59
NtRp4448
(dp4449
g62
(dp4450
g82
g83
ssg71
g4444
sg64
(lp4451
S'X-Powered-By'
p4452
asbag57
(g78
g59
NtRp4453
(dp4454
g62
(dp4455
g89
g90
ssg71
g4444
sg64
(lp4456
S':'
asbag57
(g78
g59
NtRp4457
(dp4458
g62
(dp4459
sg71
g4444
sg64
(lp4460
g57
(g58
g59
NtRp4461
(dp4462
g62
(dp4463
g70
I4
ssg71
g4457
sg64
(lp4464
S'web2py'
p4465
asbasbasbasbasbasbasbag57
(g73
g59
NtRp4466
(dp4467
g62
(dp4468
sg71
g3925
sg64
(lp4469
g57
(g78
g59
NtRp4470
(dp4471
g62
(dp4472
g82
g83
ssg71
g4466
sg64
(lp4473
S'logo'
p4474
asbag57
(g78
g59
NtRp4475
(dp4476
g62
(dp4477
g89
g90
ssg71
g4466
sg64
(lp4478
S':'
asbag57
(g78
g59
NtRp4479
(dp4480
g62
(dp4481
sg71
g4466
sg64
(lp4482
g57
(g58
g59
NtRp4483
(dp4484
g62
(dp4485
g70
I5
ssg71
g4479
sg64
(lp4486
g57
(cgluon.html
A
p4487
g59
NtRp4488
(dp4489
g62
(dp4490
S'_class'
p4491
S'brand'
p4492
sS'_href'
p4493
S'http://www.web2py.com/'
p4494
ssg71
Nsg64
(lp4495
g57
(cgluon.html
B
p4496
g59
NtRp4497
(dp4498
g62
(dp4499
sg71
g4488
sg64
(lp4500
S'web'
p4501
ag57
(cgluon.html
SPAN
p4502
g59
NtRp4503
(dp4504
g62
(dp4505
sg71
g4497
sg64
(lp4506
I2
asbaS'py'
p4507
asbacgluon.html
XML_unpickle
p4508
(S's\r\x00\x00\x00&trade;&nbsp;'
tRp4509
asbasbasbasbag57
(g73
g59
NtRp4510
(dp4511
g62
(dp4512
sg71
g3925
sg64
(lp4513
g57
(g78
g59
NtRp4514
(dp4515
g62
(dp4516
g82
g83
ssg71
g4510
sg64
(lp4517
S'menu'
p4518
asbag57
(g78
g59
NtRp4519
(dp4520
g62
(dp4521
g89
g90
ssg71
g4510
sg64
(lp4522
S':'
asbag57
(g78
g59
NtRp4523
(dp4524
g62
(dp4525
sg71
g4510
sg64
(lp4526
g57
(g58
g59
NtRp4527
(dp4528
g62
(dp4529
g70
I5
ssg71
g4523
sg64
(lp4530
g57
(g66
g59
NtRp4531
(dp4532
g62
(dp4533
g70
I4
ssg71
Nsg64
(lp4534
g57
(g73
g59
NtRp4535
(dp4536
g62
(dp4537
sg71
g4531
sg64
(lp4538
g57
(g78
g59
NtRp4539
(dp4540
g62
(dp4541
sg71
g4535
sg64
(lp4542
g57
(g58
g59
NtRp4543
(dp4544
g62
(dp4545
g70
I4
ssg71
g4539
sg64
(lp4546
g57
(g66
g59
NtRp4547
(dp4548
g62
(dp4549
g70
I3
ssg71
Nsg64
(lp4550
g57
(g73
g59
NtRp4551
(dp4552
g62
(dp4553
sg71
g4547
sg64
(lp4554
g57
(g78
g59
NtRp4555
(dp4556
g62
(dp4557
sg71
g4551
sg64
(lp4558
g57
(g58
g59
NtRp4559
(dp4560
g62
(dp4561
g70
I3
ssg71
g4555
sg64
(lp4562
cgluon.languages
lazyT_unpickle
p4563
(S's\x04\x00\x00\x00Home'
tRp4564
asbasbasbag57
(g73
g59
NtRp4565
(dp4566
g62
(dp4567
sg71
g4547
sg64
(lp4568
g57
(g78
g59
NtRp4569
(dp4570
g62
(dp4571
sg71
g4565
sg64
(lp4572
g57
(g58
g59
NtRp4573
(dp4574
g62
(dp4575
g70
I3
ssg71
g4569
sg64
(lp4576
g100
asbasbasbag57
(g73
g59
NtRp4577
(dp4578
g62
(dp4579
sg71
g4547
sg64
(lp4580
g57
(g78
g59
NtRp4581
(dp4582
g62
(dp4583
sg71
g4577
sg64
(lp4584
g57
(g58
g59
NtRp4585
(dp4586
g62
(dp4587
g70
I3
ssg71
g4581
sg64
(lp4588
S'/IIIT_calendars/default/index'
p4589
asbasbasbag57
(g73
g59
NtRp4590
(dp4591
g62
(dp4592
sg71
g4547
sg64
(lp4593
g57
(g78
g59
NtRp4594
(dp4595
g62
(dp4596
sg71
g4590
sg64
(lp4597
g57
(g58
g59
NtRp4598
(dp4599
g62
(dp4600
g70
I3
ssg71
g4594
sg64
(lp4601
g57
(g66
g59
NtRp4602
(dp4603
g62
(dp4604
g70
I2
ssg71
Nsg64
(lp4605
sbasbasbasbasbasbasbasbag57
(g73
g59
NtRp4606
(dp4607
g62
(dp4608
sg71
g4531
sg64
(lp4609
g57
(g78
g59
NtRp4610
(dp4611
g62
(dp4612
sg71
g4606
sg64
(lp4613
g57
(g58
g59
NtRp4614
(dp4615
g62
(dp4616
g70
I4
ssg71
g4610
sg64
(lp4617
g57
(g66
g59
NtRp4618
(dp4619
g62
(dp4620
g70
I3
ssg71
Nsg64
(lp4621
g57
(g73
g59
NtRp4622
(dp4623
g62
(dp4624
sg71
g4618
sg64
(lp4625
g57
(g78
g59
NtRp4626
(dp4627
g62
(dp4628
sg71
g4622
sg64
(lp4629
g57
(g58
g59
NtRp4630
(dp4631
g62
(dp4632
g70
I3
ssg71
g4626
sg64
(lp4633
g57
(g4502
g59
NtRp4634
(dp4635
g62
(dp4636
g4491
S'highlighted'
p4637
ssg71
Nsg64
(lp4638
g4465
asbasbasbasbag57
(g73
g59
NtRp4639
(dp4640
g62
(dp4641
sg71
g4618
sg64
(lp4642
g57
(g78
g59
NtRp4643
(dp4644
g62
(dp4645
sg71
g4639
sg64
(lp4646
g57
(g58
g59
NtRp4647
(dp4648
g62
(dp4649
g70
I3
ssg71
g4643
sg64
(lp4650
g100
asbasbasbag57
(g73
g59
NtRp4651
(dp4652
g62
(dp4653
sg71
g4618
sg64
(lp4654
g57
(g78
g59
NtRp4655
(dp4656
g62
(dp4657
sg71
g4651
sg64
(lp4658
g57
(g58
g59
NtRp4659
(dp4660
g62
(dp4661
g70
I3
ssg71
g4655
sg64
(lp4662
S'http://web2py.com'
p4663
asbasbasbag57
(g73
g59
NtRp4664
(dp4665
g62
(dp4666
sg71
g4618
sg64
(lp4667
g57
(g78
g59
NtRp4668
(dp4669
g62
(dp4670
sg71
g4664
sg64
(lp4671
g57
(g58
g59
NtRp4672
(dp4673
g62
(dp4674
g70
I3
ssg71
g4668
sg64
(lp4675
g57
(g66
g59
NtRp4676
(dp4677
g62
(dp4678
g70
I2
ssg71
Nsg64
(lp4679
g57
(g73
g59
NtRp4680
(dp4681
g62
(dp4682
sg71
g4676
sg64
(lp4683
g57
(g78
g59
NtRp4684
(dp4685
g62
(dp4686
sg71
g4680
sg64
(lp4687
g57
(g58
g59
NtRp4688
(dp4689
g62
(dp4690
g70
I2
ssg71
g4684
sg64
(lp4691
g57
(g66
g59
NtRp4692
(dp4693
g62
(dp4694
g70
I1
ssg71
Nsg64
(lp4695
g57
(g73
g59
NtRp4696
(dp4697
g62
(dp4698
sg71
g4692
sg64
(lp4699
g57
(g78
g59
NtRp4700
(dp4701
g62
(dp4702
sg71
g4696
sg64
(lp4703
g57
(g58
g59
NtRp4704
(dp4705
g62
(dp4706
g70
I1
ssg71
g4700
sg64
(lp4707
g4563
(S's\x08\x00\x00\x00My Sites'
tRp4708
asbasbasbag57
(g73
g59
NtRp4709
(dp4710
g62
(dp4711
sg71
g4692
sg64
(lp4712
g57
(g78
g59
NtRp4713
(dp4714
g62
(dp4715
sg71
g4709
sg64
(lp4716
g57
(g58
g59
NtRp4717
(dp4718
g62
(dp4719
g70
I1
ssg71
g4713
sg64
(lp4720
I00
asbasbasbag57
(g73
g59
NtRp4721
(dp4722
g62
(dp4723
sg71
g4692
sg64
(lp4724
g57
(g78
g59
NtRp4725
(dp4726
g62
(dp4727
sg71
g4721
sg64
(lp4728
g57
(g58
g59
NtRp4729
(dp4730
g62
(dp4731
g70
I1
ssg71
g4725
sg64
(lp4732
S'/admin/default/site'
p4733
asbasbasbasbasbasbasbag57
(g73
g59
NtRp4734
(dp4735
g62
(dp4736
sg71
g4676
sg64
(lp4737
g57
(g78
g59
NtRp4738
(dp4739
g62
(dp4740
sg71
g4734
sg64
(lp4741
g57
(g58
g59
NtRp4742
(dp4743
g62
(dp4744
g70
I2
ssg71
g4738
sg64
(lp4745
g57
(g66
g59
NtRp4746
(dp4747
g62
(dp4748
g70
I1
ssg71
Nsg64
(lp4749
g57
(g73
g59
NtRp4750
(dp4751
g62
(dp4752
sg71
g4746
sg64
(lp4753
g57
(g78
g59
NtRp4754
(dp4755
g62
(dp4756
sg71
g4750
sg64
(lp4757
g57
(g58
g59
NtRp4758
(dp4759
g62
(dp4760
g70
I1
ssg71
g4754
sg64
(lp4761
g4563
(S's\x08\x00\x00\x00This App'
tRp4762
asbasbasbag57
(g73
g59
NtRp4763
(dp4764
g62
(dp4765
sg71
g4746
sg64
(lp4766
g57
(g78
g59
NtRp4767
(dp4768
g62
(dp4769
sg71
g4763
sg64
(lp4770
g57
(g58
g59
NtRp4771
(dp4772
g62
(dp4773
g70
I1
ssg71
g4767
sg64
(lp4774
I00
asbasbasbag57
(g73
g59
NtRp4775
(dp4776
g62
(dp4777
sg71
g4746
sg64
(lp4778
g57
(g78
g59
NtRp4779
(dp4780
g62
(dp4781
sg71
g4775
sg64
(lp4782
g57
(g58
g59
NtRp4783
(dp4784
g62
(dp4785
g70
I1
ssg71
g4779
sg64
(lp4786
S'/admin/default/design/IIIT_calendars'
p4787
asbasbasbag57
(g73
g59
NtRp4788
(dp4789
g62
(dp4790
sg71
g4746
sg64
(lp4791
g57
(g78
g59
NtRp4792
(dp4793
g62
(dp4794
sg71
g4788
sg64
(lp4795
g57
(g58
g59
NtRp4796
(dp4797
g62
(dp4798
g70
I1
ssg71
g4792
sg64
(lp4799
(lp4800
(g4563
(S's\n\x00\x00\x00Controller'
tRp4801
I00
S'/admin/default/edit/IIIT_calendars/controllers/default.py'
tp4802
a(g4563
(S's\x04\x00\x00\x00View'
tRp4803
I00
S'/admin/default/edit/IIIT_calendars/views/default/edit_events.html'
tp4804
a(g4563
(S's\x06\x00\x00\x00Layout'
tRp4805
I00
S'/admin/default/edit/IIIT_calendars/views/layout.html'
tp4806
a(g4563
(S's\n\x00\x00\x00Stylesheet'
tRp4807
I00
S'/admin/default/edit/IIIT_calendars/static/css/web2py.css'
tp4808
a(g4563
(S's\x08\x00\x00\x00DB Model'
tRp4809
I00
S'/admin/default/edit/IIIT_calendars/models/db.py'
tp4810
a(g4563
(S's\n\x00\x00\x00Menu Model'
tRp4811
I00
S'/admin/default/edit/IIIT_calendars/models/menu.py'
tp4812
a(g4563
(S's\x08\x00\x00\x00Database'
tRp4813
I00
S'/IIIT_calendars/appadmin/index'
tp4814
a(g4563
(S's\x06\x00\x00\x00Errors'
tRp4815
I00
S'/admin/default/errors/IIIT_calendars'
tp4816
a(g4563
(S's\x05\x00\x00\x00About'
tRp4817
I00
S'/admin/default/about/IIIT_calendars'
tp4818
aasbasbasbasbasbasbasbag57
(g73
g59
NtRp4819
(dp4820
g62
(dp4821
sg71
g4676
sg64
(lp4822
g57
(g78
g59
NtRp4823
(dp4824
g62
(dp4825
sg71
g4819
sg64
(lp4826
g57
(g58
g59
NtRp4827
(dp4828
g62
(dp4829
g70
I2
ssg71
g4823
sg64
(lp4830
g57
(g66
g59
NtRp4831
(dp4832
g62
(dp4833
g70
I1
ssg71
Nsg64
(lp4834
g57
(g73
g59
NtRp4835
(dp4836
g62
(dp4837
sg71
g4831
sg64
(lp4838
g57
(g78
g59
NtRp4839
(dp4840
g62
(dp4841
sg71
g4835
sg64
(lp4842
g57
(g58
g59
NtRp4843
(dp4844
g62
(dp4845
g70
I1
ssg71
g4839
sg64
(lp4846
S'web2py.com'
p4847
asbasbasbag57
(g73
g59
NtRp4848
(dp4849
g62
(dp4850
sg71
g4831
sg64
(lp4851
g57
(g78
g59
NtRp4852
(dp4853
g62
(dp4854
sg71
g4848
sg64
(lp4855
g57
(g58
g59
NtRp4856
(dp4857
g62
(dp4858
g70
I1
ssg71
g4852
sg64
(lp4859
I00
asbasbasbag57
(g73
g59
NtRp4860
(dp4861
g62
(dp4862
sg71
g4831
sg64
(lp4863
g57
(g78
g59
NtRp4864
(dp4865
g62
(dp4866
sg71
g4860
sg64
(lp4867
g57
(g58
g59
NtRp4868
(dp4869
g62
(dp4870
g70
I1
ssg71
g4864
sg64
(lp4871
S'http://www.web2py.com'
p4872
asbasbasbag57
(g73
g59
NtRp4873
(dp4874
g62
(dp4875
sg71
g4831
sg64
(lp4876
g57
(g78
g59
NtRp4877
(dp4878
g62
(dp4879
sg71
g4873
sg64
(lp4880
g57
(g58
g59
NtRp4881
(dp4882
g62
(dp4883
g70
I1
ssg71
g4877
sg64
(lp4884
(lp4885
(g4563
(S's\x08\x00\x00\x00Download'
tRp4886
I00
S'http://www.web2py.com/examples/default/download'
p4887
tp4888
a(g4563
(S's\x07\x00\x00\x00Support'
tRp4889
I00
S'http://www.web2py.com/examples/default/support'
p4890
tp4891
a(g4563
(S's\x04\x00\x00\x00Demo'
tRp4892
I00
S'http://web2py.com/demo_admin'
p4893
tp4894
a(g4563
(S's\x0e\x00\x00\x00Quick Examples'
tRp4895
I00
S'http://web2py.com/examples/default/examples'
p4896
tp4897
a(g4563
(S's\x03\x00\x00\x00FAQ'
tRp4898
I00
S'http://web2py.com/AlterEgo'
p4899
tp4900
a(g4563
(S's\x06\x00\x00\x00Videos'
tRp4901
I00
S'http://www.web2py.com/examples/default/videos/'
p4902
tp4903
a(g4563
(S's\x11\x00\x00\x00Free Applications'
tRp4904
I00
S'http://web2py.com/appliances'
p4905
tp4906
a(g4563
(S's\x07\x00\x00\x00Plugins'
tRp4907
I00
S'http://web2py.com/plugins'
p4908
tp4909
a(g4563
(S's\x07\x00\x00\x00Layouts'
tRp4910
I00
S'http://web2py.com/layouts'
p4911
tp4912
a(g4563
(S's\x07\x00\x00\x00Recipes'
tRp4913
I00
S'http://web2pyslices.com/'
p4914
tp4915
a(g4563
(S's\x08\x00\x00\x00Semantic'
tRp4916
I00
S'http://web2py.com/semantic'
p4917
tp4918
aasbasbasbasbasbasbasbag57
(g73
g59
NtRp4919
(dp4920
g62
(dp4921
sg71
g4676
sg64
(lp4922
g57
(g78
g59
NtRp4923
(dp4924
g62
(dp4925
sg71
g4919
sg64
(lp4926
g57
(g58
g59
NtRp4927
(dp4928
g62
(dp4929
g70
I2
ssg71
g4923
sg64
(lp4930
g57
(g66
g59
NtRp4931
(dp4932
g62
(dp4933
g70
I1
ssg71
Nsg64
(lp4934
g57
(g73
g59
NtRp4935
(dp4936
g62
(dp4937
sg71
g4931
sg64
(lp4938
g57
(g78
g59
NtRp4939
(dp4940
g62
(dp4941
sg71
g4935
sg64
(lp4942
g57
(g58
g59
NtRp4943
(dp4944
g62
(dp4945
g70
I1
ssg71
g4939
sg64
(lp4946
g4563
(S's\r\x00\x00\x00Documentation'
tRp4947
asbasbasbag57
(g73
g59
NtRp4948
(dp4949
g62
(dp4950
sg71
g4931
sg64
(lp4951
g57
(g78
g59
NtRp4952
(dp4953
g62
(dp4954
sg71
g4948
sg64
(lp4955
g57
(g58
g59
NtRp4956
(dp4957
g62
(dp4958
g70
I1
ssg71
g4952
sg64
(lp4959
I00
asbasbasbag57
(g73
g59
NtRp4960
(dp4961
g62
(dp4962
sg71
g4931
sg64
(lp4963
g57
(g78
g59
NtRp4964
(dp4965
g62
(dp4966
sg71
g4960
sg64
(lp4967
g57
(g58
g59
NtRp4968
(dp4969
g62
(dp4970
g70
I1
ssg71
g4964
sg64
(lp4971
S'http://www.web2py.com/book'
p4972
asbasbasbag57
(g73
g59
NtRp4973
(dp4974
g62
(dp4975
sg71
g4931
sg64
(lp4976
g57
(g78
g59
NtRp4977
(dp4978
g62
(dp4979
sg71
g4973
sg64
(lp4980
g57
(g58
g59
NtRp4981
(dp4982
g62
(dp4983
g70
I1
ssg71
g4977
sg64
(lp4984
(lp4985
(g4563
(S's\x07\x00\x00\x00Preface'
tRp4986
I00
S'http://www.web2py.com/book/default/chapter/00'
p4987
tp4988
a(g4563
(S's\x0c\x00\x00\x00Introduction'
tRp4989
I00
S'http://www.web2py.com/book/default/chapter/01'
p4990
tp4991
a(g4563
(S's\x06\x00\x00\x00Python'
tRp4992
I00
S'http://www.web2py.com/book/default/chapter/02'
p4993
tp4994
a(g4563
(S's\x08\x00\x00\x00Overview'
tRp4995
I00
S'http://www.web2py.com/book/default/chapter/03'
p4996
tp4997
a(g4563
(S's\x08\x00\x00\x00The Core'
tRp4998
I00
S'http://www.web2py.com/book/default/chapter/04'
p4999
tp5000
a(g4563
(S's\t\x00\x00\x00The Views'
tRp5001
I00
S'http://www.web2py.com/book/default/chapter/05'
p5002
tp5003
a(g4563
(S's\x08\x00\x00\x00Database'
tRp5004
I00
S'http://www.web2py.com/book/default/chapter/06'
p5005
tp5006
a(g4563
(S's\x14\x00\x00\x00Forms and Validators'
tRp5007
I00
S'http://www.web2py.com/book/default/chapter/07'
p5008
tp5009
a(g4563
(S's\r\x00\x00\x00Email and SMS'
tRp5010
I00
S'http://www.web2py.com/book/default/chapter/08'
p5011
tp5012
a(g4563
(S's\x0e\x00\x00\x00Access Control'
tRp5013
I00
S'http://www.web2py.com/book/default/chapter/09'
p5014
tp5015
a(g4563
(S's\x08\x00\x00\x00Services'
tRp5016
I00
S'http://www.web2py.com/book/default/chapter/10'
p5017
tp5018
a(g4563
(S's\x0c\x00\x00\x00Ajax Recipes'
tRp5019
I00
S'http://www.web2py.com/book/default/chapter/11'
p5020
tp5021
a(g4563
(S's\x16\x00\x00\x00Components and Plugins'
tRp5022
I00
S'http://www.web2py.com/book/default/chapter/12'
p5023
tp5024
a(g4563
(S's\x12\x00\x00\x00Deployment Recipes'
tRp5025
I00
S'http://www.web2py.com/book/default/chapter/13'
p5026
tp5027
a(g4563
(S's\r\x00\x00\x00Other Recipes'
tRp5028
I00
S'http://www.web2py.com/book/default/chapter/14'
p5029
tp5030
a(g4563
(S's\r\x00\x00\x00Buy this book'
tRp5031
I00
S'http://stores.lulu.com/web2py'
p5032
tp5033
aasbasbasbasbasbasbasbag57
(g73
g59
NtRp5034
(dp5035
g62
(dp5036
sg71
g4676
sg64
(lp5037
g57
(g78
g59
NtRp5038
(dp5039
g62
(dp5040
sg71
g5034
sg64
(lp5041
g57
(g58
g59
NtRp5042
(dp5043
g62
(dp5044
g70
I2
ssg71
g5038
sg64
(lp5045
g57
(g66
g59
NtRp5046
(dp5047
g62
(dp5048
g70
I1
ssg71
Nsg64
(lp5049
g57
(g73
g59
NtRp5050
(dp5051
g62
(dp5052
sg71
g5046
sg64
(lp5053
g57
(g78
g59
NtRp5054
(dp5055
g62
(dp5056
sg71
g5050
sg64
(lp5057
g57
(g58
g59
NtRp5058
(dp5059
g62
(dp5060
g70
I1
ssg71
g5054
sg64
(lp5061
g4563
(S's\t\x00\x00\x00Community'
tRp5062
asbasbasbag57
(g73
g59
NtRp5063
(dp5064
g62
(dp5065
sg71
g5046
sg64
(lp5066
g57
(g78
g59
NtRp5067
(dp5068
g62
(dp5069
sg71
g5063
sg64
(lp5070
g57
(g58
g59
NtRp5071
(dp5072
g62
(dp5073
g70
I1
ssg71
g5067
sg64
(lp5074
I00
asbasbasbag57
(g73
g59
NtRp5075
(dp5076
g62
(dp5077
sg71
g5046
sg64
(lp5078
g57
(g78
g59
NtRp5079
(dp5080
g62
(dp5081
sg71
g5075
sg64
(lp5082
g57
(g58
g59
NtRp5083
(dp5084
g62
(dp5085
g70
I1
ssg71
g5079
sg64
(lp5086
Nasbasbasbag57
(g73
g59
NtRp5087
(dp5088
g62
(dp5089
sg71
g5046
sg64
(lp5090
g57
(g78
g59
NtRp5091
(dp5092
g62
(dp5093
sg71
g5087
sg64
(lp5094
g57
(g58
g59
NtRp5095
(dp5096
g62
(dp5097
g70
I1
ssg71
g5091
sg64
(lp5098
(lp5099
(g4563
(S's\x06\x00\x00\x00Groups'
tRp5100
I00
S'http://www.web2py.com/examples/default/usergroups'
p5101
tp5102
a(g4563
(S's\x07\x00\x00\x00Twitter'
tRp5103
I00
S'http://twitter.com/web2py'
p5104
tp5105
a(g4563
(S's\t\x00\x00\x00Live Chat'
tRp5106
I00
S'http://webchat.freenode.net/?channels=web2py'
p5107
tp5108
aasbasbasbasbasbasbasbag57
(g73
g59
NtRp5109
(dp5110
g62
(dp5111
sg71
g4676
sg64
(lp5112
g57
(g78
g59
NtRp5113
(dp5114
g62
(dp5115
sg71
g5109
sg64
(lp5116
g57
(g58
g59
NtRp5117
(dp5118
g62
(dp5119
g70
I2
ssg71
g5113
sg64
(lp5120
g57
(g66
g59
NtRp5121
(dp5122
g62
(dp5123
g70
I1
ssg71
Nsg64
(lp5124
g57
(g73
g59
NtRp5125
(dp5126
g62
(dp5127
sg71
g5121
sg64
(lp5128
g57
(g78
g59
NtRp5129
(dp5130
g62
(dp5131
sg71
g5125
sg64
(lp5132
g57
(g58
g59
NtRp5133
(dp5134
g62
(dp5135
g70
I1
ssg71
g5129
sg64
(lp5136
g4563
(S's\x07\x00\x00\x00Plugins'
tRp5137
asbasbasbag57
(g73
g59
NtRp5138
(dp5139
g62
(dp5140
sg71
g5121
sg64
(lp5141
g57
(g78
g59
NtRp5142
(dp5143
g62
(dp5144
sg71
g5138
sg64
(lp5145
g57
(g58
g59
NtRp5146
(dp5147
g62
(dp5148
g70
I1
ssg71
g5142
sg64
(lp5149
I00
asbasbasbag57
(g73
g59
NtRp5150
(dp5151
g62
(dp5152
sg71
g5121
sg64
(lp5153
g57
(g78
g59
NtRp5154
(dp5155
g62
(dp5156
sg71
g5150
sg64
(lp5157
g57
(g58
g59
NtRp5158
(dp5159
g62
(dp5160
g70
I1
ssg71
g5154
sg64
(lp5161
Nasbasbasbag57
(g73
g59
NtRp5162
(dp5163
g62
(dp5164
sg71
g5121
sg64
(lp5165
g57
(g78
g59
NtRp5166
(dp5167
g62
(dp5168
sg71
g5162
sg64
(lp5169
g57
(g58
g59
NtRp5170
(dp5171
g62
(dp5172
g70
I1
ssg71
g5166
sg64
(lp5173
(lp5174
(S'plugin_wiki'
p5175
I00
S'http://web2py.com/examples/default/download'
p5176
tp5177
a(g4563
(S's\r\x00\x00\x00Other Plugins'
tRp5178
I00
g4908
tp5179
a(g4563
(S's\x0e\x00\x00\x00Layout Plugins'
tRp5180
I00
g4911
tp5181
aasbasbasbasbasbasbasbasbasbasbasbasbasbasbasbasbasbasbasbag57
(g73
g59
NtRp5182
(dp5183
g62
(dp5184
sg71
g3925
sg64
(lp5185
g57
(g78
g59
NtRp5186
(dp5187
g62
(dp5188
g82
g83
ssg71
g5182
sg64
(lp5189
S'meta'
p5190
asbag57
(g78
g59
NtRp5191
(dp5192
g62
(dp5193
g89
g90
ssg71
g5182
sg64
(lp5194
S':'
asbag57
(g78
g59
NtRp5195
(dp5196
g62
(dp5197
sg71
g5182
sg64
(lp5198
g57
(g58
g59
NtRp5199
(dp5200
g62
(dp5201
g70
I5
ssg71
g5195
sg64
(lp5202
g57
(g66
g59
NtRp5203
(dp5204
g62
(dp5205
g70
I4
ssg71
Nsg64
(lp5206
g57
(g73
g59
NtRp5207
(dp5208
g62
(dp5209
sg71
g5203
sg64
(lp5210
g57
(g78
g59
NtRp5211
(dp5212
g62
(dp5213
g82
g83
ssg71
g5207
sg64
(lp5214
S'author'
p5215
asbag57
(g78
g59
NtRp5216
(dp5217
g62
(dp5218
g89
g90
ssg71
g5207
sg64
(lp5219
S':'
asbag57
(g78
g59
NtRp5220
(dp5221
g62
(dp5222
sg71
g5207
sg64
(lp5223
g57
(g58
g59
NtRp5224
(dp5225
g62
(dp5226
g70
I4
ssg71
g5220
sg64
(lp5227
S'Your Name <you@example.com>'
p5228
asbasbasbag57
(g73
g59
NtRp5229
(dp5230
g62
(dp5231
sg71
g5203
sg64
(lp5232
g57
(g78
g59
NtRp5233
(dp5234
g62
(dp5235
g82
g83
ssg71
g5229
sg64
(lp5236
S'description'
p5237
asbag57
(g78
g59
NtRp5238
(dp5239
g62
(dp5240
g89
g90
ssg71
g5229
sg64
(lp5241
S':'
asbag57
(g78
g59
NtRp5242
(dp5243
g62
(dp5244
sg71
g5229
sg64
(lp5245
g57
(g58
g59
NtRp5246
(dp5247
g62
(dp5248
g70
I4
ssg71
g5242
sg64
(lp5249
S'a cool new app'
p5250
asbasbasbag57
(g73
g59
NtRp5251
(dp5252
g62
(dp5253
sg71
g5203
sg64
(lp5254
g57
(g78
g59
NtRp5255
(dp5256
g62
(dp5257
g82
g83
ssg71
g5251
sg64
(lp5258
S'generator'
p5259
asbag57
(g78
g59
NtRp5260
(dp5261
g62
(dp5262
g89
g90
ssg71
g5251
sg64
(lp5263
S':'
asbag57
(g78
g59
NtRp5264
(dp5265
g62
(dp5266
sg71
g5251
sg64
(lp5267
g57
(g58
g59
NtRp5268
(dp5269
g62
(dp5270
g70
I4
ssg71
g5264
sg64
(lp5271
S'Web2py Web Framework'
p5272
asbasbasbag57
(g73
g59
NtRp5273
(dp5274
g62
(dp5275
sg71
g5203
sg64
(lp5276
g57
(g78
g59
NtRp5277
(dp5278
g62
(dp5279
g82
g83
ssg71
g5273
sg64
(lp5280
S'keywords'
p5281
asbag57
(g78
g59
NtRp5282
(dp5283
g62
(dp5284
g89
g90
ssg71
g5273
sg64
(lp5285
S':'
asbag57
(g78
g59
NtRp5286
(dp5287
g62
(dp5288
sg71
g5273
sg64
(lp5289
g57
(g58
g59
NtRp5290
(dp5291
g62
(dp5292
g70
I4
ssg71
g5286
sg64
(lp5293
S'web2py, python, framework'
p5294
asbasbasbasbasbasbasbag57
(g73
g59
NtRp5295
(dp5296
g62
(dp5297
sg71
g3925
sg64
(lp5298
g57
(g78
g59
NtRp5299
(dp5300
g62
(dp5301
g82
g83
ssg71
g5295
sg64
(lp5302
S'models_to_run'
p5303
asbag57
(g78
g59
NtRp5304
(dp5305
g62
(dp5306
g89
g90
ssg71
g5295
sg64
(lp5307
S':'
asbag57
(g78
g59
NtRp5308
(dp5309
g62
(dp5310
sg71
g5295
sg64
(lp5311
g57
(g58
g59
NtRp5312
(dp5313
g62
(dp5314
g70
I5
ssg71
g5308
sg64
(lp5315
g57
(g66
g59
NtRp5316
(dp5317
g62
(dp5318
g70
I4
ssg71
Nsg64
(lp5319
g57
(g73
g59
NtRp5320
(dp5321
g62
(dp5322
sg71
g5316
sg64
(lp5323
g57
(g78
g59
NtRp5324
(dp5325
g62
(dp5326
sg71
g5320
sg64
(lp5327
g57
(g58
g59
NtRp5328
(dp5329
g62
(dp5330
g70
I4
ssg71
g5324
sg64
(lp5331
S'^\\w+\\.py$'
p5332
asbasbasbag57
(g73
g59
NtRp5333
(dp5334
g62
(dp5335
sg71
g5316
sg64
(lp5336
g57
(g78
g59
NtRp5337
(dp5338
g62
(dp5339
sg71
g5333
sg64
(lp5340
g57
(g58
g59
NtRp5341
(dp5342
g62
(dp5343
g70
I4
ssg71
g5337
sg64
(lp5344
S'^default/\\w+\\.py$'
p5345
asbasbasbag57
(g73
g59
NtRp5346
(dp5347
g62
(dp5348
sg71
g5316
sg64
(lp5349
g57
(g78
g59
NtRp5350
(dp5351
g62
(dp5352
sg71
g5346
sg64
(lp5353
g57
(g58
g59
NtRp5354
(dp5355
g62
(dp5356
g70
I4
ssg71
g5350
sg64
(lp5357
S'^default/edit_events/\\w+\\.py$'
p5358
asbasbasbasbasbasbasbag57
(g73
g59
NtRp5359
(dp5360
g62
(dp5361
sg71
g3925
sg64
(lp5362
g57
(g78
g59
NtRp5363
(dp5364
g62
(dp5365
g82
g83
ssg71
g5359
sg64
(lp5366
S'postprocessing'
p5367
asbag57
(g78
g59
NtRp5368
(dp5369
g62
(dp5370
g89
g90
ssg71
g5359
sg64
(lp5371
S':'
asbag57
(g78
g59
NtRp5372
(dp5373
g62
(dp5374
sg71
g5359
sg64
(lp5375
g57
(g58
g59
NtRp5376
(dp5377
g62
(dp5378
g70
I5
ssg71
g5372
sg64
(lp5379
g57
(g66
g59
NtRp5380
(dp5381
g62
(dp5382
g70
I4
ssg71
Nsg64
(lp5383
sbasbasbasbag57
(g73
g59
NtRp5384
(dp5385
g62
(dp5386
sg71
g3925
sg64
(lp5387
g57
(g78
g59
NtRp5388
(dp5389
g62
(dp5390
g82
g83
ssg71
g5384
sg64
(lp5391
S'session_cookie_expires'
p5392
asbag57
(g78
g59
NtRp5393
(dp5394
g62
(dp5395
g89
g90
ssg71
g5384
sg64
(lp5396
S':'
asbag57
(g78
g59
NtRp5397
(dp5398
g62
(dp5399
sg71
g5384
sg64
(lp5400
g57
(g58
g59
NtRp5401
(dp5402
g62
(dp5403
g70
I5
ssg71
g5397
sg64
(lp5404
S'None'
p5405
asbasbasbag57
(g73
g59
NtRp5406
(dp5407
g62
(dp5408
sg71
g3925
sg64
(lp5409
g57
(g78
g59
NtRp5410
(dp5411
g62
(dp5412
g82
g83
ssg71
g5406
sg64
(lp5413
S'session_data_name'
p5414
asbag57
(g78
g59
NtRp5415
(dp5416
g62
(dp5417
g89
g90
ssg71
g5406
sg64
(lp5418
S':'
asbag57
(g78
g59
NtRp5419
(dp5420
g62
(dp5421
sg71
g5406
sg64
(lp5422
g57
(g58
g59
NtRp5423
(dp5424
g62
(dp5425
g70
I5
ssg71
g5419
sg64
(lp5426
S'session_data_iiit_calendars'
p5427
asbasbasbag57
(g73
g59
NtRp5428
(dp5429
g62
(dp5430
sg71
g3925
sg64
(lp5431
g57
(g78
g59
NtRp5432
(dp5433
g62
(dp5434
g82
g83
ssg71
g5428
sg64
(lp5435
S'session_file'
p5436
asbag57
(g78
g59
NtRp5437
(dp5438
g62
(dp5439
g89
g90
ssg71
g5428
sg64
(lp5440
S':'
asbag57
(g78
g59
NtRp5441
(dp5442
g62
(dp5443
sg71
g5428
sg64
(lp5444
g57
(g58
g59
NtRp5445
(dp5446
g62
(dp5447
g70
I5
ssg71
g5441
sg64
(lp5448
S"<open file '/home/simran/web2py/applications/IIIT_calendars/sessions/127.0.0.1-b512d376-91dc-477e-99ca-2b27d7ad4a7a', mode 'rb+' at 0x7f6fd4115b70>"
p5449
asbasbasbag57
(g73
g59
NtRp5450
(dp5451
g62
(dp5452
sg71
g3925
sg64
(lp5453
g57
(g78
g59
NtRp5454
(dp5455
g62
(dp5456
g82
g83
ssg71
g5450
sg64
(lp5457
S'session_filename'
p5458
asbag57
(g78
g59
NtRp5459
(dp5460
g62
(dp5461
g89
g90
ssg71
g5450
sg64
(lp5462
S':'
asbag57
(g78
g59
NtRp5463
(dp5464
g62
(dp5465
sg71
g5450
sg64
(lp5466
g57
(g58
g59
NtRp5467
(dp5468
g62
(dp5469
g70
I5
ssg71
g5463
sg64
(lp5470
S'/home/simran/web2py/applications/IIIT_calendars/sessions/127.0.0.1-b512d376-91dc-477e-99ca-2b27d7ad4a7a'
p5471
asbasbasbag57
(g73
g59
NtRp5472
(dp5473
g62
(dp5474
sg71
g3925
sg64
(lp5475
g57
(g78
g59
NtRp5476
(dp5477
g62
(dp5478
g82
g83
ssg71
g5472
sg64
(lp5479
S'session_id'
p5480
asbag57
(g78
g59
NtRp5481
(dp5482
g62
(dp5483
g89
g90
ssg71
g5472
sg64
(lp5484
S':'
asbag57
(g78
g59
NtRp5485
(dp5486
g62
(dp5487
sg71
g5472
sg64
(lp5488
g57
(g58
g59
NtRp5489
(dp5490
g62
(dp5491
g70
I5
ssg71
g5485
sg64
(lp5492
g475
asbasbasbag57
(g73
g59
NtRp5493
(dp5494
g62
(dp5495
sg71
g3925
sg64
(lp5496
g57
(g78
g59
NtRp5497
(dp5498
g62
(dp5499
g82
g83
ssg71
g5493
sg64
(lp5500
S'session_id_name'
p5501
asbag57
(g78
g59
NtRp5502
(dp5503
g62
(dp5504
g89
g90
ssg71
g5493
sg64
(lp5505
S':'
asbag57
(g78
g59
NtRp5506
(dp5507
g62
(dp5508
sg71
g5493
sg64
(lp5509
g57
(g58
g59
NtRp5510
(dp5511
g62
(dp5512
g70
I5
ssg71
g5506
sg64
(lp5513
g3982
asbasbasbag57
(g73
g59
NtRp5514
(dp5515
g62
(dp5516
sg71
g3925
sg64
(lp5517
g57
(g78
g59
NtRp5518
(dp5519
g62
(dp5520
g82
g83
ssg71
g5514
sg64
(lp5521
S'session_locked'
p5522
asbag57
(g78
g59
NtRp5523
(dp5524
g62
(dp5525
g89
g90
ssg71
g5514
sg64
(lp5526
S':'
asbag57
(g78
g59
NtRp5527
(dp5528
g62
(dp5529
sg71
g5514
sg64
(lp5530
g57
(g58
g59
NtRp5531
(dp5532
g62
(dp5533
g70
I5
ssg71
g5527
sg64
(lp5534
g1855
asbasbasbag57
(g73
g59
NtRp5535
(dp5536
g62
(dp5537
sg71
g3925
sg64
(lp5538
g57
(g78
g59
NtRp5539
(dp5540
g62
(dp5541
g82
g83
ssg71
g5535
sg64
(lp5542
S'session_new'
p5543
asbag57
(g78
g59
NtRp5544
(dp5545
g62
(dp5546
g89
g90
ssg71
g5535
sg64
(lp5547
S':'
asbag57
(g78
g59
NtRp5548
(dp5549
g62
(dp5550
sg71
g5535
sg64
(lp5551
g57
(g58
g59
NtRp5552
(dp5553
g62
(dp5554
g70
I5
ssg71
g5548
sg64
(lp5555
g100
asbasbasbag57
(g73
g59
NtRp5556
(dp5557
g62
(dp5558
sg71
g3925
sg64
(lp5559
g57
(g78
g59
NtRp5560
(dp5561
g62
(dp5562
g82
g83
ssg71
g5556
sg64
(lp5563
S'session_storage_type'
p5564
asbag57
(g78
g59
NtRp5565
(dp5566
g62
(dp5567
g89
g90
ssg71
g5556
sg64
(lp5568
S':'
asbag57
(g78
g59
NtRp5569
(dp5570
g62
(dp5571
sg71
g5556
sg64
(lp5572
g57
(g58
g59
NtRp5573
(dp5574
g62
(dp5575
g70
I5
ssg71
g5569
sg64
(lp5576
g3453
asbasbasbag57
(g73
g59
NtRp5577
(dp5578
g62
(dp5579
sg71
g3925
sg64
(lp5580
g57
(g78
g59
NtRp5581
(dp5582
g62
(dp5583
g82
g83
ssg71
g5577
sg64
(lp5584
S'status'
p5585
asbag57
(g78
g59
NtRp5586
(dp5587
g62
(dp5588
g89
g90
ssg71
g5577
sg64
(lp5589
S':'
asbag57
(g78
g59
NtRp5590
(dp5591
g62
(dp5592
sg71
g5577
sg64
(lp5593
g57
(g58
g59
NtRp5594
(dp5595
g62
(dp5596
g70
I5
ssg71
g5590
sg64
(lp5597
S'200'
p5598
asbasbasbag57
(g73
g59
NtRp5599
(dp5600
g62
(dp5601
sg71
g3925
sg64
(lp5602
g57
(g78
g59
NtRp5603
(dp5604
g62
(dp5605
g82
g83
ssg71
g5599
sg64
(lp5606
S'subtitle'
p5607
asbag57
(g78
g59
NtRp5608
(dp5609
g62
(dp5610
g89
g90
ssg71
g5599
sg64
(lp5611
S':'
asbag57
(g78
g59
NtRp5612
(dp5613
g62
(dp5614
sg71
g5599
sg64
(lp5615
g57
(g58
g59
NtRp5616
(dp5617
g62
(dp5618
g70
I5
ssg71
g5612
sg64
(lp5619
g4563
(S's\r\x00\x00\x00customize me!'
tRp5620
asbasbasbag57
(g73
g59
NtRp5621
(dp5622
g62
(dp5623
sg71
g3925
sg64
(lp5624
g57
(g78
g59
NtRp5625
(dp5626
g62
(dp5627
g82
g83
ssg71
g5621
sg64
(lp5628
S'title'
p5629
asbag57
(g78
g59
NtRp5630
(dp5631
g62
(dp5632
g89
g90
ssg71
g5621
sg64
(lp5633
S':'
asbag57
(g78
g59
NtRp5634
(dp5635
g62
(dp5636
sg71
g5621
sg64
(lp5637
g57
(g58
g59
NtRp5638
(dp5639
g62
(dp5640
g70
I5
ssg71
g5634
sg64
(lp5641
S'Iiit Calendars'
p5642
asbasbasbag57
(g73
g59
NtRp5643
(dp5644
g62
(dp5645
sg71
g3925
sg64
(lp5646
g57
(g78
g59
NtRp5647
(dp5648
g62
(dp5649
g82
g83
ssg71
g5643
sg64
(lp5650
S'view'
p5651
asbag57
(g78
g59
NtRp5652
(dp5653
g62
(dp5654
g89
g90
ssg71
g5643
sg64
(lp5655
S':'
asbag57
(g78
g59
NtRp5656
(dp5657
g62
(dp5658
sg71
g5643
sg64
(lp5659
g57
(g58
g59
NtRp5660
(dp5661
g62
(dp5662
g70
I5
ssg71
g5656
sg64
(lp5663
S'default/edit_events.html'
p5664
asbasbasbasbasbsS'locals'
p5665
(dp5666
S'Service'
p5667
S"<class 'gluon.tools.Service'>"
p5668
sS'OBJECT'
p5669
S"<class 'gluon.html.OBJECT'>"
p5670
sS'SQLDB'
p5671
S"<class 'gluon.dal.DAL'>"
p5672
sg3506
S"<Storage {'last_query': 'db.auth_user.id>0', '_f...login]': '72d939e5-88e1-499d-b3bb-1e5af3c02f33'}>"
p5673
sS'LINK'
p5674
S"<class 'gluon.html.LINK'>"
p5675
sS'BR'
p5676
S"<class 'gluon.html.BR'>"
p5677
sS'local_import'
p5678
S'<function <lambda>>'
p5679
sS'all_'
p5680
S'None'
p5681
sS'__package__'
p5682
S'None'
p5683
sS'PRE'
p5684
S"<class 'gluon.html.PRE'>"
p5685
sS'IS_INT_IN_RANGE'
p5686
S"<class 'gluon.validators.IS_INT_IN_RANGE'>"
p5687
sS'left_sidebar_enabled'
p5688
g100
sS'IS_LOWER'
p5689
S"<class 'gluon.validators.IS_LOWER'>"
p5690
sS'IS_STRONG'
p5691
S"<class 'gluon.validators.IS_STRONG'>"
p5692
sS'cache'
p5693
S'<gluon.cache.Cache object>'
p5694
sS'IS_IN_DB'
p5695
S"<class 'gluon.validators.IS_IN_DB'>"
p5696
sS'TAG'
p5697
S'<gluon.html.__TAG__ object>'
p5698
sS'SQLField'
p5699
S"<class 'gluon.dal.Field'>"
p5700
sS'mail'
p5701
S'<gluon.tools.Mail object>'
p5702
sS'BODY'
p5703
S"<class 'gluon.html.BODY'>"
p5704
sS'IS_DATE_IN_RANGE'
p5705
S"<class 'gluon.validators.IS_DATE_IN_RANGE'>"
p5706
sS'IFRAME'
p5707
S"<class 'gluon.html.IFRAME'>"
p5708
sS'URL'
p5709
S'<function URL>'
p5710
sS'__file__'
p5711
S"'/home/simran/web2py/applications/IIIT_calendars/views/default/edit_events.html'"
p5712
sS'db'
p5713
S'<DAL uri="sqlite://storage.sqlite">'
p5714
sS'auth'
p5715
S'<gluon.tools.Auth object>'
p5716
sS'P'
S"<class 'gluon.html.P'>"
p5717
sS'TFOOT'
p5718
S"<class 'gluon.html.TFOOT'>"
p5719
sS'XHTML'
p5720
S"<class 'gluon.html.XHTML'>"
p5721
sS'datetime'
p5722
S"<module 'datetime' from '/usr/lib/python2.7/lib-dynload/datetime.so'>"
p5723
sS'ON'
p5724
g1855
sS'OL'
p5725
S"<class 'gluon.html.OL'>"
p5726
sS'TEXTAREA'
p5727
S"<class 'gluon.html.TEXTAREA'>"
p5728
sS'MENU'
p5729
S"<class 'gluon.html.MENU'>"
p5730
sS'eve'
p5731
S'None'
p5732
sS'IS_IMAGE'
p5733
S"<class 'gluon.validators.IS_IMAGE'>"
p5734
sS'EM'
p5735
S"<class 'gluon.html.EM'>"
p5736
sS'CODE'
p5737
S"<class 'gluon.html.CODE'>"
p5738
sS'HTTP'
p5739
S"<class 'gluon.http.HTTP'>"
p5740
sS'HR'
p5741
S"<class 'gluon.html.HR'>"
p5742
sS'IS_DATETIME'
p5743
S"<class 'gluon.validators.IS_DATETIME'>"
p5744
sS'STYLE'
p5745
S"<class 'gluon.html.STYLE'>"
p5746
sS'LABEL'
p5747
S"<class 'gluon.html.LABEL'>"
p5748
sS'OPTGROUP'
p5749
S"<class 'gluon.html.OPTGROUP'>"
p5750
sS'CLEANUP'
p5751
S"<class 'gluon.validators.CLEANUP'>"
p5752
sS'plugins'
p5753
S'<gluon.tools.PluginManager object>'
p5754
sS'SELECT'
p5755
S"<class 'gluon.html.SELECT'>"
p5756
sS'even'
p5757
S'None'
p5758
sS'use_janrain'
p5759
S'<function use_janrain>'
p5760
sS'CENTER'
p5761
S"<class 'gluon.html.CENTER'>"
p5762
sS'prettydate'
p5763
S'<function prettydate>'
p5764
sS'Crud'
p5765
S"<class 'gluon.tools.Crud'>"
p5766
sS'Auth'
p5767
S"<class 'gluon.tools.Auth'>"
p5768
sS'DEVELOPMENT_MENU'
p5769
g1855
sS'__builtins__'
p5770
S"{'ArithmeticError': <type 'exceptions.ArithmeticError'>, 'AssertionError': <type 'exceptions.AssertionError'>, 'AttributeError': <type 'exceptions.AttributeError'>, 'BaseException': <type 'exceptions.BaseException'>, 'BufferError': <type 'exceptions.BufferError'>, 'BytesWarning': <type 'exceptions.BytesWarning'>, 'DeprecationWarning': <type 'exceptions.DeprecationWarning'>, 'EOFError': <type 'exceptions.EOFError'>, 'Ellipsis': Ellipsis, 'EnvironmentError': <type 'exceptions.EnvironmentError'>, ...}"
p5771
sS'HTML'
p5772
S"<class 'gluon.html.HTML'>"
p5773
sS'SQLFORM'
p5774
S"<class 'gluon.sqlhtml.SQLFORM'>"
p5775
sS'LOAD'
p5776
S'<function LOAD>'
p5777
sS'redirect'
p5778
S'<function redirect>'
p5779
sS'FIELDSET'
p5780
S"<class 'gluon.html.FIELDSET'>"
p5781
sS'IS_EQUAL_TO'
p5782
S"<class 'gluon.validators.IS_EQUAL_TO'>"
p5783
sS'embed64'
p5784
S'<function embed64>'
p5785
sS'IS_LIST_OF'
p5786
S"<class 'gluon.validators.IS_LIST_OF'>"
p5787
sS'INPUT'
p5788
S"<class 'gluon.html.INPUT'>"
p5789
sS'EMBED'
p5790
S"<class 'gluon.html.EMBED'>"
p5791
sS'_'
S'<function _>'
p5792
sS'c'
S'<Rows (0)>'
p5793
sS'H2'
p5794
S"<class 'gluon.html.H2'>"
p5795
sS'H3'
p5796
S"<class 'gluon.html.H3'>"
p5797
sS'BUTTON'
p5798
S"<class 'gluon.html.BUTTON'>"
p5799
sS'H1'
p5800
S"<class 'gluon.html.H1'>"
p5801
sS'H6'
p5802
S"<class 'gluon.html.H6'>"
p5803
sS'H4'
p5804
S"<class 'gluon.html.H4'>"
p5805
sS'H5'
p5806
S"<class 'gluon.html.H5'>"
p5807
sS'UL'
p5808
S"<class 'gluon.html.UL'>"
p5809
sS'IS_UPPER'
p5810
S"<class 'gluon.validators.IS_UPPER'>"
p5811
sS'xmlescape'
p5812
S'<function xmlescape>'
p5813
sS'IS_TIME'
p5814
S"<class 'gluon.validators.IS_TIME'>"
p5815
sS'OPTION'
p5816
S"<class 'gluon.html.OPTION'>"
p5817
sS'TITLE'
p5818
S"<class 'gluon.html.TITLE'>"
p5819
sS'CRYPT'
p5820
S"<class 'gluon.validators.CRYPT'>"
p5821
sS'IS_EMPTY_OR'
p5822
S"<class 'gluon.validators.IS_EMPTY_OR'>"
p5823
sS'MARKMIN'
p5824
S"<class 'gluon.html.MARKMIN'>"
p5825
sS'__name__'
p5826
S"'__restricted__'"
p5827
sS'STRONG'
p5828
S"<class 'gluon.html.STRONG'>"
p5829
sS'COL'
p5830
S"<class 'gluon.html.COL'>"
p5831
sS'service'
p5832
S'<gluon.tools.Service object>'
p5833
sS'SCRIPT'
p5834
S"<class 'gluon.html.SCRIPT'>"
p5835
sS'TABLE'
p5836
S"<class 'gluon.html.TABLE'>"
p5837
sS'IS_IPV4'
p5838
S"<class 'gluon.validators.IS_IPV4'>"
p5839
sS'IS_LENGTH'
p5840
S"<class 'gluon.validators.IS_LENGTH'>"
p5841
sS'XML'
p5842
S"<class 'gluon.html.XML'>"
p5843
sS'B'
S"<class 'gluon.html.B'>"
p5844
sS'IMG'
p5845
S"<class 'gluon.html.IMG'>"
p5846
sS'SQLTABLE'
p5847
S"<class 'gluon.sqlhtml.SQLTABLE'>"
p5848
sS'IS_MATCH'
p5849
S"<class 'gluon.validators.IS_MATCH'>"
p5850
sS'IS_ALPHANUMERIC'
p5851
S"<class 'gluon.validators.IS_ALPHANUMERIC'>"
p5852
sS'ven'
p5853
S'None'
p5854
sS'SPAN'
p5855
S"<class 'gluon.html.SPAN'>"
p5856
sS'sta'
p5857
S'None'
p5858
sS'des'
p5859
S'None'
p5860
sS'IS_SLUG'
p5861
S"<class 'gluon.validators.IS_SLUG'>"
p5862
sS'BEAUTIFY'
p5863
S"<class 'gluon.html.BEAUTIFY'>"
p5864
sS'META'
p5865
S"<class 'gluon.html.META'>"
p5866
sS'IS_DATE'
p5867
S"<class 'gluon.validators.IS_DATE'>"
p5868
sS'IS_EMAIL'
p5869
S"<class 'gluon.validators.IS_EMAIL'>"
p5870
sS'IS_NOT_EMPTY'
p5871
S"<class 'gluon.validators.IS_NOT_EMPTY'>"
p5872
sS'IS_FLOAT_IN_RANGE'
p5873
S"<class 'gluon.validators.IS_FLOAT_IN_RANGE'>"
p5874
sS'TBODY'
p5875
S"<class 'gluon.html.TBODY'>"
p5876
sS'CAT'
p5877
S"<class 'gluon.html.CAT'>"
p5878
sS'Field'
p5879
S"<class 'gluon.dal.Field'>"
p5880
sS'Mail'
p5881
S"<class 'gluon.tools.Mail'>"
p5882
sS'middle_columns'
p5883
S"'span12'"
p5884
sS'DIV'
p5885
S"<class 'gluon.html.DIV'>"
p5886
sS'LEGEND'
p5887
S"<class 'gluon.html.LEGEND'>"
p5888
sS'end'
p5889
S'None'
p5890
sS'COLGROUP'
p5891
S"<class 'gluon.html.COLGROUP'>"
p5892
sS'DAL'
p5893
S"<class 'gluon.dal.DAL'>"
p5894
sS'TT'
p5895
S"<class 'gluon.html.TT'>"
p5896
sS'TR'
p5897
S"<class 'gluon.html.TR'>"
p5898
sS'LI'
p5899
S"<class 'gluon.html.LI'>"
p5900
sS'right_sidebar_enabled'
p5901
g100
sS'TH'
p5902
S"<class 'gluon.html.TH'>"
p5903
sS'TD'
p5904
S"<class 'gluon.html.TD'>"
p5905
sS'PluginManager'
p5906
S"<class 'gluon.tools.PluginManager'>"
p5907
sS'IS_URL'
p5908
S"<class 'gluon.validators.IS_URL'>"
p5909
sS'A'
S"<class 'gluon.html.A'>"
p5910
sS'HEAD'
p5911
S"<class 'gluon.html.HEAD'>"
p5912
sS'IS_DATETIME_IN_RANGE'
p5913
S"<class 'gluon.validators.IS_DATETIME_IN_RANGE'>"
p5914
sS'FORM'
p5915
S"<class 'gluon.html.FORM'>"
p5916
sS'I'
S"<class 'gluon.html.I'>"
p5917
sS'crud'
p5918
S'<gluon.tools.Crud object>'
p5919
sS'IS_NOT_IN_DB'
p5920
S"<class 'gluon.validators.IS_NOT_IN_DB'>"
p5921
sg3920
S"<Storage {'body': <cStringIO.StringO object at 0...6fec2b5d70>, 'view': 'default/edit_events.html'}>"
p5922
sS'THEAD'
p5923
S"<class 'gluon.html.THEAD'>"
p5924
sS'IS_NULL_OR'
p5925
S"<class 'gluon.validators.IS_EMPTY_OR'>"
p5926
sg56
S"<Storage {'function': 'edit_events', 'body': <op...torage {'event': 'ITWS Project', 'submit': ''}>}>"
p5927
sS'IS_EXPR'
p5928
S"<class 'gluon.validators.IS_EXPR'>"
p5929
sS'T'
S'<gluon.languages.translator object>'
p5930
sS'tit'
p5931
S'None'
p5932
sS'IS_IN_SET'
p5933
S"<class 'gluon.validators.IS_IN_SET'>"
p5934
sS'IS_UPLOAD_FILENAME'
p5935
S"<class 'gluon.validators.IS_UPLOAD_FILENAME'>"
p5936
sS'IS_DECIMAL_IN_RANGE'
p5937
S"<class 'gluon.validators.IS_DECIMAL_IN_RANGE'>"
p5938
sssS'traceback'
p5939
S'Traceback (most recent call last):\n  File "/home/simran/web2py/gluon/restricted.py", line 212, in restricted\n    exec ccode in environment\n  File "/home/simran/web2py/applications/IIIT_calendars/views/default/edit_events.html", line 71, in <module>\nNameError: name \'form\' is not defined\n'
p5940
s.